libkea-asiodns.so.35:_ZN3isc7asiodns7IOFetch11initIOFetchERN5boost10shared_ptrINS_3dns7MessageEEENS1_8ProtocolERNS_8asiolink9IOServiceERKNS4_8QuestionERKNS9_9IOAddressEtRNS3_INS_4util12OutputBufferEEEPNS1_8CallbackEib
libkea-asiodns.so.35:_ZN3isc7asiodns7IOFetch12logIOFailureEN5boost6system10error_codeE
libkea-asiodns.so.35:_ZN3isc7asiodns7IOFetch4stopENS1_6ResultE
libkea-asiodns.so.35:_ZN3isc7asiodns7IOFetchC1ENS1_8ProtocolERNS_8asiolink9IOServiceEN5boost10shared_ptrIKNS_3dns7MessageEEERKNS3_9IOAddressEtRNS7_INS_4util12OutputBufferEEEPNS1_8CallbackEi
libkea-asiodns.so.35:_ZN3isc7asiodns7IOFetchC1ENS1_8ProtocolERNS_8asiolink9IOServiceERKNS_3dns8QuestionERKNS3_9IOAddressEtRN5boost10shared_ptrINS_4util12OutputBufferEEEPNS1_8CallbackEib
libkea-asiodns.so.35:_ZN3isc7asiodns7IOFetchC1ENS1_8ProtocolERNS_8asiolink9IOServiceERN5boost10shared_ptrINS_4util12OutputBufferEEERKNS3_9IOAddressEtSB_PNS1_8CallbackEi
libkea-asiodns.so.35:_ZN3isc7asiodns7IOFetchC2ENS1_8ProtocolERNS_8asiolink9IOServiceEN5boost10shared_ptrIKNS_3dns7MessageEEERKNS3_9IOAddressEtRNS7_INS_4util12OutputBufferEEEPNS1_8CallbackEi
libkea-asiodns.so.35:_ZN3isc7asiodns7IOFetchC2ENS1_8ProtocolERNS_8asiolink9IOServiceERKNS_3dns8QuestionERKNS3_9IOAddressEtRN5boost10shared_ptrINS_4util12OutputBufferEEEPNS1_8CallbackEib
libkea-asiodns.so.35:_ZN3isc7asiodns7IOFetchC2ENS1_8ProtocolERNS_8asiolink9IOServiceERN5boost10shared_ptrINS_4util12OutputBufferEEERKNS3_9IOAddressEtSB_PNS1_8CallbackEi
libkea-asiodns.so.35:_ZN3isc7asiodns7IOFetchclEN5boost6system10error_codeEm
libkea-asiodns.so.35:_ZN5boost4asio6detail11executor_opINS1_17executor_functionESaIvENS1_19scheduler_operationEE11do_completeEPvPS5_RKNS_6system10error_codeEm
libkea-asiodns.so.35:_ZN5boost4asio6detail12wait_handlerISt5_BindIFMN3isc7asiodns7IOFetchEFvNS6_6ResultEES6_S7_EENS0_15any_io_executorEE11do_completeEPvPNS1_19scheduler_operationERKNS_6system10error_codeEm
libkea-asiodns.so.35:_ZN5boost4asio6detail13epoll_reactor16descriptor_state11do_completeEPvPNS1_19scheduler_operationERKNS_6system10error_codeEm
libkea-asiodns.so.35:_ZN5boost4asio6detail16service_registry6createINS1_13epoll_reactorENS0_17execution_contextEEEPNS5_7serviceEPv
libkea-asiodns.so.35:_ZN5boost4asio6detail17executor_function8completeINS1_7binder0INS1_7binder1IN3isc7asiodns7IOFetchENS_6system10error_codeEEEEESaIvEEEvPNS2_9impl_baseEb
libkea-asiodns.so.35:_ZN5boost4asio6detail17executor_function8completeINS1_7binder1IN3isc7asiodns7IOFetchENS_6system10error_codeEEESaIvEEEvPNS2_9impl_baseEb
libkea-asiodns.so.35:_ZN5boost4asio6detail17executor_function8completeINS1_7binder1ISt5_BindIFMN3isc7asiodns7IOFetchEFvNS8_6ResultEES8_S9_EENS_6system10error_codeEEESaIvEEEvPNS2_9impl_baseEb
libkea-asiodns.so.35:_ZN5boost4asio6detail17executor_function8completeINS1_7binder2IN3isc7asiodns7IOFetchENS_6system10error_codeEmEESaIvEEEvPNS2_9impl_baseEb
libkea-asiodns.so.35:_ZN5boost4asio6detail22executor_function_view8completeINS1_7binder0INS1_7binder1IN3isc7asiodns7IOFetchENS_6system10error_codeEEEEEEEvPv
libkea-asiodns.so.35:_ZN5boost4asio6detail22executor_function_view8completeINS1_7binder1IN3isc7asiodns7IOFetchENS_6system10error_codeEEEEEvPv
libkea-asiodns.so.35:_ZN5boost4asio6detail22executor_function_view8completeINS1_7binder1ISt5_BindIFMN3isc7asiodns7IOFetchEFvNS8_6ResultEES8_S9_EENS_6system10error_codeEEEEEvPv
libkea-asiodns.so.35:_ZN5boost4asio6detail22executor_function_view8completeINS1_7binder2IN3isc7asiodns7IOFetchENS_6system10error_codeEmEEEEvPv
libkea-asiodns.so.35:_ZN5boost4asio6detail23reactive_socket_recv_opINS0_17mutable_buffers_1EN3isc7asiodns7IOFetchENS0_15any_io_executorEE11do_completeEPvPNS1_19scheduler_operationERKNS_6system10error_codeEm
libkea-asiodns.so.35:_ZN5boost4asio6detail23reactive_socket_send_opINS0_15const_buffers_1EN3isc7asiodns7IOFetchENS0_15any_io_executorEE11do_completeEPvPNS1_19scheduler_operationERKNS_6system10error_codeEm
libkea-asiodns.so.35:_ZN5boost4asio6detail25reactive_socket_sendto_opINS0_15const_buffers_1ENS0_2ip14basic_endpointINS4_3udpEEEN3isc7asiodns7IOFetchENS0_15any_io_executorEE11do_completeEPvPNS1_19scheduler_operationERKNS_6system10error_codeEm
libkea-asiodns.so.35:_ZN5boost4asio6detail26reactive_socket_connect_opIN3isc7asiodns7IOFetchENS0_15any_io_executorEE11do_completeEPvPNS1_19scheduler_operationERKNS_6system10error_codeEm
libkea-asiodns.so.35:_ZN5boost4asio6detail27reactive_socket_recvfrom_opINS0_17mutable_buffers_1ENS0_2ip14basic_endpointINS4_3udpEEEN3isc7asiodns7IOFetchENS0_15any_io_executorEE11do_completeEPvPNS1_19scheduler_operationERKNS_6system10error_codeEm
libkea-asiodns.so.35:_ZN5boost4asio6detail28reactive_socket_recv_op_baseINS0_17mutable_buffers_1EE10do_performEPNS1_10reactor_opE
libkea-asiodns.so.35:_ZN5boost4asio6detail28reactive_socket_send_op_baseINS0_15const_buffers_1EE10do_performEPNS1_10reactor_opE
libkea-asiodns.so.35:_ZN5boost4asio6detail30reactive_socket_sendto_op_baseINS0_15const_buffers_1ENS0_2ip14basic_endpointINS4_3udpEEEE10do_performEPNS1_10reactor_opE
libkea-asiodns.so.35:_ZN5boost4asio6detail31reactive_socket_connect_op_base10do_performEPNS1_10reactor_opE
libkea-asiodns.so.35:_ZN5boost4asio6detail32reactive_socket_recvfrom_op_baseINS0_17mutable_buffers_1ENS0_2ip14basic_endpointINS4_3udpEEEE10do_performEPNS1_10reactor_opE
libkea-asiodns.so.35:_ZN5boost4asio9execution6detail17any_executor_base10equal_voidERKS3_S5_
libkea-asiodns.so.35:_ZN5boost4asio9execution6detail17any_executor_base10execute_exINS0_10io_context19basic_executor_typeISaIvELj0EEEEEvRKS3_ONS0_6detail17executor_functionE
libkea-asiodns.so.35:_ZN5boost4asio9execution6detail17any_executor_base10execute_exINS0_10io_context19basic_executor_typeISaIvELj4EEEEEvRKS3_ONS0_6detail17executor_functionE
libkea-asiodns.so.35:_ZN5boost4asio9execution6detail17any_executor_base10require_fnINS1_12any_executorIJNS1_12context_as_tIRNS0_17execution_contextEEENS2_8blocking7never_tILi0EEENS1_11prefer_onlyINSA_10possibly_tILi0EEEEENSD_INS2_16outstanding_work9tracked_tILi0EEEEENSD_INSH_11untracked_tILi0EEEEENSD_INS2_12relationship6fork_tILi0EEEEENSD_INSO_14continuation_tILi0EEEEEEEENS0_10io_context19basic_executor_typeISaIvELj0EEES9_EET_PKvS12_
libkea-asiodns.so.35:_ZN5boost4asio9execution6detail17any_executor_base10require_fnINS1_12any_executorIJNS1_12context_as_tIRNS0_17execution_contextEEENS2_8blocking7never_tILi0EEENS1_11prefer_onlyINSA_10possibly_tILi0EEEEENSD_INS2_16outstanding_work9tracked_tILi0EEEEENSD_INSH_11untracked_tILi0EEEEENSD_INS2_12relationship6fork_tILi0EEEEENSD_INSO_14continuation_tILi0EEEEEEEENS0_10io_context19basic_executor_typeISaIvELj0EEESC_EET_PKvS12_
libkea-asiodns.so.35:_ZN5boost4asio9execution6detail17any_executor_base10require_fnINS1_12any_executorIJNS1_12context_as_tIRNS0_17execution_contextEEENS2_8blocking7never_tILi0EEENS1_11prefer_onlyINSA_10possibly_tILi0EEEEENSD_INS2_16outstanding_work9tracked_tILi0EEEEENSD_INSH_11untracked_tILi0EEEEENSD_INS2_12relationship6fork_tILi0EEEEENSD_INSO_14continuation_tILi0EEEEEEEENS0_10io_context19basic_executor_typeISaIvELj0EEESG_EET_PKvS12_
libkea-asiodns.so.35:_ZN5boost4asio9execution6detail17any_executor_base10require_fnINS1_12any_executorIJNS1_12context_as_tIRNS0_17execution_contextEEENS2_8blocking7never_tILi0EEENS1_11prefer_onlyINSA_10possibly_tILi0EEEEENSD_INS2_16outstanding_work9tracked_tILi0EEEEENSD_INSH_11untracked_tILi0EEEEENSD_INS2_12relationship6fork_tILi0EEEEENSD_INSO_14continuation_tILi0EEEEEEEENS0_10io_context19basic_executor_typeISaIvELj0EEESK_EET_PKvS12_
libkea-asiodns.so.35:_ZN5boost4asio9execution6detail17any_executor_base10require_fnINS1_12any_executorIJNS1_12context_as_tIRNS0_17execution_contextEEENS2_8blocking7never_tILi0EEENS1_11prefer_onlyINSA_10possibly_tILi0EEEEENSD_INS2_16outstanding_work9tracked_tILi0EEEEENSD_INSH_11untracked_tILi0EEEEENSD_INS2_12relationship6fork_tILi0EEEEENSD_INSO_14continuation_tILi0EEEEEEEENS0_10io_context19basic_executor_typeISaIvELj0EEESN_EET_PKvS12_
libkea-asiodns.so.35:_ZN5boost4asio9execution6detail17any_executor_base10require_fnINS1_12any_executorIJNS1_12context_as_tIRNS0_17execution_contextEEENS2_8blocking7never_tILi0EEENS1_11prefer_onlyINSA_10possibly_tILi0EEEEENSD_INS2_16outstanding_work9tracked_tILi0EEEEENSD_INSH_11untracked_tILi0EEEEENSD_INS2_12relationship6fork_tILi0EEEEENSD_INSO_14continuation_tILi0EEEEEEEENS0_10io_context19basic_executor_typeISaIvELj0EEESR_EET_PKvS12_
libkea-asiodns.so.35:_ZN5boost4asio9execution6detail17any_executor_base10require_fnINS1_12any_executorIJNS1_12context_as_tIRNS0_17execution_contextEEENS2_8blocking7never_tILi0EEENS1_11prefer_onlyINSA_10possibly_tILi0EEEEENSD_INS2_16outstanding_work9tracked_tILi0EEEEENSD_INSH_11untracked_tILi0EEEEENSD_INS2_12relationship6fork_tILi0EEEEENSD_INSO_14continuation_tILi0EEEEEEEENS0_10io_context19basic_executor_typeISaIvELj0EEESU_EET_PKvS12_
libkea-asiodns.so.35:_ZN5boost4asio9execution6detail17any_executor_base10require_fnINS1_12any_executorIJNS1_12context_as_tIRNS0_17execution_contextEEENS2_8blocking7never_tILi0EEENS1_11prefer_onlyINSA_10possibly_tILi0EEEEENSD_INS2_16outstanding_work9tracked_tILi0EEEEENSD_INSH_11untracked_tILi0EEEEENSD_INS2_12relationship6fork_tILi0EEEEENSD_INSO_14continuation_tILi0EEEEEEEENS0_10io_context19basic_executor_typeISaIvELj4EEES9_EET_PKvS12_
libkea-asiodns.so.35:_ZN5boost4asio9execution6detail17any_executor_base10require_fnINS1_12any_executorIJNS1_12context_as_tIRNS0_17execution_contextEEENS2_8blocking7never_tILi0EEENS1_11prefer_onlyINSA_10possibly_tILi0EEEEENSD_INS2_16outstanding_work9tracked_tILi0EEEEENSD_INSH_11untracked_tILi0EEEEENSD_INS2_12relationship6fork_tILi0EEEEENSD_INSO_14continuation_tILi0EEEEEEEENS0_10io_context19basic_executor_typeISaIvELj4EEESC_EET_PKvS12_
libkea-asiodns.so.35:_ZN5boost4asio9execution6detail17any_executor_base10require_fnINS1_12any_executorIJNS1_12context_as_tIRNS0_17execution_contextEEENS2_8blocking7never_tILi0EEENS1_11prefer_onlyINSA_10possibly_tILi0EEEEENSD_INS2_16outstanding_work9tracked_tILi0EEEEENSD_INSH_11untracked_tILi0EEEEENSD_INS2_12relationship6fork_tILi0EEEEENSD_INSO_14continuation_tILi0EEEEEEEENS0_10io_context19basic_executor_typeISaIvELj4EEESG_EET_PKvS12_
libkea-asiodns.so.35:_ZN5boost4asio9execution6detail17any_executor_base10require_fnINS1_12any_executorIJNS1_12context_as_tIRNS0_17execution_contextEEENS2_8blocking7never_tILi0EEENS1_11prefer_onlyINSA_10possibly_tILi0EEEEENSD_INS2_16outstanding_work9tracked_tILi0EEEEENSD_INSH_11untracked_tILi0EEEEENSD_INS2_12relationship6fork_tILi0EEEEENSD_INSO_14continuation_tILi0EEEEEEEENS0_10io_context19basic_executor_typeISaIvELj4EEESK_EET_PKvS12_
libkea-asiodns.so.35:_ZN5boost4asio9execution6detail17any_executor_base10require_fnINS1_12any_executorIJNS1_12context_as_tIRNS0_17execution_contextEEENS2_8blocking7never_tILi0EEENS1_11prefer_onlyINSA_10possibly_tILi0EEEEENSD_INS2_16outstanding_work9tracked_tILi0EEEEENSD_INSH_11untracked_tILi0EEEEENSD_INS2_12relationship6fork_tILi0EEEEENSD_INSO_14continuation_tILi0EEEEEEEENS0_10io_context19basic_executor_typeISaIvELj4EEESN_EET_PKvS12_
libkea-asiodns.so.35:_ZN5boost4asio9execution6detail17any_executor_base10require_fnINS1_12any_executorIJNS1_12context_as_tIRNS0_17execution_contextEEENS2_8blocking7never_tILi0EEENS1_11prefer_onlyINSA_10possibly_tILi0EEEEENSD_INS2_16outstanding_work9tracked_tILi0EEEEENSD_INSH_11untracked_tILi0EEEEENSD_INS2_12relationship6fork_tILi0EEEEENSD_INSO_14continuation_tILi0EEEEEEEENS0_10io_context19basic_executor_typeISaIvELj4EEESR_EET_PKvS12_
libkea-asiodns.so.35:_ZN5boost4asio9execution6detail17any_executor_base10require_fnINS1_12any_executorIJNS1_12context_as_tIRNS0_17execution_contextEEENS2_8blocking7never_tILi0EEENS1_11prefer_onlyINSA_10possibly_tILi0EEEEENSD_INS2_16outstanding_work9tracked_tILi0EEEEENSD_INSH_11untracked_tILi0EEEEENSD_INS2_12relationship6fork_tILi0EEEEENSD_INSO_14continuation_tILi0EEEEEEEENS0_10io_context19basic_executor_typeISaIvELj4EEESU_EET_PKvS12_
libkea-asiodns.so.35:_ZN5boost4asio9execution6detail17any_executor_base10require_fnINS1_12any_executorIJNS1_12context_as_tIRNS0_17execution_contextEEENS2_8blocking7never_tILi0EEENS1_11prefer_onlyINSA_10possibly_tILi0EEEEENSD_INS2_16outstanding_work9tracked_tILi0EEEEENSD_INSH_11untracked_tILi0EEEEENSD_INS2_12relationship6fork_tILi0EEEEENSD_INSO_14continuation_tILi0EEEEEEEEvS9_EET_PKvSY_
libkea-asiodns.so.35:_ZN5boost4asio9execution6detail17any_executor_base10require_fnINS1_12any_executorIJNS1_12context_as_tIRNS0_17execution_contextEEENS2_8blocking7never_tILi0EEENS1_11prefer_onlyINSA_10possibly_tILi0EEEEENSD_INS2_16outstanding_work9tracked_tILi0EEEEENSD_INSH_11untracked_tILi0EEEEENSD_INS2_12relationship6fork_tILi0EEEEENSD_INSO_14continuation_tILi0EEEEEEEEvSC_EET_PKvSY_
libkea-asiodns.so.35:_ZN5boost4asio9execution6detail17any_executor_base10require_fnINS1_12any_executorIJNS1_12context_as_tIRNS0_17execution_contextEEENS2_8blocking7never_tILi0EEENS1_11prefer_onlyINSA_10possibly_tILi0EEEEENSD_INS2_16outstanding_work9tracked_tILi0EEEEENSD_INSH_11untracked_tILi0EEEEENSD_INS2_12relationship6fork_tILi0EEEEENSD_INSO_14continuation_tILi0EEEEEEEEvSG_EET_PKvSY_
libkea-asiodns.so.35:_ZN5boost4asio9execution6detail17any_executor_base10require_fnINS1_12any_executorIJNS1_12context_as_tIRNS0_17execution_contextEEENS2_8blocking7never_tILi0EEENS1_11prefer_onlyINSA_10possibly_tILi0EEEEENSD_INS2_16outstanding_work9tracked_tILi0EEEEENSD_INSH_11untracked_tILi0EEEEENSD_INS2_12relationship6fork_tILi0EEEEENSD_INSO_14continuation_tILi0EEEEEEEEvSK_EET_PKvSY_
libkea-asiodns.so.35:_ZN5boost4asio9execution6detail17any_executor_base10require_fnINS1_12any_executorIJNS1_12context_as_tIRNS0_17execution_contextEEENS2_8blocking7never_tILi0EEENS1_11prefer_onlyINSA_10possibly_tILi0EEEEENSD_INS2_16outstanding_work9tracked_tILi0EEEEENSD_INSH_11untracked_tILi0EEEEENSD_INS2_12relationship6fork_tILi0EEEEENSD_INSO_14continuation_tILi0EEEEEEEEvSN_EET_PKvSY_
libkea-asiodns.so.35:_ZN5boost4asio9execution6detail17any_executor_base10require_fnINS1_12any_executorIJNS1_12context_as_tIRNS0_17execution_contextEEENS2_8blocking7never_tILi0EEENS1_11prefer_onlyINSA_10possibly_tILi0EEEEENSD_INS2_16outstanding_work9tracked_tILi0EEEEENSD_INSH_11untracked_tILi0EEEEENSD_INS2_12relationship6fork_tILi0EEEEENSD_INSO_14continuation_tILi0EEEEEEEEvSR_EET_PKvSY_
libkea-asiodns.so.35:_ZN5boost4asio9execution6detail17any_executor_base10require_fnINS1_12any_executorIJNS1_12context_as_tIRNS0_17execution_contextEEENS2_8blocking7never_tILi0EEENS1_11prefer_onlyINSA_10possibly_tILi0EEEEENSD_INS2_16outstanding_work9tracked_tILi0EEEEENSD_INSH_11untracked_tILi0EEEEENSD_INS2_12relationship6fork_tILi0EEEEENSD_INSO_14continuation_tILi0EEEEEEEEvSU_EET_PKvSY_
libkea-asiodns.so.35:_ZN5boost4asio9execution6detail17any_executor_base11copy_objectINS0_10io_context19basic_executor_typeISaIvELj0EEEEEvRS3_RKS3_
libkea-asiodns.so.35:_ZN5boost4asio9execution6detail17any_executor_base11copy_objectINS0_10io_context19basic_executor_typeISaIvELj4EEEEEvRS3_RKS3_
libkea-asiodns.so.35:_ZN5boost4asio9execution6detail17any_executor_base11move_objectINS0_10io_context19basic_executor_typeISaIvELj0EEEEEvRS3_S9_
libkea-asiodns.so.35:_ZN5boost4asio9execution6detail17any_executor_base11move_objectINS0_10io_context19basic_executor_typeISaIvELj4EEEEEvRS3_S9_
libkea-asiodns.so.35:_ZN5boost4asio9execution6detail17any_executor_base11target_voidERKS3_
libkea-asiodns.so.35:_ZN5boost4asio9execution6detail17any_executor_base12destroy_voidERS3_
libkea-asiodns.so.35:_ZN5boost4asio9execution6detail17any_executor_base12execute_voidERKS3_ONS0_6detail17executor_functionE
libkea-asiodns.so.35:_ZN5boost4asio9execution6detail17any_executor_base13target_objectINS0_10io_context19basic_executor_typeISaIvELj0EEEEEPKvRKS3_
libkea-asiodns.so.35:_ZN5boost4asio9execution6detail17any_executor_base13target_objectINS0_10io_context19basic_executor_typeISaIvELj4EEEEEPKvRKS3_
libkea-asiodns.so.35:_ZN5boost4asio9execution6detail17any_executor_base14destroy_objectINS0_10io_context19basic_executor_typeISaIvELj0EEEEEvRS3_
libkea-asiodns.so.35:_ZN5boost4asio9execution6detail17any_executor_base14destroy_objectINS0_10io_context19basic_executor_typeISaIvELj4EEEEEvRS3_
libkea-asiodns.so.35:_ZN5boost4asio9execution6detail17any_executor_base14target_type_exINS0_10io_context19basic_executor_typeISaIvELj0EEEEERKSt9type_infov
libkea-asiodns.so.35:_ZN5boost4asio9execution6detail17any_executor_base14target_type_exINS0_10io_context19basic_executor_typeISaIvELj4EEEEERKSt9type_infov
libkea-asiodns.so.35:_ZN5boost4asio9execution6detail17any_executor_base16target_type_voidEv
libkea-asiodns.so.35:_ZN5boost4asio9execution6detail17any_executor_base21blocking_execute_voidERKS3_NS0_6detail22executor_function_viewE
libkea-asiodns.so.35:_ZN5boost4asio9execution6detail17any_executor_base8equal_exINS0_10io_context19basic_executor_typeISaIvELj0EEEEEbRKS3_SA_
libkea-asiodns.so.35:_ZN5boost4asio9execution6detail17any_executor_base8equal_exINS0_10io_context19basic_executor_typeISaIvELj4EEEEEbRKS3_SA_
libkea-asiodns.so.35:_ZN5boost4asio9execution6detail17any_executor_base8query_fnINS0_10io_context19basic_executor_typeISaIvELj0EEENS1_11prefer_onlyINS2_12relationship14continuation_tILi0EEEEEEEvPvPKvSG_
libkea-asiodns.so.35:_ZN5boost4asio9execution6detail17any_executor_base8query_fnINS0_10io_context19basic_executor_typeISaIvELj0EEENS1_11prefer_onlyINS2_12relationship6fork_tILi0EEEEEEEvPvPKvSG_
libkea-asiodns.so.35:_ZN5boost4asio9execution6detail17any_executor_base8query_fnINS0_10io_context19basic_executor_typeISaIvELj0EEENS1_11prefer_onlyINS2_16outstanding_work11untracked_tILi0EEEEEEEvPvPKvSG_
libkea-asiodns.so.35:_ZN5boost4asio9execution6detail17any_executor_base8query_fnINS0_10io_context19basic_executor_typeISaIvELj0EEENS1_11prefer_onlyINS2_16outstanding_work9tracked_tILi0EEEEEEEvPvPKvSG_
libkea-asiodns.so.35:_ZN5boost4asio9execution6detail17any_executor_base8query_fnINS0_10io_context19basic_executor_typeISaIvELj0EEENS1_11prefer_onlyINS2_8blocking10possibly_tILi0EEEEEEEvPvPKvSG_
libkea-asiodns.so.35:_ZN5boost4asio9execution6detail17any_executor_base8query_fnINS0_10io_context19basic_executor_typeISaIvELj0EEENS1_12context_as_tIRNS0_17execution_contextEEEEEvPvPKvSF_
libkea-asiodns.so.35:_ZN5boost4asio9execution6detail17any_executor_base8query_fnINS0_10io_context19basic_executor_typeISaIvELj0EEENS2_8blocking7never_tILi0EEEEEvPvPKvSE_
libkea-asiodns.so.35:_ZN5boost4asio9execution6detail17any_executor_base8query_fnINS0_10io_context19basic_executor_typeISaIvELj4EEENS1_11prefer_onlyINS2_12relationship14continuation_tILi0EEEEEEEvPvPKvSG_
libkea-asiodns.so.35:_ZN5boost4asio9execution6detail17any_executor_base8query_fnINS0_10io_context19basic_executor_typeISaIvELj4EEENS1_11prefer_onlyINS2_12relationship6fork_tILi0EEEEEEEvPvPKvSG_
libkea-asiodns.so.35:_ZN5boost4asio9execution6detail17any_executor_base8query_fnINS0_10io_context19basic_executor_typeISaIvELj4EEENS1_11prefer_onlyINS2_16outstanding_work11untracked_tILi0EEEEEEEvPvPKvSG_
libkea-asiodns.so.35:_ZN5boost4asio9execution6detail17any_executor_base8query_fnINS0_10io_context19basic_executor_typeISaIvELj4EEENS1_11prefer_onlyINS2_16outstanding_work9tracked_tILi0EEEEEEEvPvPKvSG_
libkea-asiodns.so.35:_ZN5boost4asio9execution6detail17any_executor_base8query_fnINS0_10io_context19basic_executor_typeISaIvELj4EEENS1_11prefer_onlyINS2_8blocking10possibly_tILi0EEEEEEEvPvPKvSG_
libkea-asiodns.so.35:_ZN5boost4asio9execution6detail17any_executor_base8query_fnINS0_10io_context19basic_executor_typeISaIvELj4EEENS1_12context_as_tIRNS0_17execution_contextEEEEEvPvPKvSF_
libkea-asiodns.so.35:_ZN5boost4asio9execution6detail17any_executor_base8query_fnINS0_10io_context19basic_executor_typeISaIvELj4EEENS2_8blocking7never_tILi0EEEEEvPvPKvSE_
libkea-asiodns.so.35:_ZN5boost4asio9execution6detail17any_executor_base8query_fnIvNS1_11prefer_onlyINS2_12relationship14continuation_tILi0EEEEEEEvPvPKvSC_
libkea-asiodns.so.35:_ZN5boost4asio9execution6detail17any_executor_base8query_fnIvNS1_11prefer_onlyINS2_12relationship6fork_tILi0EEEEEEEvPvPKvSC_
libkea-asiodns.so.35:_ZN5boost4asio9execution6detail17any_executor_base8query_fnIvNS1_11prefer_onlyINS2_16outstanding_work11untracked_tILi0EEEEEEEvPvPKvSC_
libkea-asiodns.so.35:_ZN5boost4asio9execution6detail17any_executor_base8query_fnIvNS1_11prefer_onlyINS2_16outstanding_work9tracked_tILi0EEEEEEEvPvPKvSC_
libkea-asiodns.so.35:_ZN5boost4asio9execution6detail17any_executor_base8query_fnIvNS1_11prefer_onlyINS2_8blocking10possibly_tILi0EEEEEEEvPvPKvSC_
libkea-asiodns.so.35:_ZN5boost4asio9execution6detail17any_executor_base8query_fnIvNS1_12context_as_tIRNS0_17execution_contextEEEEEvPvPKvSB_
libkea-asiodns.so.35:_ZN5boost4asio9execution6detail17any_executor_base8query_fnIvNS2_8blocking7never_tILi0EEEEEvPvPKvSA_
libkea-asiodns.so.35:_ZN5boost4asio9execution6detail17any_executor_base9copy_voidERS3_RKS3_
libkea-asiodns.so.35:_ZN5boost4asio9execution6detail17any_executor_base9move_voidERS3_S4_
libkea-asiodns.so.35:_ZN5boost4asio9execution6detail17any_executor_base9prefer_fnINS1_12any_executorIJNS1_12context_as_tIRNS0_17execution_contextEEENS2_8blocking7never_tILi0EEENS1_11prefer_onlyINSA_10possibly_tILi0EEEEENSD_INS2_16outstanding_work9tracked_tILi0EEEEENSD_INSH_11untracked_tILi0EEEEENSD_INS2_12relationship6fork_tILi0EEEEENSD_INSO_14continuation_tILi0EEEEEEEENS0_10io_context19basic_executor_typeISaIvELj0EEES9_EET_PKvS12_
libkea-asiodns.so.35:_ZN5boost4asio9execution6detail17any_executor_base9prefer_fnINS1_12any_executorIJNS1_12context_as_tIRNS0_17execution_contextEEENS2_8blocking7never_tILi0EEENS1_11prefer_onlyINSA_10possibly_tILi0EEEEENSD_INS2_16outstanding_work9tracked_tILi0EEEEENSD_INSH_11untracked_tILi0EEEEENSD_INS2_12relationship6fork_tILi0EEEEENSD_INSO_14continuation_tILi0EEEEEEEENS0_10io_context19basic_executor_typeISaIvELj0EEESC_EET_PKvS12_
libkea-asiodns.so.35:_ZN5boost4asio9execution6detail17any_executor_base9prefer_fnINS1_12any_executorIJNS1_12context_as_tIRNS0_17execution_contextEEENS2_8blocking7never_tILi0EEENS1_11prefer_onlyINSA_10possibly_tILi0EEEEENSD_INS2_16outstanding_work9tracked_tILi0EEEEENSD_INSH_11untracked_tILi0EEEEENSD_INS2_12relationship6fork_tILi0EEEEENSD_INSO_14continuation_tILi0EEEEEEEENS0_10io_context19basic_executor_typeISaIvELj0EEESG_EET_PKvS12_
libkea-asiodns.so.35:_ZN5boost4asio9execution6detail17any_executor_base9prefer_fnINS1_12any_executorIJNS1_12context_as_tIRNS0_17execution_contextEEENS2_8blocking7never_tILi0EEENS1_11prefer_onlyINSA_10possibly_tILi0EEEEENSD_INS2_16outstanding_work9tracked_tILi0EEEEENSD_INSH_11untracked_tILi0EEEEENSD_INS2_12relationship6fork_tILi0EEEEENSD_INSO_14continuation_tILi0EEEEEEEENS0_10io_context19basic_executor_typeISaIvELj0EEESK_EET_PKvS12_
libkea-asiodns.so.35:_ZN5boost4asio9execution6detail17any_executor_base9prefer_fnINS1_12any_executorIJNS1_12context_as_tIRNS0_17execution_contextEEENS2_8blocking7never_tILi0EEENS1_11prefer_onlyINSA_10possibly_tILi0EEEEENSD_INS2_16outstanding_work9tracked_tILi0EEEEENSD_INSH_11untracked_tILi0EEEEENSD_INS2_12relationship6fork_tILi0EEEEENSD_INSO_14continuation_tILi0EEEEEEEENS0_10io_context19basic_executor_typeISaIvELj0EEESN_EET_PKvS12_
libkea-asiodns.so.35:_ZN5boost4asio9execution6detail17any_executor_base9prefer_fnINS1_12any_executorIJNS1_12context_as_tIRNS0_17execution_contextEEENS2_8blocking7never_tILi0EEENS1_11prefer_onlyINSA_10possibly_tILi0EEEEENSD_INS2_16outstanding_work9tracked_tILi0EEEEENSD_INSH_11untracked_tILi0EEEEENSD_INS2_12relationship6fork_tILi0EEEEENSD_INSO_14continuation_tILi0EEEEEEEENS0_10io_context19basic_executor_typeISaIvELj0EEESR_EET_PKvS12_
libkea-asiodns.so.35:_ZN5boost4asio9execution6detail17any_executor_base9prefer_fnINS1_12any_executorIJNS1_12context_as_tIRNS0_17execution_contextEEENS2_8blocking7never_tILi0EEENS1_11prefer_onlyINSA_10possibly_tILi0EEEEENSD_INS2_16outstanding_work9tracked_tILi0EEEEENSD_INSH_11untracked_tILi0EEEEENSD_INS2_12relationship6fork_tILi0EEEEENSD_INSO_14continuation_tILi0EEEEEEEENS0_10io_context19basic_executor_typeISaIvELj0EEESU_EET_PKvS12_
libkea-asiodns.so.35:_ZN5boost4asio9execution6detail17any_executor_base9prefer_fnINS1_12any_executorIJNS1_12context_as_tIRNS0_17execution_contextEEENS2_8blocking7never_tILi0EEENS1_11prefer_onlyINSA_10possibly_tILi0EEEEENSD_INS2_16outstanding_work9tracked_tILi0EEEEENSD_INSH_11untracked_tILi0EEEEENSD_INS2_12relationship6fork_tILi0EEEEENSD_INSO_14continuation_tILi0EEEEEEEENS0_10io_context19basic_executor_typeISaIvELj4EEES9_EET_PKvS12_
libkea-asiodns.so.35:_ZN5boost4asio9execution6detail17any_executor_base9prefer_fnINS1_12any_executorIJNS1_12context_as_tIRNS0_17execution_contextEEENS2_8blocking7never_tILi0EEENS1_11prefer_onlyINSA_10possibly_tILi0EEEEENSD_INS2_16outstanding_work9tracked_tILi0EEEEENSD_INSH_11untracked_tILi0EEEEENSD_INS2_12relationship6fork_tILi0EEEEENSD_INSO_14continuation_tILi0EEEEEEEENS0_10io_context19basic_executor_typeISaIvELj4EEESC_EET_PKvS12_
libkea-asiodns.so.35:_ZN5boost4asio9execution6detail17any_executor_base9prefer_fnINS1_12any_executorIJNS1_12context_as_tIRNS0_17execution_contextEEENS2_8blocking7never_tILi0EEENS1_11prefer_onlyINSA_10possibly_tILi0EEEEENSD_INS2_16outstanding_work9tracked_tILi0EEEEENSD_INSH_11untracked_tILi0EEEEENSD_INS2_12relationship6fork_tILi0EEEEENSD_INSO_14continuation_tILi0EEEEEEEENS0_10io_context19basic_executor_typeISaIvELj4EEESG_EET_PKvS12_
libkea-asiodns.so.35:_ZN5boost4asio9execution6detail17any_executor_base9prefer_fnINS1_12any_executorIJNS1_12context_as_tIRNS0_17execution_contextEEENS2_8blocking7never_tILi0EEENS1_11prefer_onlyINSA_10possibly_tILi0EEEEENSD_INS2_16outstanding_work9tracked_tILi0EEEEENSD_INSH_11untracked_tILi0EEEEENSD_INS2_12relationship6fork_tILi0EEEEENSD_INSO_14continuation_tILi0EEEEEEEENS0_10io_context19basic_executor_typeISaIvELj4EEESK_EET_PKvS12_
libkea-asiodns.so.35:_ZN5boost4asio9execution6detail17any_executor_base9prefer_fnINS1_12any_executorIJNS1_12context_as_tIRNS0_17execution_contextEEENS2_8blocking7never_tILi0EEENS1_11prefer_onlyINSA_10possibly_tILi0EEEEENSD_INS2_16outstanding_work9tracked_tILi0EEEEENSD_INSH_11untracked_tILi0EEEEENSD_INS2_12relationship6fork_tILi0EEEEENSD_INSO_14continuation_tILi0EEEEEEEENS0_10io_context19basic_executor_typeISaIvELj4EEESN_EET_PKvS12_
libkea-asiodns.so.35:_ZN5boost4asio9execution6detail17any_executor_base9prefer_fnINS1_12any_executorIJNS1_12context_as_tIRNS0_17execution_contextEEENS2_8blocking7never_tILi0EEENS1_11prefer_onlyINSA_10possibly_tILi0EEEEENSD_INS2_16outstanding_work9tracked_tILi0EEEEENSD_INSH_11untracked_tILi0EEEEENSD_INS2_12relationship6fork_tILi0EEEEENSD_INSO_14continuation_tILi0EEEEEEEENS0_10io_context19basic_executor_typeISaIvELj4EEESR_EET_PKvS12_
libkea-asiodns.so.35:_ZN5boost4asio9execution6detail17any_executor_base9prefer_fnINS1_12any_executorIJNS1_12context_as_tIRNS0_17execution_contextEEENS2_8blocking7never_tILi0EEENS1_11prefer_onlyINSA_10possibly_tILi0EEEEENSD_INS2_16outstanding_work9tracked_tILi0EEEEENSD_INSH_11untracked_tILi0EEEEENSD_INS2_12relationship6fork_tILi0EEEEENSD_INSO_14continuation_tILi0EEEEEEEENS0_10io_context19basic_executor_typeISaIvELj4EEESU_EET_PKvS12_
libkea-asiodns.so.35:_ZN5boost4asio9execution6detail17any_executor_base9prefer_fnINS1_12any_executorIJNS1_12context_as_tIRNS0_17execution_contextEEENS2_8blocking7never_tILi0EEENS1_11prefer_onlyINSA_10possibly_tILi0EEEEENSD_INS2_16outstanding_work9tracked_tILi0EEEEENSD_INSH_11untracked_tILi0EEEEENSD_INS2_12relationship6fork_tILi0EEEEENSD_INSO_14continuation_tILi0EEEEEEEEvS9_EET_PKvSY_
libkea-asiodns.so.35:_ZN5boost4asio9execution6detail17any_executor_base9prefer_fnINS1_12any_executorIJNS1_12context_as_tIRNS0_17execution_contextEEENS2_8blocking7never_tILi0EEENS1_11prefer_onlyINSA_10possibly_tILi0EEEEENSD_INS2_16outstanding_work9tracked_tILi0EEEEENSD_INSH_11untracked_tILi0EEEEENSD_INS2_12relationship6fork_tILi0EEEEENSD_INSO_14continuation_tILi0EEEEEEEEvSC_EET_PKvSY_
libkea-asiodns.so.35:_ZN5boost4asio9execution6detail17any_executor_base9prefer_fnINS1_12any_executorIJNS1_12context_as_tIRNS0_17execution_contextEEENS2_8blocking7never_tILi0EEENS1_11prefer_onlyINSA_10possibly_tILi0EEEEENSD_INS2_16outstanding_work9tracked_tILi0EEEEENSD_INSH_11untracked_tILi0EEEEENSD_INS2_12relationship6fork_tILi0EEEEENSD_INSO_14continuation_tILi0EEEEEEEEvSG_EET_PKvSY_
libkea-asiodns.so.35:_ZN5boost4asio9execution6detail17any_executor_base9prefer_fnINS1_12any_executorIJNS1_12context_as_tIRNS0_17execution_contextEEENS2_8blocking7never_tILi0EEENS1_11prefer_onlyINSA_10possibly_tILi0EEEEENSD_INS2_16outstanding_work9tracked_tILi0EEEEENSD_INSH_11untracked_tILi0EEEEENSD_INS2_12relationship6fork_tILi0EEEEENSD_INSO_14continuation_tILi0EEEEEEEEvSK_EET_PKvSY_
libkea-asiodns.so.35:_ZN5boost4asio9execution6detail17any_executor_base9prefer_fnINS1_12any_executorIJNS1_12context_as_tIRNS0_17execution_contextEEENS2_8blocking7never_tILi0EEENS1_11prefer_onlyINSA_10possibly_tILi0EEEEENSD_INS2_16outstanding_work9tracked_tILi0EEEEENSD_INSH_11untracked_tILi0EEEEENSD_INS2_12relationship6fork_tILi0EEEEENSD_INSO_14continuation_tILi0EEEEEEEEvSN_EET_PKvSY_
libkea-asiodns.so.35:_ZN5boost4asio9execution6detail17any_executor_base9prefer_fnINS1_12any_executorIJNS1_12context_as_tIRNS0_17execution_contextEEENS2_8blocking7never_tILi0EEENS1_11prefer_onlyINSA_10possibly_tILi0EEEEENSD_INS2_16outstanding_work9tracked_tILi0EEEEENSD_INSH_11untracked_tILi0EEEEENSD_INS2_12relationship6fork_tILi0EEEEENSD_INSO_14continuation_tILi0EEEEEEEEvSR_EET_PKvSY_
libkea-asiodns.so.35:_ZN5boost4asio9execution6detail17any_executor_base9prefer_fnINS1_12any_executorIJNS1_12context_as_tIRNS0_17execution_contextEEENS2_8blocking7never_tILi0EEENS1_11prefer_onlyINSA_10possibly_tILi0EEEEENSD_INS2_16outstanding_work9tracked_tILi0EEEEENSD_INSH_11untracked_tILi0EEEEENSD_INS2_12relationship6fork_tILi0EEEEENSD_INSO_14continuation_tILi0EEEEEEEEvSU_EET_PKvSY_
libkea-asiodns.so.35:_ZN5boost9date_time6c_time6gmtimeEPKlP2tm
libkea-asiodns.so.35:_ZNK3isc7asiodns7IOFetch11getProtocolEv
libkea-asiodns.so.35:_ZNSt15__exception_ptr12__dest_thunkIN5boost4asio19multiple_exceptionsEEEvPv
libkea-asiodns.so.35:boost_asio_detail_posix_thread_function
libkea-asiolink.so.56:_ZN3isc8asiolink10IOEndpoint6createEiRKNS0_9IOAddressEt
libkea-asiolink.so.56:_ZN3isc8asiolink10TlsContext10getContextEv
libkea-asiolink.so.56:_ZN3isc8asiolink10TlsContext10loadCaFileERKNSt7__cxx1112basic_stringIcSt11char_traitsIcESaIcEEE
libkea-asiolink.so.56:_ZN3isc8asiolink10TlsContext10loadCaPathERKNSt7__cxx1112basic_stringIcSt11char_traitsIcESaIcEEE
libkea-asiolink.so.56:_ZN3isc8asiolink10TlsContext11loadKeyFileERKNSt7__cxx1112basic_stringIcSt11char_traitsIcESaIcEEE
libkea-asiolink.so.56:_ZN3isc8asiolink10TlsContext12loadCertFileERKNSt7__cxx1112basic_stringIcSt11char_traitsIcESaIcEEE
libkea-asiolink.so.56:_ZN3isc8asiolink10TlsContext15setCertRequiredEb
libkea-asiolink.so.56:_ZN3isc8asiolink10TlsContext16getNativeContextEv
libkea-asiolink.so.56:_ZN3isc8asiolink10TlsContext9getErrMsgB5cxx11EN5boost6system10error_codeE
libkea-asiolink.so.56:_ZN3isc8asiolink10TlsContextC1ENS0_7TlsRoleE
libkea-asiolink.so.56:_ZN3isc8asiolink10TlsContextC2ENS0_7TlsRoleE
libkea-asiolink.so.56:_ZN3isc8asiolink10hash_valueERKNS0_9IOAddressE
libkea-asiolink.so.56:_ZN3isc8asiolink11IOSignalSet3addEi
libkea-asiolink.so.56:_ZN3isc8asiolink11IOSignalSet6removeEi
libkea-asiolink.so.56:_ZN3isc8asiolink11IOSignalSetC1EN5boost10shared_ptrINS0_9IOServiceEEESt8functionIFviEE
libkea-asiolink.so.56:_ZN3isc8asiolink11IOSignalSetC2EN5boost10shared_ptrINS0_9IOServiceEEESt8functionIFviEE
libkea-asiolink.so.56:_ZN3isc8asiolink11IOSignalSetD1Ev
libkea-asiolink.so.56:_ZN3isc8asiolink11IOSignalSetD2Ev
libkea-asiolink.so.56:_ZN3isc8asiolink11getNetmask4Eh
libkea-asiolink.so.56:_ZN3isc8asiolink12ProcessSpawn10clearStateEi
libkea-asiolink.so.56:_ZN3isc8asiolink12ProcessSpawn5spawnEb
libkea-asiolink.so.56:_ZN3isc8asiolink12ProcessSpawnC1EN5boost10shared_ptrINS0_9IOServiceEEERKNSt7__cxx1112basic_stringIcSt11char_traitsIcESaIcEEERKSt6vectorISB_SaISB_EESI_
libkea-asiolink.so.56:_ZN3isc8asiolink12ProcessSpawnC2EN5boost10shared_ptrINS0_9IOServiceEEERKNSt7__cxx1112basic_stringIcSt11char_traitsIcESaIcEEERKSt6vectorISB_SaISB_EESI_
libkea-asiolink.so.56:_ZN3isc8asiolink12addrsInRangeERKNS0_9IOAddressES3_
libkea-asiolink.so.56:_ZN3isc8asiolink13IntervalTimer5setupERKSt8functionIFvvEElRKNS1_4ModeE
libkea-asiolink.so.56:_ZN3isc8asiolink13IntervalTimer6cancelEv
libkea-asiolink.so.56:_ZN3isc8asiolink13IntervalTimerC1ERNS0_9IOServiceE
libkea-asiolink.so.56:_ZN3isc8asiolink13IntervalTimerC2ERNS0_9IOServiceE
libkea-asiolink.so.56:_ZN3isc8asiolink13IntervalTimerD1Ev
libkea-asiolink.so.56:_ZN3isc8asiolink13IntervalTimerD2Ev
libkea-asiolink.so.56:_ZN3isc8asiolink13offsetAddressERKNS0_9IOAddressEN5boost14multiprecision6numberINS5_8backends15cpp_int_backendILj128ELj128ELNS5_16cpp_integer_typeE0ELNS5_18cpp_int_check_typeE0EvEELNS5_26expression_template_optionE0EEE
libkea-asiolink.so.56:_ZN3isc8asiolink14TlsContextBase9configureERN5boost10shared_ptrINS0_10TlsContextEEENS0_7TlsRoleERKNSt7__cxx1112basic_stringIcSt11char_traitsIcESaIcEEESF_SF_b
libkea-asiolink.so.56:_ZN3isc8asiolink15IOSignalSetImpl3addEi
libkea-asiolink.so.56:_ZN3isc8asiolink15IOSignalSetImpl6cancelEv
libkea-asiolink.so.56:_ZN3isc8asiolink15IOSignalSetImpl6removeEi
libkea-asiolink.so.56:_ZN3isc8asiolink15IOSignalSetImpl7installEv
libkea-asiolink.so.56:_ZN3isc8asiolink15IOSignalSetImpl8callbackERKN5boost6system10error_codeEi
libkea-asiolink.so.56:_ZN3isc8asiolink15IOSignalSetImplC1EN5boost10shared_ptrINS0_9IOServiceEEESt8functionIFviEE
libkea-asiolink.so.56:_ZN3isc8asiolink15IOSignalSetImplC2EN5boost10shared_ptrINS0_9IOServiceEEESt8functionIFviEE
libkea-asiolink.so.56:_ZN3isc8asiolink15IOSignalSetImplD1Ev
libkea-asiolink.so.56:_ZN3isc8asiolink15IOSignalSetImplD2Ev
libkea-asiolink.so.56:_ZN3isc8asiolink15prefixesInRangeEhh
libkea-asiolink.so.56:_ZN3isc8asiolink16ProcessSpawnImpl10clearStateEi
libkea-asiolink.so.56:_ZN3isc8asiolink16ProcessSpawnImpl14waitForProcessEi
libkea-asiolink.so.56:_ZN3isc8asiolink16ProcessSpawnImpl16allocateInternalERKNSt7__cxx1112basic_stringIcSt11char_traitsIcESaIcEEE
libkea-asiolink.so.56:_ZN3isc8asiolink16ProcessSpawnImpl22IOSignalSetInitializer15initIOSignalSetEN5boost10shared_ptrINS0_9IOServiceEEE
libkea-asiolink.so.56:_ZN3isc8asiolink16ProcessSpawnImpl5spawnEb
libkea-asiolink.so.56:_ZN3isc8asiolink16ProcessSpawnImplC1EN5boost10shared_ptrINS0_9IOServiceEEERKNSt7__cxx1112basic_stringIcSt11char_traitsIcESaIcEEERKSt6vectorISB_SaISB_EESI_
libkea-asiolink.so.56:_ZN3isc8asiolink16ProcessSpawnImplC2EN5boost10shared_ptrINS0_9IOServiceEEERKNSt7__cxx1112basic_stringIcSt11char_traitsIcESaIcEEERKSt6vectorISB_SaISB_EESI_
libkea-asiolink.so.56:_ZN3isc8asiolink16ProcessSpawnImplD1Ev
libkea-asiolink.so.56:_ZN3isc8asiolink16ProcessSpawnImplD2Ev
libkea-asiolink.so.56:_ZN3isc8asiolink16UnixDomainSocket12asyncConnectERKNSt7__cxx1112basic_stringIcSt11char_traitsIcESaIcEEERKSt8functionIFvRKN5boost6system10error_codeEEE
libkea-asiolink.so.56:_ZN3isc8asiolink16UnixDomainSocket12asyncReceiveEPvmRKSt8functionIFvRKN5boost6system10error_codeEmEE
libkea-asiolink.so.56:_ZN3isc8asiolink16UnixDomainSocket5closeEv
libkea-asiolink.so.56:_ZN3isc8asiolink16UnixDomainSocket5writeEPKvm
libkea-asiolink.so.56:_ZN3isc8asiolink16UnixDomainSocket6cancelEv
libkea-asiolink.so.56:_ZN3isc8asiolink16UnixDomainSocket7connectERKNSt7__cxx1112basic_stringIcSt11char_traitsIcESaIcEEE
libkea-asiolink.so.56:_ZN3isc8asiolink16UnixDomainSocket7receiveEPvm
libkea-asiolink.so.56:_ZN3isc8asiolink16UnixDomainSocket8shutdownEv
libkea-asiolink.so.56:_ZN3isc8asiolink16UnixDomainSocket9asyncSendEPKvmRKSt8functionIFvRKN5boost6system10error_codeEmEE
libkea-asiolink.so.56:_ZN3isc8asiolink16UnixDomainSocketC1ERNS0_9IOServiceE
libkea-asiolink.so.56:_ZN3isc8asiolink16UnixDomainSocketC2ERNS0_9IOServiceE
libkea-asiolink.so.56:_ZN3isc8asiolink16lastAddrInPrefixERKNS0_9IOAddressEh
libkea-asiolink.so.56:_ZN3isc8asiolink17IntervalTimerImpl5setupERKSt8functionIFvvEElRKNS0_13IntervalTimer4ModeE
libkea-asiolink.so.56:_ZN3isc8asiolink17IntervalTimerImpl6updateEv
libkea-asiolink.so.56:_ZN3isc8asiolink17IntervalTimerImpl8callbackERKN5boost6system10error_codeE
libkea-asiolink.so.56:_ZN3isc8asiolink17IntervalTimerImplC1ERNS0_9IOServiceE
libkea-asiolink.so.56:_ZN3isc8asiolink17IntervalTimerImplC2ERNS0_9IOServiceE
libkea-asiolink.so.56:_ZN3isc8asiolink17IntervalTimerImplD1Ev
libkea-asiolink.so.56:_ZN3isc8asiolink17IntervalTimerImplD2Ev
libkea-asiolink.so.56:_ZN3isc8asiolink17firstAddrInPrefixERKNS0_9IOAddressEh
libkea-asiolink.so.56:_ZN3isc8asiolink19IoServiceThreadPool10threadWorkEv
libkea-asiolink.so.56:_ZN3isc8asiolink19IoServiceThreadPool11stateToTextB5cxx11ENS1_5StateE
libkea-asiolink.so.56:_ZN3isc8asiolink19IoServiceThreadPool13checkThreadIdENSt6thread2idE
libkea-asiolink.so.56:_ZN3isc8asiolink19IoServiceThreadPool16checkPermissionsENS1_5StateE
libkea-asiolink.so.56:_ZN3isc8asiolink19IoServiceThreadPool21checkPausePermissionsEv
libkea-asiolink.so.56:_ZN3isc8asiolink19IoServiceThreadPool3runEv
libkea-asiolink.so.56:_ZN3isc8asiolink19IoServiceThreadPool4stopEv
libkea-asiolink.so.56:_ZN3isc8asiolink19IoServiceThreadPool5pauseEv
libkea-asiolink.so.56:_ZN3isc8asiolink19IoServiceThreadPool8getStateEv
libkea-asiolink.so.56:_ZN3isc8asiolink19IoServiceThreadPool8setStateENS1_5StateE
libkea-asiolink.so.56:_ZN3isc8asiolink19IoServiceThreadPoolC1EN5boost10shared_ptrINS0_9IOServiceEEEmb
libkea-asiolink.so.56:_ZN3isc8asiolink19IoServiceThreadPoolC2EN5boost10shared_ptrINS0_9IOServiceEEEmb
libkea-asiolink.so.56:_ZN3isc8asiolink19IoServiceThreadPoolD1Ev
libkea-asiolink.so.56:_ZN3isc8asiolink19IoServiceThreadPoolD2Ev
libkea-asiolink.so.56:_ZN3isc8asiolink20UnixDomainSocketImpl11sendHandlerERKSt8functionIFvRKN5boost6system10error_codeEmEERKNS3_4asio15const_buffers_1ES7_m
libkea-asiolink.so.56:_ZN3isc8asiolink20UnixDomainSocketImpl12asyncConnectERKN5boost4asio5local14basic_endpointINS4_15stream_protocolEEERKSt8functionIFvRKNS2_6system10error_codeEEE
libkea-asiolink.so.56:_ZN3isc8asiolink20UnixDomainSocketImpl12asyncReceiveEPvmRKSt8functionIFvRKN5boost6system10error_codeEmEE
libkea-asiolink.so.56:_ZN3isc8asiolink20UnixDomainSocketImpl14connectHandlerERKSt8functionIFvRKN5boost6system10error_codeEEES7_
libkea-asiolink.so.56:_ZN3isc8asiolink20UnixDomainSocketImpl14receiveHandlerERKSt8functionIFvRKN5boost6system10error_codeEmEERKNS3_4asio17mutable_buffers_1ES7_m
libkea-asiolink.so.56:_ZN3isc8asiolink20UnixDomainSocketImpl5closeEv
libkea-asiolink.so.56:_ZN3isc8asiolink20UnixDomainSocketImpl6cancelEv
libkea-asiolink.so.56:_ZN3isc8asiolink20UnixDomainSocketImpl6doSendERKN5boost4asio15const_buffers_1ERKSt8functionIFvRKNS2_6system10error_codeEmEE
libkea-asiolink.so.56:_ZN3isc8asiolink20UnixDomainSocketImpl8shutdownEv
libkea-asiolink.so.56:_ZN3isc8asiolink20UnixDomainSocketImpl9asyncSendEPKvmRKSt8functionIFvRKN5boost6system10error_codeEmEE
libkea-asiolink.so.56:_ZN3isc8asiolink20UnixDomainSocketImpl9doReceiveERKN5boost4asio17mutable_buffers_1ERKSt8functionIFvRKNS2_6system10error_codeEmEE
libkea-asiolink.so.56:_ZN3isc8asiolink21prefixLengthFromRangeERKNS0_9IOAddressES3_
libkea-asiolink.so.56:_ZN3isc8asiolink8IOSocket17getDummyTCPSocketEv
libkea-asiolink.so.56:_ZN3isc8asiolink8IOSocket17getDummyUDPSocketEv
libkea-asiolink.so.56:_ZN3isc8asiolink9IOAddress8increaseERKS1_
libkea-asiolink.so.56:_ZN3isc8asiolink9IOAddress8subtractERKS1_S3_
libkea-asiolink.so.56:_ZN3isc8asiolink9IOAddress9fromBytesEsPKh
libkea-asiolink.so.56:_ZN3isc8asiolink9IOAddressC1ERKN5boost4asio2ip7addressE
libkea-asiolink.so.56:_ZN3isc8asiolink9IOAddressC1ERKNSt7__cxx1112basic_stringIcSt11char_traitsIcESaIcEEE
libkea-asiolink.so.56:_ZN3isc8asiolink9IOAddressC1Ej
libkea-asiolink.so.56:_ZN3isc8asiolink9IOAddressC2ERKN5boost4asio2ip7addressE
libkea-asiolink.so.56:_ZN3isc8asiolink9IOAddressC2ERKNSt7__cxx1112basic_stringIcSt11char_traitsIcESaIcEEE
libkea-asiolink.so.56:_ZN3isc8asiolink9IOAddressC2Ej
libkea-asiolink.so.56:_ZN3isc8asiolink9IOService14get_io_serviceEv
libkea-asiolink.so.56:_ZN3isc8asiolink9IOService3runEv
libkea-asiolink.so.56:_ZN3isc8asiolink9IOService4pollEv
libkea-asiolink.so.56:_ZN3isc8asiolink9IOService4postERKSt8functionIFvvEE
libkea-asiolink.so.56:_ZN3isc8asiolink9IOService4stopEv
libkea-asiolink.so.56:_ZN3isc8asiolink9IOService7restartEv
libkea-asiolink.so.56:_ZN3isc8asiolink9IOService7run_oneEv
libkea-asiolink.so.56:_ZN3isc8asiolink9IOService8stopWorkEv
libkea-asiolink.so.56:_ZN3isc8asiolink9IOServiceC1Ev
libkea-asiolink.so.56:_ZN3isc8asiolink9IOServiceC2Ev
libkea-asiolink.so.56:_ZN3isc8asiolink9IOServiceD1Ev
libkea-asiolink.so.56:_ZN3isc8asiolink9IOServiceD2Ev
libkea-asiolink.so.56:_ZN3isc8asiolinklsERSoRKNS0_10IOEndpointE
libkea-asiolink.so.56:_ZN3isc8asiolinklsERSoRKNS0_9IOAddressE
libkea-asiolink.so.56:_ZN5boost4asio6detail11executor_opINS1_17executor_functionESaIvENS1_19scheduler_operationEE11do_completeEPvPS5_RKNS_6system10error_codeEm
libkea-asiolink.so.56:_ZN5boost4asio6detail12wait_handlerISt5_BindIFMN3isc8asiolink17IntervalTimerImplEFvRKNS_6system10error_codeEENS_10shared_ptrIS6_EESt12_PlaceholderILi1EEEENS0_15any_io_executorEE11do_completeEPvPNS1_19scheduler_operationESA_m
libkea-asiolink.so.56:_ZN5boost4asio6detail13epoll_reactor16descriptor_state11do_completeEPvPNS1_19scheduler_operationERKNS_6system10error_codeEm
libkea-asiolink.so.56:_ZN5boost4asio6detail14signal_handlerISt5_BindIFMN3isc8asiolink15IOSignalSetImplEFvRKNS_6system10error_codeEiENS_10shared_ptrIS6_EESt12_PlaceholderILi1EESF_ILi2EEEENS0_15any_io_executorEE11do_completeEPvPNS1_19scheduler_operationESA_m
libkea-asiolink.so.56:_ZN5boost4asio6detail16service_registry6createINS1_13epoll_reactorENS0_17execution_contextEEEPNS5_7serviceEPv
libkea-asiolink.so.56:_ZN5boost4asio6detail16service_registry6createINS1_18signal_set_serviceENS0_10io_contextEEEPNS0_17execution_context7serviceEPv
libkea-asiolink.so.56:_ZN5boost4asio6detail17executor_function8completeINS1_7binder0INS1_7binder1ISt5_BindIFMN3isc8asiolink20UnixDomainSocketImplEFvRKSt8functionIFvRKNS_6system10error_codeEEESE_ENS_10shared_ptrIS9_EESG_St12_PlaceholderILi1EEEESC_EEEESaIvEEEvPNS2_9impl_baseEb
libkea-asiolink.so.56:_ZN5boost4asio6detail17executor_function8completeINS1_7binder1ISt5_BindIFMN3isc8asiolink17IntervalTimerImplEFvRKNS_6system10error_codeEENS_10shared_ptrIS8_EESt12_PlaceholderILi1EEEESA_EESaIvEEEvPNS2_9impl_baseEb
libkea-asiolink.so.56:_ZN5boost4asio6detail17executor_function8completeINS1_7binder1ISt5_BindIFMN3isc8asiolink20UnixDomainSocketImplEFvRKSt8functionIFvRKNS_6system10error_codeEEESD_ENS_10shared_ptrIS8_EESF_St12_PlaceholderILi1EEEESB_EESaIvEEEvPNS2_9impl_baseEb
libkea-asiolink.so.56:_ZN5boost4asio6detail17executor_function8completeINS1_7binder2ISt5_BindIFMN3isc8asiolink15IOSignalSetImplEFvRKNS_6system10error_codeEiENS_10shared_ptrIS8_EESt12_PlaceholderILi1EESH_ILi2EEEESA_iEESaIvEEEvPNS2_9impl_baseEb
libkea-asiolink.so.56:_ZN5boost4asio6detail17executor_function8completeINS1_7binder2ISt5_BindIFMN3isc8asiolink20UnixDomainSocketImplEFvRKSt8functionIFvRKNS_6system10error_codeEmEERKNS0_15const_buffers_1ESD_mENS_10shared_ptrIS8_EESF_SI_St12_PlaceholderILi1EESP_ILi2EEEESB_mEESaIvEEEvPNS2_9impl_baseEb
libkea-asiolink.so.56:_ZN5boost4asio6detail17executor_function8completeINS1_7binder2ISt5_BindIFMN3isc8asiolink20UnixDomainSocketImplEFvRKSt8functionIFvRKNS_6system10error_codeEmEERKNS0_17mutable_buffers_1ESD_mENS_10shared_ptrIS8_EESF_SI_St12_PlaceholderILi1EESP_ILi2EEEESB_mEESaIvEEEvPNS2_9impl_baseEb
libkea-asiolink.so.56:_ZN5boost4asio6detail18completion_handlerISt8functionIFvvEENS0_10io_context19basic_executor_typeISaIvELj0EEEE11do_completeEPvPNS1_19scheduler_operationERKNS_6system10error_codeEm
libkea-asiolink.so.56:_ZN5boost4asio6detail18signal_set_service12pipe_read_op10do_performEPNS1_10reactor_opE
libkea-asiolink.so.56:_ZN5boost4asio6detail18signal_set_service12pipe_read_op11do_completeEPvPNS1_19scheduler_operationERKNS_6system10error_codeEm
libkea-asiolink.so.56:_ZN5boost4asio6detail22executor_function_view8completeINS1_7binder0INS1_7binder1ISt5_BindIFMN3isc8asiolink20UnixDomainSocketImplEFvRKSt8functionIFvRKNS_6system10error_codeEEESE_ENS_10shared_ptrIS9_EESG_St12_PlaceholderILi1EEEESC_EEEEEEvPv
libkea-asiolink.so.56:_ZN5boost4asio6detail22executor_function_view8completeINS1_7binder1ISt5_BindIFMN3isc8asiolink17IntervalTimerImplEFvRKNS_6system10error_codeEENS_10shared_ptrIS8_EESt12_PlaceholderILi1EEEESA_EEEEvPv
libkea-asiolink.so.56:_ZN5boost4asio6detail22executor_function_view8completeINS1_7binder1ISt5_BindIFMN3isc8asiolink20UnixDomainSocketImplEFvRKSt8functionIFvRKNS_6system10error_codeEEESD_ENS_10shared_ptrIS8_EESF_St12_PlaceholderILi1EEEESB_EEEEvPv
libkea-asiolink.so.56:_ZN5boost4asio6detail22executor_function_view8completeINS1_7binder2ISt5_BindIFMN3isc8asiolink15IOSignalSetImplEFvRKNS_6system10error_codeEiENS_10shared_ptrIS8_EESt12_PlaceholderILi1EESH_ILi2EEEESA_iEEEEvPv
libkea-asiolink.so.56:_ZN5boost4asio6detail22executor_function_view8completeINS1_7binder2ISt5_BindIFMN3isc8asiolink20UnixDomainSocketImplEFvRKSt8functionIFvRKNS_6system10error_codeEmEERKNS0_15const_buffers_1ESD_mENS_10shared_ptrIS8_EESF_SI_St12_PlaceholderILi1EESP_ILi2EEEESB_mEEEEvPv
libkea-asiolink.so.56:_ZN5boost4asio6detail22executor_function_view8completeINS1_7binder2ISt5_BindIFMN3isc8asiolink20UnixDomainSocketImplEFvRKSt8functionIFvRKNS_6system10error_codeEmEERKNS0_17mutable_buffers_1ESD_mENS_10shared_ptrIS8_EESF_SI_St12_PlaceholderILi1EESP_ILi2EEEESB_mEEEEvPv
libkea-asiolink.so.56:_ZN5boost4asio6detail23reactive_socket_recv_opINS0_17mutable_buffers_1ESt5_BindIFMN3isc8asiolink20UnixDomainSocketImplEFvRKSt8functionIFvRKNS_6system10error_codeEmEERKS3_SC_mENS_10shared_ptrIS7_EESE_S3_St12_PlaceholderILi1EESN_ILi2EEEENS0_15any_io_executorEE11do_completeEPvPNS1_19scheduler_operationESC_m
libkea-asiolink.so.56:_ZN5boost4asio6detail23reactive_socket_send_opINS0_15const_buffers_1ESt5_BindIFMN3isc8asiolink20UnixDomainSocketImplEFvRKSt8functionIFvRKNS_6system10error_codeEmEERKS3_SC_mENS_10shared_ptrIS7_EESE_S3_St12_PlaceholderILi1EESN_ILi2EEEENS0_15any_io_executorEE11do_completeEPvPNS1_19scheduler_operationESC_m
libkea-asiolink.so.56:_ZN5boost4asio6detail26reactive_socket_connect_opISt5_BindIFMN3isc8asiolink20UnixDomainSocketImplEFvRKSt8functionIFvRKNS_6system10error_codeEEESB_ENS_10shared_ptrIS6_EESD_St12_PlaceholderILi1EEEENS0_15any_io_executorEE11do_completeEPvPNS1_19scheduler_operationESB_m
libkea-asiolink.so.56:_ZN5boost4asio6detail28reactive_socket_recv_op_baseINS0_17mutable_buffers_1EE10do_performEPNS1_10reactor_opE
libkea-asiolink.so.56:_ZN5boost4asio6detail28reactive_socket_send_op_baseINS0_15const_buffers_1EE10do_performEPNS1_10reactor_opE
libkea-asiolink.so.56:_ZN5boost4asio6detail31reactive_socket_connect_op_base10do_performEPNS1_10reactor_opE
libkea-asiolink.so.56:_ZN5boost4asio9execution6detail17any_executor_base10equal_voidERKS3_S5_
libkea-asiolink.so.56:_ZN5boost4asio9execution6detail17any_executor_base10execute_exINS0_10io_context19basic_executor_typeISaIvELj0EEEEEvRKS3_ONS0_6detail17executor_functionE
libkea-asiolink.so.56:_ZN5boost4asio9execution6detail17any_executor_base10execute_exINS0_10io_context19basic_executor_typeISaIvELj4EEEEEvRKS3_ONS0_6detail17executor_functionE
libkea-asiolink.so.56:_ZN5boost4asio9execution6detail17any_executor_base10require_fnINS1_12any_executorIJNS1_12context_as_tIRNS0_17execution_contextEEENS2_8blocking7never_tILi0EEENS1_11prefer_onlyINSA_10possibly_tILi0EEEEENSD_INS2_16outstanding_work9tracked_tILi0EEEEENSD_INSH_11untracked_tILi0EEEEENSD_INS2_12relationship6fork_tILi0EEEEENSD_INSO_14continuation_tILi0EEEEEEEENS0_10io_context19basic_executor_typeISaIvELj0EEES9_EET_PKvS12_
libkea-asiolink.so.56:_ZN5boost4asio9execution6detail17any_executor_base10require_fnINS1_12any_executorIJNS1_12context_as_tIRNS0_17execution_contextEEENS2_8blocking7never_tILi0EEENS1_11prefer_onlyINSA_10possibly_tILi0EEEEENSD_INS2_16outstanding_work9tracked_tILi0EEEEENSD_INSH_11untracked_tILi0EEEEENSD_INS2_12relationship6fork_tILi0EEEEENSD_INSO_14continuation_tILi0EEEEEEEENS0_10io_context19basic_executor_typeISaIvELj0EEESC_EET_PKvS12_
libkea-asiolink.so.56:_ZN5boost4asio9execution6detail17any_executor_base10require_fnINS1_12any_executorIJNS1_12context_as_tIRNS0_17execution_contextEEENS2_8blocking7never_tILi0EEENS1_11prefer_onlyINSA_10possibly_tILi0EEEEENSD_INS2_16outstanding_work9tracked_tILi0EEEEENSD_INSH_11untracked_tILi0EEEEENSD_INS2_12relationship6fork_tILi0EEEEENSD_INSO_14continuation_tILi0EEEEEEEENS0_10io_context19basic_executor_typeISaIvELj0EEESG_EET_PKvS12_
libkea-asiolink.so.56:_ZN5boost4asio9execution6detail17any_executor_base10require_fnINS1_12any_executorIJNS1_12context_as_tIRNS0_17execution_contextEEENS2_8blocking7never_tILi0EEENS1_11prefer_onlyINSA_10possibly_tILi0EEEEENSD_INS2_16outstanding_work9tracked_tILi0EEEEENSD_INSH_11untracked_tILi0EEEEENSD_INS2_12relationship6fork_tILi0EEEEENSD_INSO_14continuation_tILi0EEEEEEEENS0_10io_context19basic_executor_typeISaIvELj0EEESK_EET_PKvS12_
libkea-asiolink.so.56:_ZN5boost4asio9execution6detail17any_executor_base10require_fnINS1_12any_executorIJNS1_12context_as_tIRNS0_17execution_contextEEENS2_8blocking7never_tILi0EEENS1_11prefer_onlyINSA_10possibly_tILi0EEEEENSD_INS2_16outstanding_work9tracked_tILi0EEEEENSD_INSH_11untracked_tILi0EEEEENSD_INS2_12relationship6fork_tILi0EEEEENSD_INSO_14continuation_tILi0EEEEEEEENS0_10io_context19basic_executor_typeISaIvELj0EEESN_EET_PKvS12_
libkea-asiolink.so.56:_ZN5boost4asio9execution6detail17any_executor_base10require_fnINS1_12any_executorIJNS1_12context_as_tIRNS0_17execution_contextEEENS2_8blocking7never_tILi0EEENS1_11prefer_onlyINSA_10possibly_tILi0EEEEENSD_INS2_16outstanding_work9tracked_tILi0EEEEENSD_INSH_11untracked_tILi0EEEEENSD_INS2_12relationship6fork_tILi0EEEEENSD_INSO_14continuation_tILi0EEEEEEEENS0_10io_context19basic_executor_typeISaIvELj0EEESR_EET_PKvS12_
libkea-asiolink.so.56:_ZN5boost4asio9execution6detail17any_executor_base10require_fnINS1_12any_executorIJNS1_12context_as_tIRNS0_17execution_contextEEENS2_8blocking7never_tILi0EEENS1_11prefer_onlyINSA_10possibly_tILi0EEEEENSD_INS2_16outstanding_work9tracked_tILi0EEEEENSD_INSH_11untracked_tILi0EEEEENSD_INS2_12relationship6fork_tILi0EEEEENSD_INSO_14continuation_tILi0EEEEEEEENS0_10io_context19basic_executor_typeISaIvELj0EEESU_EET_PKvS12_
libkea-asiolink.so.56:_ZN5boost4asio9execution6detail17any_executor_base10require_fnINS1_12any_executorIJNS1_12context_as_tIRNS0_17execution_contextEEENS2_8blocking7never_tILi0EEENS1_11prefer_onlyINSA_10possibly_tILi0EEEEENSD_INS2_16outstanding_work9tracked_tILi0EEEEENSD_INSH_11untracked_tILi0EEEEENSD_INS2_12relationship6fork_tILi0EEEEENSD_INSO_14continuation_tILi0EEEEEEEENS0_10io_context19basic_executor_typeISaIvELj4EEES9_EET_PKvS12_
libkea-asiolink.so.56:_ZN5boost4asio9execution6detail17any_executor_base10require_fnINS1_12any_executorIJNS1_12context_as_tIRNS0_17execution_contextEEENS2_8blocking7never_tILi0EEENS1_11prefer_onlyINSA_10possibly_tILi0EEEEENSD_INS2_16outstanding_work9tracked_tILi0EEEEENSD_INSH_11untracked_tILi0EEEEENSD_INS2_12relationship6fork_tILi0EEEEENSD_INSO_14continuation_tILi0EEEEEEEENS0_10io_context19basic_executor_typeISaIvELj4EEESC_EET_PKvS12_
libkea-asiolink.so.56:_ZN5boost4asio9execution6detail17any_executor_base10require_fnINS1_12any_executorIJNS1_12context_as_tIRNS0_17execution_contextEEENS2_8blocking7never_tILi0EEENS1_11prefer_onlyINSA_10possibly_tILi0EEEEENSD_INS2_16outstanding_work9tracked_tILi0EEEEENSD_INSH_11untracked_tILi0EEEEENSD_INS2_12relationship6fork_tILi0EEEEENSD_INSO_14continuation_tILi0EEEEEEEENS0_10io_context19basic_executor_typeISaIvELj4EEESG_EET_PKvS12_
libkea-asiolink.so.56:_ZN5boost4asio9execution6detail17any_executor_base10require_fnINS1_12any_executorIJNS1_12context_as_tIRNS0_17execution_contextEEENS2_8blocking7never_tILi0EEENS1_11prefer_onlyINSA_10possibly_tILi0EEEEENSD_INS2_16outstanding_work9tracked_tILi0EEEEENSD_INSH_11untracked_tILi0EEEEENSD_INS2_12relationship6fork_tILi0EEEEENSD_INSO_14continuation_tILi0EEEEEEEENS0_10io_context19basic_executor_typeISaIvELj4EEESK_EET_PKvS12_
libkea-asiolink.so.56:_ZN5boost4asio9execution6detail17any_executor_base10require_fnINS1_12any_executorIJNS1_12context_as_tIRNS0_17execution_contextEEENS2_8blocking7never_tILi0EEENS1_11prefer_onlyINSA_10possibly_tILi0EEEEENSD_INS2_16outstanding_work9tracked_tILi0EEEEENSD_INSH_11untracked_tILi0EEEEENSD_INS2_12relationship6fork_tILi0EEEEENSD_INSO_14continuation_tILi0EEEEEEEENS0_10io_context19basic_executor_typeISaIvELj4EEESN_EET_PKvS12_
libkea-asiolink.so.56:_ZN5boost4asio9execution6detail17any_executor_base10require_fnINS1_12any_executorIJNS1_12context_as_tIRNS0_17execution_contextEEENS2_8blocking7never_tILi0EEENS1_11prefer_onlyINSA_10possibly_tILi0EEEEENSD_INS2_16outstanding_work9tracked_tILi0EEEEENSD_INSH_11untracked_tILi0EEEEENSD_INS2_12relationship6fork_tILi0EEEEENSD_INSO_14continuation_tILi0EEEEEEEENS0_10io_context19basic_executor_typeISaIvELj4EEESR_EET_PKvS12_
libkea-asiolink.so.56:_ZN5boost4asio9execution6detail17any_executor_base10require_fnINS1_12any_executorIJNS1_12context_as_tIRNS0_17execution_contextEEENS2_8blocking7never_tILi0EEENS1_11prefer_onlyINSA_10possibly_tILi0EEEEENSD_INS2_16outstanding_work9tracked_tILi0EEEEENSD_INSH_11untracked_tILi0EEEEENSD_INS2_12relationship6fork_tILi0EEEEENSD_INSO_14continuation_tILi0EEEEEEEENS0_10io_context19basic_executor_typeISaIvELj4EEESU_EET_PKvS12_
libkea-asiolink.so.56:_ZN5boost4asio9execution6detail17any_executor_base10require_fnINS1_12any_executorIJNS1_12context_as_tIRNS0_17execution_contextEEENS2_8blocking7never_tILi0EEENS1_11prefer_onlyINSA_10possibly_tILi0EEEEENSD_INS2_16outstanding_work9tracked_tILi0EEEEENSD_INSH_11untracked_tILi0EEEEENSD_INS2_12relationship6fork_tILi0EEEEENSD_INSO_14continuation_tILi0EEEEEEEEvS9_EET_PKvSY_
libkea-asiolink.so.56:_ZN5boost4asio9execution6detail17any_executor_base10require_fnINS1_12any_executorIJNS1_12context_as_tIRNS0_17execution_contextEEENS2_8blocking7never_tILi0EEENS1_11prefer_onlyINSA_10possibly_tILi0EEEEENSD_INS2_16outstanding_work9tracked_tILi0EEEEENSD_INSH_11untracked_tILi0EEEEENSD_INS2_12relationship6fork_tILi0EEEEENSD_INSO_14continuation_tILi0EEEEEEEEvSC_EET_PKvSY_
libkea-asiolink.so.56:_ZN5boost4asio9execution6detail17any_executor_base10require_fnINS1_12any_executorIJNS1_12context_as_tIRNS0_17execution_contextEEENS2_8blocking7never_tILi0EEENS1_11prefer_onlyINSA_10possibly_tILi0EEEEENSD_INS2_16outstanding_work9tracked_tILi0EEEEENSD_INSH_11untracked_tILi0EEEEENSD_INS2_12relationship6fork_tILi0EEEEENSD_INSO_14continuation_tILi0EEEEEEEEvSG_EET_PKvSY_
libkea-asiolink.so.56:_ZN5boost4asio9execution6detail17any_executor_base10require_fnINS1_12any_executorIJNS1_12context_as_tIRNS0_17execution_contextEEENS2_8blocking7never_tILi0EEENS1_11prefer_onlyINSA_10possibly_tILi0EEEEENSD_INS2_16outstanding_work9tracked_tILi0EEEEENSD_INSH_11untracked_tILi0EEEEENSD_INS2_12relationship6fork_tILi0EEEEENSD_INSO_14continuation_tILi0EEEEEEEEvSK_EET_PKvSY_
libkea-asiolink.so.56:_ZN5boost4asio9execution6detail17any_executor_base10require_fnINS1_12any_executorIJNS1_12context_as_tIRNS0_17execution_contextEEENS2_8blocking7never_tILi0EEENS1_11prefer_onlyINSA_10possibly_tILi0EEEEENSD_INS2_16outstanding_work9tracked_tILi0EEEEENSD_INSH_11untracked_tILi0EEEEENSD_INS2_12relationship6fork_tILi0EEEEENSD_INSO_14continuation_tILi0EEEEEEEEvSN_EET_PKvSY_
libkea-asiolink.so.56:_ZN5boost4asio9execution6detail17any_executor_base10require_fnINS1_12any_executorIJNS1_12context_as_tIRNS0_17execution_contextEEENS2_8blocking7never_tILi0EEENS1_11prefer_onlyINSA_10possibly_tILi0EEEEENSD_INS2_16outstanding_work9tracked_tILi0EEEEENSD_INSH_11untracked_tILi0EEEEENSD_INS2_12relationship6fork_tILi0EEEEENSD_INSO_14continuation_tILi0EEEEEEEEvSR_EET_PKvSY_
libkea-asiolink.so.56:_ZN5boost4asio9execution6detail17any_executor_base10require_fnINS1_12any_executorIJNS1_12context_as_tIRNS0_17execution_contextEEENS2_8blocking7never_tILi0EEENS1_11prefer_onlyINSA_10possibly_tILi0EEEEENSD_INS2_16outstanding_work9tracked_tILi0EEEEENSD_INSH_11untracked_tILi0EEEEENSD_INS2_12relationship6fork_tILi0EEEEENSD_INSO_14continuation_tILi0EEEEEEEEvSU_EET_PKvSY_
libkea-asiolink.so.56:_ZN5boost4asio9execution6detail17any_executor_base11copy_objectINS0_10io_context19basic_executor_typeISaIvELj0EEEEEvRS3_RKS3_
libkea-asiolink.so.56:_ZN5boost4asio9execution6detail17any_executor_base11copy_objectINS0_10io_context19basic_executor_typeISaIvELj4EEEEEvRS3_RKS3_
libkea-asiolink.so.56:_ZN5boost4asio9execution6detail17any_executor_base11move_objectINS0_10io_context19basic_executor_typeISaIvELj0EEEEEvRS3_S9_
libkea-asiolink.so.56:_ZN5boost4asio9execution6detail17any_executor_base11move_objectINS0_10io_context19basic_executor_typeISaIvELj4EEEEEvRS3_S9_
libkea-asiolink.so.56:_ZN5boost4asio9execution6detail17any_executor_base11target_voidERKS3_
libkea-asiolink.so.56:_ZN5boost4asio9execution6detail17any_executor_base12destroy_voidERS3_
libkea-asiolink.so.56:_ZN5boost4asio9execution6detail17any_executor_base12execute_voidERKS3_ONS0_6detail17executor_functionE
libkea-asiolink.so.56:_ZN5boost4asio9execution6detail17any_executor_base13target_objectINS0_10io_context19basic_executor_typeISaIvELj0EEEEEPKvRKS3_
libkea-asiolink.so.56:_ZN5boost4asio9execution6detail17any_executor_base13target_objectINS0_10io_context19basic_executor_typeISaIvELj4EEEEEPKvRKS3_
libkea-asiolink.so.56:_ZN5boost4asio9execution6detail17any_executor_base14destroy_objectINS0_10io_context19basic_executor_typeISaIvELj0EEEEEvRS3_
libkea-asiolink.so.56:_ZN5boost4asio9execution6detail17any_executor_base14destroy_objectINS0_10io_context19basic_executor_typeISaIvELj4EEEEEvRS3_
libkea-asiolink.so.56:_ZN5boost4asio9execution6detail17any_executor_base14target_type_exINS0_10io_context19basic_executor_typeISaIvELj0EEEEERKSt9type_infov
libkea-asiolink.so.56:_ZN5boost4asio9execution6detail17any_executor_base14target_type_exINS0_10io_context19basic_executor_typeISaIvELj4EEEEERKSt9type_infov
libkea-asiolink.so.56:_ZN5boost4asio9execution6detail17any_executor_base16target_type_voidEv
libkea-asiolink.so.56:_ZN5boost4asio9execution6detail17any_executor_base21blocking_execute_voidERKS3_NS0_6detail22executor_function_viewE
libkea-asiolink.so.56:_ZN5boost4asio9execution6detail17any_executor_base8equal_exINS0_10io_context19basic_executor_typeISaIvELj0EEEEEbRKS3_SA_
libkea-asiolink.so.56:_ZN5boost4asio9execution6detail17any_executor_base8equal_exINS0_10io_context19basic_executor_typeISaIvELj4EEEEEbRKS3_SA_
libkea-asiolink.so.56:_ZN5boost4asio9execution6detail17any_executor_base8query_fnINS0_10io_context19basic_executor_typeISaIvELj0EEENS1_11prefer_onlyINS2_12relationship14continuation_tILi0EEEEEEEvPvPKvSG_
libkea-asiolink.so.56:_ZN5boost4asio9execution6detail17any_executor_base8query_fnINS0_10io_context19basic_executor_typeISaIvELj0EEENS1_11prefer_onlyINS2_12relationship6fork_tILi0EEEEEEEvPvPKvSG_
libkea-asiolink.so.56:_ZN5boost4asio9execution6detail17any_executor_base8query_fnINS0_10io_context19basic_executor_typeISaIvELj0EEENS1_11prefer_onlyINS2_16outstanding_work11untracked_tILi0EEEEEEEvPvPKvSG_
libkea-asiolink.so.56:_ZN5boost4asio9execution6detail17any_executor_base8query_fnINS0_10io_context19basic_executor_typeISaIvELj0EEENS1_11prefer_onlyINS2_16outstanding_work9tracked_tILi0EEEEEEEvPvPKvSG_
libkea-asiolink.so.56:_ZN5boost4asio9execution6detail17any_executor_base8query_fnINS0_10io_context19basic_executor_typeISaIvELj0EEENS1_11prefer_onlyINS2_8blocking10possibly_tILi0EEEEEEEvPvPKvSG_
libkea-asiolink.so.56:_ZN5boost4asio9execution6detail17any_executor_base8query_fnINS0_10io_context19basic_executor_typeISaIvELj0EEENS1_12context_as_tIRNS0_17execution_contextEEEEEvPvPKvSF_
libkea-asiolink.so.56:_ZN5boost4asio9execution6detail17any_executor_base8query_fnINS0_10io_context19basic_executor_typeISaIvELj0EEENS2_8blocking7never_tILi0EEEEEvPvPKvSE_
libkea-asiolink.so.56:_ZN5boost4asio9execution6detail17any_executor_base8query_fnINS0_10io_context19basic_executor_typeISaIvELj4EEENS1_11prefer_onlyINS2_12relationship14continuation_tILi0EEEEEEEvPvPKvSG_
libkea-asiolink.so.56:_ZN5boost4asio9execution6detail17any_executor_base8query_fnINS0_10io_context19basic_executor_typeISaIvELj4EEENS1_11prefer_onlyINS2_12relationship6fork_tILi0EEEEEEEvPvPKvSG_
libkea-asiolink.so.56:_ZN5boost4asio9execution6detail17any_executor_base8query_fnINS0_10io_context19basic_executor_typeISaIvELj4EEENS1_11prefer_onlyINS2_16outstanding_work11untracked_tILi0EEEEEEEvPvPKvSG_
libkea-asiolink.so.56:_ZN5boost4asio9execution6detail17any_executor_base8query_fnINS0_10io_context19basic_executor_typeISaIvELj4EEENS1_11prefer_onlyINS2_16outstanding_work9tracked_tILi0EEEEEEEvPvPKvSG_
libkea-asiolink.so.56:_ZN5boost4asio9execution6detail17any_executor_base8query_fnINS0_10io_context19basic_executor_typeISaIvELj4EEENS1_11prefer_onlyINS2_8blocking10possibly_tILi0EEEEEEEvPvPKvSG_
libkea-asiolink.so.56:_ZN5boost4asio9execution6detail17any_executor_base8query_fnINS0_10io_context19basic_executor_typeISaIvELj4EEENS1_12context_as_tIRNS0_17execution_contextEEEEEvPvPKvSF_
libkea-asiolink.so.56:_ZN5boost4asio9execution6detail17any_executor_base8query_fnINS0_10io_context19basic_executor_typeISaIvELj4EEENS2_8blocking7never_tILi0EEEEEvPvPKvSE_
libkea-asiolink.so.56:_ZN5boost4asio9execution6detail17any_executor_base8query_fnIvNS1_11prefer_onlyINS2_12relationship14continuation_tILi0EEEEEEEvPvPKvSC_
libkea-asiolink.so.56:_ZN5boost4asio9execution6detail17any_executor_base8query_fnIvNS1_11prefer_onlyINS2_12relationship6fork_tILi0EEEEEEEvPvPKvSC_
libkea-asiolink.so.56:_ZN5boost4asio9execution6detail17any_executor_base8query_fnIvNS1_11prefer_onlyINS2_16outstanding_work11untracked_tILi0EEEEEEEvPvPKvSC_
libkea-asiolink.so.56:_ZN5boost4asio9execution6detail17any_executor_base8query_fnIvNS1_11prefer_onlyINS2_16outstanding_work9tracked_tILi0EEEEEEEvPvPKvSC_
libkea-asiolink.so.56:_ZN5boost4asio9execution6detail17any_executor_base8query_fnIvNS1_11prefer_onlyINS2_8blocking10possibly_tILi0EEEEEEEvPvPKvSC_
libkea-asiolink.so.56:_ZN5boost4asio9execution6detail17any_executor_base8query_fnIvNS1_12context_as_tIRNS0_17execution_contextEEEEEvPvPKvSB_
libkea-asiolink.so.56:_ZN5boost4asio9execution6detail17any_executor_base8query_fnIvNS2_8blocking7never_tILi0EEEEEvPvPKvSA_
libkea-asiolink.so.56:_ZN5boost4asio9execution6detail17any_executor_base9copy_voidERS3_RKS3_
libkea-asiolink.so.56:_ZN5boost4asio9execution6detail17any_executor_base9move_voidERS3_S4_
libkea-asiolink.so.56:_ZN5boost4asio9execution6detail17any_executor_base9prefer_fnINS1_12any_executorIJNS1_12context_as_tIRNS0_17execution_contextEEENS2_8blocking7never_tILi0EEENS1_11prefer_onlyINSA_10possibly_tILi0EEEEENSD_INS2_16outstanding_work9tracked_tILi0EEEEENSD_INSH_11untracked_tILi0EEEEENSD_INS2_12relationship6fork_tILi0EEEEENSD_INSO_14continuation_tILi0EEEEEEEENS0_10io_context19basic_executor_typeISaIvELj0EEES9_EET_PKvS12_
libkea-asiolink.so.56:_ZN5boost4asio9execution6detail17any_executor_base9prefer_fnINS1_12any_executorIJNS1_12context_as_tIRNS0_17execution_contextEEENS2_8blocking7never_tILi0EEENS1_11prefer_onlyINSA_10possibly_tILi0EEEEENSD_INS2_16outstanding_work9tracked_tILi0EEEEENSD_INSH_11untracked_tILi0EEEEENSD_INS2_12relationship6fork_tILi0EEEEENSD_INSO_14continuation_tILi0EEEEEEEENS0_10io_context19basic_executor_typeISaIvELj0EEESC_EET_PKvS12_
libkea-asiolink.so.56:_ZN5boost4asio9execution6detail17any_executor_base9prefer_fnINS1_12any_executorIJNS1_12context_as_tIRNS0_17execution_contextEEENS2_8blocking7never_tILi0EEENS1_11prefer_onlyINSA_10possibly_tILi0EEEEENSD_INS2_16outstanding_work9tracked_tILi0EEEEENSD_INSH_11untracked_tILi0EEEEENSD_INS2_12relationship6fork_tILi0EEEEENSD_INSO_14continuation_tILi0EEEEEEEENS0_10io_context19basic_executor_typeISaIvELj0EEESG_EET_PKvS12_
libkea-asiolink.so.56:_ZN5boost4asio9execution6detail17any_executor_base9prefer_fnINS1_12any_executorIJNS1_12context_as_tIRNS0_17execution_contextEEENS2_8blocking7never_tILi0EEENS1_11prefer_onlyINSA_10possibly_tILi0EEEEENSD_INS2_16outstanding_work9tracked_tILi0EEEEENSD_INSH_11untracked_tILi0EEEEENSD_INS2_12relationship6fork_tILi0EEEEENSD_INSO_14continuation_tILi0EEEEEEEENS0_10io_context19basic_executor_typeISaIvELj0EEESK_EET_PKvS12_
libkea-asiolink.so.56:_ZN5boost4asio9execution6detail17any_executor_base9prefer_fnINS1_12any_executorIJNS1_12context_as_tIRNS0_17execution_contextEEENS2_8blocking7never_tILi0EEENS1_11prefer_onlyINSA_10possibly_tILi0EEEEENSD_INS2_16outstanding_work9tracked_tILi0EEEEENSD_INSH_11untracked_tILi0EEEEENSD_INS2_12relationship6fork_tILi0EEEEENSD_INSO_14continuation_tILi0EEEEEEEENS0_10io_context19basic_executor_typeISaIvELj0EEESN_EET_PKvS12_
libkea-asiolink.so.56:_ZN5boost4asio9execution6detail17any_executor_base9prefer_fnINS1_12any_executorIJNS1_12context_as_tIRNS0_17execution_contextEEENS2_8blocking7never_tILi0EEENS1_11prefer_onlyINSA_10possibly_tILi0EEEEENSD_INS2_16outstanding_work9tracked_tILi0EEEEENSD_INSH_11untracked_tILi0EEEEENSD_INS2_12relationship6fork_tILi0EEEEENSD_INSO_14continuation_tILi0EEEEEEEENS0_10io_context19basic_executor_typeISaIvELj0EEESR_EET_PKvS12_
libkea-asiolink.so.56:_ZN5boost4asio9execution6detail17any_executor_base9prefer_fnINS1_12any_executorIJNS1_12context_as_tIRNS0_17execution_contextEEENS2_8blocking7never_tILi0EEENS1_11prefer_onlyINSA_10possibly_tILi0EEEEENSD_INS2_16outstanding_work9tracked_tILi0EEEEENSD_INSH_11untracked_tILi0EEEEENSD_INS2_12relationship6fork_tILi0EEEEENSD_INSO_14continuation_tILi0EEEEEEEENS0_10io_context19basic_executor_typeISaIvELj0EEESU_EET_PKvS12_
libkea-asiolink.so.56:_ZN5boost4asio9execution6detail17any_executor_base9prefer_fnINS1_12any_executorIJNS1_12context_as_tIRNS0_17execution_contextEEENS2_8blocking7never_tILi0EEENS1_11prefer_onlyINSA_10possibly_tILi0EEEEENSD_INS2_16outstanding_work9tracked_tILi0EEEEENSD_INSH_11untracked_tILi0EEEEENSD_INS2_12relationship6fork_tILi0EEEEENSD_INSO_14continuation_tILi0EEEEEEEENS0_10io_context19basic_executor_typeISaIvELj4EEES9_EET_PKvS12_
libkea-asiolink.so.56:_ZN5boost4asio9execution6detail17any_executor_base9prefer_fnINS1_12any_executorIJNS1_12context_as_tIRNS0_17execution_contextEEENS2_8blocking7never_tILi0EEENS1_11prefer_onlyINSA_10possibly_tILi0EEEEENSD_INS2_16outstanding_work9tracked_tILi0EEEEENSD_INSH_11untracked_tILi0EEEEENSD_INS2_12relationship6fork_tILi0EEEEENSD_INSO_14continuation_tILi0EEEEEEEENS0_10io_context19basic_executor_typeISaIvELj4EEESC_EET_PKvS12_
libkea-asiolink.so.56:_ZN5boost4asio9execution6detail17any_executor_base9prefer_fnINS1_12any_executorIJNS1_12context_as_tIRNS0_17execution_contextEEENS2_8blocking7never_tILi0EEENS1_11prefer_onlyINSA_10possibly_tILi0EEEEENSD_INS2_16outstanding_work9tracked_tILi0EEEEENSD_INSH_11untracked_tILi0EEEEENSD_INS2_12relationship6fork_tILi0EEEEENSD_INSO_14continuation_tILi0EEEEEEEENS0_10io_context19basic_executor_typeISaIvELj4EEESG_EET_PKvS12_
libkea-asiolink.so.56:_ZN5boost4asio9execution6detail17any_executor_base9prefer_fnINS1_12any_executorIJNS1_12context_as_tIRNS0_17execution_contextEEENS2_8blocking7never_tILi0EEENS1_11prefer_onlyINSA_10possibly_tILi0EEEEENSD_INS2_16outstanding_work9tracked_tILi0EEEEENSD_INSH_11untracked_tILi0EEEEENSD_INS2_12relationship6fork_tILi0EEEEENSD_INSO_14continuation_tILi0EEEEEEEENS0_10io_context19basic_executor_typeISaIvELj4EEESK_EET_PKvS12_
libkea-asiolink.so.56:_ZN5boost4asio9execution6detail17any_executor_base9prefer_fnINS1_12any_executorIJNS1_12context_as_tIRNS0_17execution_contextEEENS2_8blocking7never_tILi0EEENS1_11prefer_onlyINSA_10possibly_tILi0EEEEENSD_INS2_16outstanding_work9tracked_tILi0EEEEENSD_INSH_11untracked_tILi0EEEEENSD_INS2_12relationship6fork_tILi0EEEEENSD_INSO_14continuation_tILi0EEEEEEEENS0_10io_context19basic_executor_typeISaIvELj4EEESN_EET_PKvS12_
libkea-asiolink.so.56:_ZN5boost4asio9execution6detail17any_executor_base9prefer_fnINS1_12any_executorIJNS1_12context_as_tIRNS0_17execution_contextEEENS2_8blocking7never_tILi0EEENS1_11prefer_onlyINSA_10possibly_tILi0EEEEENSD_INS2_16outstanding_work9tracked_tILi0EEEEENSD_INSH_11untracked_tILi0EEEEENSD_INS2_12relationship6fork_tILi0EEEEENSD_INSO_14continuation_tILi0EEEEEEEENS0_10io_context19basic_executor_typeISaIvELj4EEESR_EET_PKvS12_
libkea-asiolink.so.56:_ZN5boost4asio9execution6detail17any_executor_base9prefer_fnINS1_12any_executorIJNS1_12context_as_tIRNS0_17execution_contextEEENS2_8blocking7never_tILi0EEENS1_11prefer_onlyINSA_10possibly_tILi0EEEEENSD_INS2_16outstanding_work9tracked_tILi0EEEEENSD_INSH_11untracked_tILi0EEEEENSD_INS2_12relationship6fork_tILi0EEEEENSD_INSO_14continuation_tILi0EEEEEEEENS0_10io_context19basic_executor_typeISaIvELj4EEESU_EET_PKvS12_
libkea-asiolink.so.56:_ZN5boost4asio9execution6detail17any_executor_base9prefer_fnINS1_12any_executorIJNS1_12context_as_tIRNS0_17execution_contextEEENS2_8blocking7never_tILi0EEENS1_11prefer_onlyINSA_10possibly_tILi0EEEEENSD_INS2_16outstanding_work9tracked_tILi0EEEEENSD_INSH_11untracked_tILi0EEEEENSD_INS2_12relationship6fork_tILi0EEEEENSD_INSO_14continuation_tILi0EEEEEEEEvS9_EET_PKvSY_
libkea-asiolink.so.56:_ZN5boost4asio9execution6detail17any_executor_base9prefer_fnINS1_12any_executorIJNS1_12context_as_tIRNS0_17execution_contextEEENS2_8blocking7never_tILi0EEENS1_11prefer_onlyINSA_10possibly_tILi0EEEEENSD_INS2_16outstanding_work9tracked_tILi0EEEEENSD_INSH_11untracked_tILi0EEEEENSD_INS2_12relationship6fork_tILi0EEEEENSD_INSO_14continuation_tILi0EEEEEEEEvSC_EET_PKvSY_
libkea-asiolink.so.56:_ZN5boost4asio9execution6detail17any_executor_base9prefer_fnINS1_12any_executorIJNS1_12context_as_tIRNS0_17execution_contextEEENS2_8blocking7never_tILi0EEENS1_11prefer_onlyINSA_10possibly_tILi0EEEEENSD_INS2_16outstanding_work9tracked_tILi0EEEEENSD_INSH_11untracked_tILi0EEEEENSD_INS2_12relationship6fork_tILi0EEEEENSD_INSO_14continuation_tILi0EEEEEEEEvSG_EET_PKvSY_
libkea-asiolink.so.56:_ZN5boost4asio9execution6detail17any_executor_base9prefer_fnINS1_12any_executorIJNS1_12context_as_tIRNS0_17execution_contextEEENS2_8blocking7never_tILi0EEENS1_11prefer_onlyINSA_10possibly_tILi0EEEEENSD_INS2_16outstanding_work9tracked_tILi0EEEEENSD_INSH_11untracked_tILi0EEEEENSD_INS2_12relationship6fork_tILi0EEEEENSD_INSO_14continuation_tILi0EEEEEEEEvSK_EET_PKvSY_
libkea-asiolink.so.56:_ZN5boost4asio9execution6detail17any_executor_base9prefer_fnINS1_12any_executorIJNS1_12context_as_tIRNS0_17execution_contextEEENS2_8blocking7never_tILi0EEENS1_11prefer_onlyINSA_10possibly_tILi0EEEEENSD_INS2_16outstanding_work9tracked_tILi0EEEEENSD_INSH_11untracked_tILi0EEEEENSD_INS2_12relationship6fork_tILi0EEEEENSD_INSO_14continuation_tILi0EEEEEEEEvSN_EET_PKvSY_
libkea-asiolink.so.56:_ZN5boost4asio9execution6detail17any_executor_base9prefer_fnINS1_12any_executorIJNS1_12context_as_tIRNS0_17execution_contextEEENS2_8blocking7never_tILi0EEENS1_11prefer_onlyINSA_10possibly_tILi0EEEEENSD_INS2_16outstanding_work9tracked_tILi0EEEEENSD_INSH_11untracked_tILi0EEEEENSD_INS2_12relationship6fork_tILi0EEEEENSD_INSO_14continuation_tILi0EEEEEEEEvSR_EET_PKvSY_
libkea-asiolink.so.56:_ZN5boost4asio9execution6detail17any_executor_base9prefer_fnINS1_12any_executorIJNS1_12context_as_tIRNS0_17execution_contextEEENS2_8blocking7never_tILi0EEENS1_11prefer_onlyINSA_10possibly_tILi0EEEEENSD_INS2_16outstanding_work9tracked_tILi0EEEEENSD_INSH_11untracked_tILi0EEEEENSD_INS2_12relationship6fork_tILi0EEEEENSD_INSO_14continuation_tILi0EEEEEEEEvSU_EET_PKvSY_
libkea-asiolink.so.56:_ZN5boost9date_time6c_time6gmtimeEPKlP2tm
libkea-asiolink.so.56:_ZNK3isc8asiolink10IOEndpointeqERKS1_
libkea-asiolink.so.56:_ZNK3isc8asiolink10IOEndpointneERKS1_
libkea-asiolink.so.56:_ZNK3isc8asiolink10TlsContext15getCertRequiredEv
libkea-asiolink.so.56:_ZNK3isc8asiolink12ProcessSpawn12isAnyRunningEv
libkea-asiolink.so.56:_ZNK3isc8asiolink12ProcessSpawn13getExitStatusEi
libkea-asiolink.so.56:_ZNK3isc8asiolink12ProcessSpawn14getCommandLineB5cxx11Ev
libkea-asiolink.so.56:_ZNK3isc8asiolink12ProcessSpawn9isRunningEi
libkea-asiolink.so.56:_ZNK3isc8asiolink13IntervalTimer11getIntervalEv
libkea-asiolink.so.56:_ZNK3isc8asiolink16ProcessSpawnImpl12isAnyRunningEv
libkea-asiolink.so.56:_ZNK3isc8asiolink16ProcessSpawnImpl13getExitStatusEi
libkea-asiolink.so.56:_ZNK3isc8asiolink16ProcessSpawnImpl14getCommandLineB5cxx11Ev
libkea-asiolink.so.56:_ZNK3isc8asiolink16ProcessSpawnImpl9isRunningEi
libkea-asiolink.so.56:_ZNK3isc8asiolink16UnixDomainSocket11getProtocolEv
libkea-asiolink.so.56:_ZNK3isc8asiolink16UnixDomainSocket13getASIOSocketEv
libkea-asiolink.so.56:_ZNK3isc8asiolink16UnixDomainSocket9getNativeEv
libkea-asiolink.so.56:_ZNK3isc8asiolink19IoServiceThreadPool11getPoolSizeEv
libkea-asiolink.so.56:_ZNK3isc8asiolink19IoServiceThreadPool12getIOServiceEv
libkea-asiolink.so.56:_ZNK3isc8asiolink19IoServiceThreadPool14getThreadCountEv
libkea-asiolink.so.56:_ZNK3isc8asiolink19IoServiceThreadPool19validateStateChangeENS1_5StateE
libkea-asiolink.so.56:_ZNK3isc8asiolink9IOAddress13isV6LinkLocalEv
libkea-asiolink.so.56:_ZNK3isc8asiolink9IOAddress13isV6MulticastEv
libkea-asiolink.so.56:_ZNK3isc8asiolink9IOAddress4HashclERKS1_
libkea-asiolink.so.56:_ZNK3isc8asiolink9IOAddress6toTextB5cxx11Ev
libkea-asiolink.so.56:_ZNK3isc8asiolink9IOAddress7toBytesEv
libkea-asiolink.so.56:_ZNK3isc8asiolink9IOAddress8toUint32Ev
libkea-asiolink.so.56:_ZNK3isc8asiolink9IOAddress9getFamilyEv
libkea-asiolink.so.56:_ZNK3isc8asiolink9IOService7stoppedEv
libkea-asiolink.so.56:_ZNSt15__exception_ptr12__dest_thunkIN5boost4asio19multiple_exceptionsEEEvPv
libkea-asiolink.so.56:_ZNSt17_Function_handlerIFviESt5_BindIFPFbiESt12_PlaceholderILi1EEEEE10_M_managerERSt9_Any_dataRKS9_St18_Manager_operation
libkea-asiolink.so.56:_ZNSt17_Function_handlerIFviESt5_BindIFPFbiESt12_PlaceholderILi1EEEEE9_M_invokeERKSt9_Any_dataOi
libkea-asiolink.so.56:_ZNSt6thread24_M_thread_deps_never_runEv
libkea-asiolink.so.56:boost_asio_detail_posix_thread_function
libkea-asiolink.so.56:boost_asio_signal_handler
libkea-cc.so.54:_ZN3isc4data10MapElement3setERKNSt7__cxx1112basic_stringIcSt11char_traitsIcESaIcEEEN5boost10shared_ptrIKNS0_7ElementEEE
libkea-cc.so.54:_ZN3isc4data11ListElement4sortERKNSt7__cxx1112basic_stringIcSt11char_traitsIcESaIcEEE
libkea-cc.so.54:_ZN3isc4data11UserContext9toElementEN5boost10shared_ptrIKNS0_7ElementEEE
libkea-cc.so.54:_ZN3isc4data11prettyPrintB5cxx11EN5boost10shared_ptrIKNS0_7ElementEEEjj
libkea-cc.so.54:_ZN3isc4data11prettyPrintEN5boost10shared_ptrIKNS0_7ElementEEERSojj
libkea-cc.so.54:_ZN3isc4data12SimpleParser10getAddressERKN5boost10shared_ptrIKNS0_7ElementEEERKNSt7__cxx1112basic_stringIcSt11char_traitsIcESaIcEEE
libkea-cc.so.54:_ZN3isc4data12SimpleParser10getBooleanEN5boost10shared_ptrIKNS0_7ElementEEERKNSt7__cxx1112basic_stringIcSt11char_traitsIcESaIcEEE
libkea-cc.so.54:_ZN3isc4data12SimpleParser10getIntegerEN5boost10shared_ptrIKNS0_7ElementEEERKNSt7__cxx1112basic_stringIcSt11char_traitsIcESaIcEEE
libkea-cc.so.54:_ZN3isc4data12SimpleParser10getIntegerEN5boost10shared_ptrIKNS0_7ElementEEERKNSt7__cxx1112basic_stringIcSt11char_traitsIcESaIcEEEll
libkea-cc.so.54:_ZN3isc4data12SimpleParser11getPositionERKNSt7__cxx1112basic_stringIcSt11char_traitsIcESaIcEEEN5boost10shared_ptrIKNS0_7ElementEEE
libkea-cc.so.54:_ZN3isc4data12SimpleParser11setDefaultsEN5boost10shared_ptrINS0_7ElementEEERKSt6vectorINS0_13SimpleDefaultESaIS7_EE
libkea-cc.so.54:_ZN3isc4data12SimpleParser12deriveParamsEN5boost10shared_ptrIKNS0_7ElementEEENS3_IS4_EERKSt6vectorINSt7__cxx1112basic_stringIcSt11char_traitsIcESaIcEEESaISE_EE
libkea-cc.so.54:_ZN3isc4data12SimpleParser13checkKeywordsERKSt3mapINSt7__cxx1112basic_stringIcSt11char_traitsIcESaIcEEENS0_7Element5typesESt4lessIS8_ESaISt4pairIKS8_SA_EEEN5boost10shared_ptrIKS9_EE
libkea-cc.so.54:_ZN3isc4data12SimpleParser13checkRequiredERKSt6vectorINSt7__cxx1112basic_stringIcSt11char_traitsIcESaIcEEESaIS8_EEN5boost10shared_ptrIKNS0_7ElementEEE
libkea-cc.so.54:_ZN3isc4data12SimpleParser15parseIntTripletERKN5boost10shared_ptrIKNS0_7ElementEEERKNSt7__cxx1112basic_stringIcSt11char_traitsIcESaIcEEE
libkea-cc.so.54:_ZN3isc4data12SimpleParser15setListDefaultsEN5boost10shared_ptrIKNS0_7ElementEEERKSt6vectorINS0_13SimpleDefaultESaIS8_EE
libkea-cc.so.54:_ZN3isc4data12SimpleParser9getDoubleERKN5boost10shared_ptrIKNS0_7ElementEEERKNSt7__cxx1112basic_stringIcSt11char_traitsIcESaIcEEE
libkea-cc.so.54:_ZN3isc4data12SimpleParser9getStringEN5boost10shared_ptrIKNS0_7ElementEEERKNSt7__cxx1112basic_stringIcSt11char_traitsIcESaIcEEE
libkea-cc.so.54:_ZN3isc4data12StampedValue6createERKNSt7__cxx1112basic_stringIcSt11char_traitsIcESaIcEEE
libkea-cc.so.54:_ZN3isc4data12StampedValue6createERKNSt7__cxx1112basic_stringIcSt11char_traitsIcESaIcEEERKN5boost10shared_ptrINS0_7ElementEEE
libkea-cc.so.54:_ZN3isc4data12StampedValue6createERKNSt7__cxx1112basic_stringIcSt11char_traitsIcESaIcEEES9_
libkea-cc.so.54:_ZN3isc4data12StampedValue6createERKNSt7__cxx1112basic_stringIcSt11char_traitsIcESaIcEEES9_NS0_7Element5typesE
libkea-cc.so.54:_ZN3isc4data12StampedValueC1ERKNSt7__cxx1112basic_stringIcSt11char_traitsIcESaIcEEE
libkea-cc.so.54:_ZN3isc4data12StampedValueC1ERKNSt7__cxx1112basic_stringIcSt11char_traitsIcESaIcEEERKN5boost10shared_ptrINS0_7ElementEEE
libkea-cc.so.54:_ZN3isc4data12StampedValueC1ERKNSt7__cxx1112basic_stringIcSt11char_traitsIcESaIcEEES9_
libkea-cc.so.54:_ZN3isc4data12StampedValueC2ERKNSt7__cxx1112basic_stringIcSt11char_traitsIcESaIcEEE
libkea-cc.so.54:_ZN3isc4data12StampedValueC2ERKNSt7__cxx1112basic_stringIcSt11char_traitsIcESaIcEEERKN5boost10shared_ptrINS0_7ElementEEE
libkea-cc.so.54:_ZN3isc4data12StampedValueC2ERKNSt7__cxx1112basic_stringIcSt11char_traitsIcESaIcEEES9_
libkea-cc.so.54:_ZN3isc4data12isEquivalentEN5boost10shared_ptrIKNS0_7ElementEEES5_
libkea-cc.so.54:_ZN3isc4data12mergeDiffAddERN5boost10shared_ptrINS0_7ElementEEES5_RSt6vectorISt3mapINSt7__cxx1112basic_stringIcSt11char_traitsIcESaIcEEENS0_22HierarchyTraversalTestESt4lessISD_ESaISt4pairIKSD_SE_EEESaISL_EESD_m
libkea-cc.so.54:_ZN3isc4data12mergeDiffDelERN5boost10shared_ptrINS0_7ElementEEES5_RSt6vectorISt3mapINSt7__cxx1112basic_stringIcSt11char_traitsIcESaIcEEENS0_22HierarchyTraversalTestESt4lessISD_ESaISt4pairIKSD_SE_EEESaISL_EESD_m
libkea-cc.so.54:_ZN3isc4data14StampedElement12delServerTagERKNSt7__cxx1112basic_stringIcSt11char_traitsIcESaIcEEE
libkea-cc.so.54:_ZN3isc4data14StampedElementC1Ev
libkea-cc.so.54:_ZN3isc4data14StampedElementC2Ev
libkea-cc.so.54:_ZN3isc4data15removeIdenticalEN5boost10shared_ptrIKNS0_7ElementEEES5_
libkea-cc.so.54:_ZN3isc4data15removeIdenticalEN5boost10shared_ptrINS0_7ElementEEENS2_IKS3_EE
libkea-cc.so.54:_ZN3isc4data18BaseStampedElement22updateModificationTimeEv
libkea-cc.so.54:_ZN3isc4data18BaseStampedElementC1Ev
libkea-cc.so.54:_ZN3isc4data18BaseStampedElementC2Ev
libkea-cc.so.54:_ZN3isc4data4copyEN5boost10shared_ptrIKNS0_7ElementEEEi
libkea-cc.so.54:_ZN3isc4data5mergeEN5boost10shared_ptrINS0_7ElementEEENS2_IKS3_EE
libkea-cc.so.54:_ZN3isc4data6extendERKNSt7__cxx1112basic_stringIcSt11char_traitsIcESaIcEEES8_RN5boost10shared_ptrINS0_7ElementEEESD_RSt6vectorISt3mapIS6_NS0_22HierarchyTraversalTestESt4lessIS6_ESaISt4pairIS7_SG_EEESaISM_EES6_mb
libkea-cc.so.54:_ZN3isc4data6isNullEN5boost10shared_ptrIKNS0_7ElementEEE
libkea-cc.so.54:_ZN3isc4data7Element10createListERKNS1_8PositionE
libkea-cc.so.54:_ZN3isc4data7Element10nameToTypeERKNSt7__cxx1112basic_stringIcSt11char_traitsIcESaIcEEE
libkea-cc.so.54:_ZN3isc4data7Element10preprocessERSiRNSt7__cxx1118basic_stringstreamIcSt11char_traitsIcESaIcEEE
libkea-cc.so.54:_ZN3isc4data7Element10typeToNameB5cxx11ENS1_5typesE
libkea-cc.so.54:_ZN3isc4data7Element12fromJSONFileERKNSt7__cxx1112basic_stringIcSt11char_traitsIcESaIcEEEb
libkea-cc.so.54:_ZN3isc4data7Element3addEN5boost10shared_ptrIS1_EE
libkea-cc.so.54:_ZN3isc4data7Element3setERKNSt7__cxx1112basic_stringIcSt11char_traitsIcESaIcEEEN5boost10shared_ptrIKS1_EE
libkea-cc.so.54:_ZN3isc4data7Element3setEmN5boost10shared_ptrIS1_EE
libkea-cc.so.54:_ZN3isc4data7Element6createEPKcRKNS1_8PositionE
libkea-cc.so.54:_ZN3isc4data7Element6createERKN5boost14multiprecision6numberINS3_8backends15cpp_int_backendILj128ELj128ELNS3_16cpp_integer_typeE1ELNS3_18cpp_int_check_typeE0EvEELNS3_26expression_template_optionE0EEERKNS1_8PositionE
libkea-cc.so.54:_ZN3isc4data7Element6createERKNS1_8PositionE
libkea-cc.so.54:_ZN3isc4data7Element6createERKNSt7__cxx1112basic_stringIcSt11char_traitsIcESaIcEEERKNS1_8PositionE
libkea-cc.so.54:_ZN3isc4data7Element6createEbRKNS1_8PositionE
libkea-cc.so.54:_ZN3isc4data7Element6createEdRKNS1_8PositionE
libkea-cc.so.54:_ZN3isc4data7Element6createEiRKNS1_8PositionE
libkea-cc.so.54:_ZN3isc4data7Element6createEjRKNS1_8PositionE
libkea-cc.so.54:_ZN3isc4data7Element6createElRKNS1_8PositionE
libkea-cc.so.54:_ZN3isc4data7Element6createExRKNS1_8PositionE
libkea-cc.so.54:_ZN3isc4data7Element6removeERKNSt7__cxx1112basic_stringIcSt11char_traitsIcESaIcEEE
libkea-cc.so.54:_ZN3isc4data7Element6removeEi
libkea-cc.so.54:_ZN3isc4data7Element8fromJSONERKNSt7__cxx1112basic_stringIcSt11char_traitsIcESaIcEEEb
libkea-cc.so.54:_ZN3isc4data7Element8fromJSONERSiRKNSt7__cxx1112basic_stringIcSt11char_traitsIcESaIcEEERiSB_
libkea-cc.so.54:_ZN3isc4data7Element8fromJSONERSiRKNSt7__cxx1112basic_stringIcSt11char_traitsIcESaIcEEEb
libkea-cc.so.54:_ZN3isc4data7Element8fromJSONERSib
libkea-cc.so.54:_ZN3isc4data7Element8fromWireERKNSt7__cxx1112basic_stringIcSt11char_traitsIcESaIcEEE
libkea-cc.so.54:_ZN3isc4data7Element8fromWireERNSt7__cxx1118basic_stringstreamIcSt11char_traitsIcESaIcEEEi
libkea-cc.so.54:_ZN3isc4data7Element8setValueERKN5boost14multiprecision6numberINS3_8backends15cpp_int_backendILj128ELj128ELNS3_16cpp_integer_typeE1ELNS3_18cpp_int_check_typeE0EvEELNS3_26expression_template_optionE0EEE
libkea-cc.so.54:_ZN3isc4data7Element8setValueERKNSt7__cxx1112basic_stringIcSt11char_traitsIcESaIcEEE
libkea-cc.so.54:_ZN3isc4data7Element8setValueERKSt3mapINSt7__cxx1112basic_stringIcSt11char_traitsIcESaIcEEEN5boost10shared_ptrIKS1_EESt4lessIS8_ESaISt4pairIKS8_SC_EEE
libkea-cc.so.54:_ZN3isc4data7Element8setValueERKSt6vectorIN5boost10shared_ptrIS1_EESaIS5_EE
libkea-cc.so.54:_ZN3isc4data7Element8setValueEb
libkea-cc.so.54:_ZN3isc4data7Element8setValueEd
libkea-cc.so.54:_ZN3isc4data7Element8setValueEx
libkea-cc.so.54:_ZN3isc4data7Element9createMapERKNS1_8PositionE
libkea-cc.so.54:_ZN3isc4data9ServerTagC1ERKNSt7__cxx1112basic_stringIcSt11char_traitsIcESaIcEEE
libkea-cc.so.54:_ZN3isc4data9ServerTagC1Ev
libkea-cc.so.54:_ZN3isc4data9ServerTagC2ERKNSt7__cxx1112basic_stringIcSt11char_traitsIcESaIcEEE
libkea-cc.so.54:_ZN3isc4data9ServerTagC2Ev
libkea-cc.so.54:_ZN3isc4dataeqERKNS0_7ElementES3_
libkea-cc.so.54:_ZN3isc4datalsERSoRKNS0_7Element8PositionE
libkea-cc.so.54:_ZN3isc4datalsERSoRKNS0_7ElementE
libkea-cc.so.54:_ZN3isc4datalsERSoRKNS0_9ServerTagE
libkea-cc.so.54:_ZN3isc4dataltERKNS0_7ElementES3_
libkea-cc.so.54:_ZN3isc4dataneERKNS0_7ElementES3_
libkea-cc.so.54:_ZN3isc6config11parseAnswerERiRKN5boost10shared_ptrIKNS_4data7ElementEEE
libkea-cc.so.54:_ZN3isc6config12answerToTextB5cxx11ERKN5boost10shared_ptrIKNS_4data7ElementEEE
libkea-cc.so.54:_ZN3isc6config12createAnswerEiRKN5boost10shared_ptrIKNS_4data7ElementEEE
libkea-cc.so.54:_ZN3isc6config12createAnswerEiRKNSt7__cxx1112basic_stringIcSt11char_traitsIcESaIcEEE
libkea-cc.so.54:_ZN3isc6config12createAnswerEiRKNSt7__cxx1112basic_stringIcSt11char_traitsIcESaIcEEERKN5boost10shared_ptrIKNS_4data7ElementEEE
libkea-cc.so.54:_ZN3isc6config12createAnswerEv
libkea-cc.so.54:_ZN3isc6config12parseCommandB5cxx11ERN5boost10shared_ptrIKNS_4data7ElementEEES6_
libkea-cc.so.54:_ZN3isc6config13createCommandERKNSt7__cxx1112basic_stringIcSt11char_traitsIcESaIcEEE
libkea-cc.so.54:_ZN3isc6config13createCommandERKNSt7__cxx1112basic_stringIcSt11char_traitsIcESaIcEEEN5boost10shared_ptrIKNS_4data7ElementEEE
libkea-cc.so.54:_ZN3isc6config13createCommandERKNSt7__cxx1112basic_stringIcSt11char_traitsIcESaIcEEEN5boost10shared_ptrIKNS_4data7ElementEEES8_
libkea-cc.so.54:_ZN3isc6config13createCommandERKNSt7__cxx1112basic_stringIcSt11char_traitsIcESaIcEEES8_
libkea-cc.so.54:_ZN3isc6config15parseAnswerTextERiRKN5boost10shared_ptrIKNS_4data7ElementEEE
libkea-cc.so.54:_ZN3isc6config20combineCommandsListsERKN5boost10shared_ptrIKNS_4data7ElementEEES8_
libkea-cc.so.54:_ZN3isc6config20parseCommandWithArgsB5cxx11ERN5boost10shared_ptrIKNS_4data7ElementEEES6_
libkea-cc.so.54:_ZN3isc6config8JSONFeed10postBufferEPKvm
libkea-cc.so.54:_ZN3isc6config8JSONFeed11feedFailureERKNSt7__cxx1112basic_stringIcSt11char_traitsIcESaIcEEE
libkea-cc.so.54:_ZN3isc6config8JSONFeed12defineEventsEv
libkea-cc.so.54:_ZN3isc6config8JSONFeed12defineStatesEv
libkea-cc.so.54:_ZN3isc6config8JSONFeed12verifyEventsEv
libkea-cc.so.54:_ZN3isc6config8JSONFeed14endJSONHandlerEv
libkea-cc.so.54:_ZN3isc6config8JSONFeed14onModelFailureERKNSt7__cxx1112basic_stringIcSt11char_traitsIcESaIcEEE
libkea-cc.so.54:_ZN3isc6config8JSONFeed15cCommentHandlerEv
libkea-cc.so.54:_ZN3isc6config8JSONFeed16innerJSONHandlerEv
libkea-cc.so.54:_ZN3isc6config8JSONFeed17eolCommentHandlerEv
libkea-cc.so.54:_ZN3isc6config8JSONFeed17escapeJSONHandlerEv
libkea-cc.so.54:_ZN3isc6config8JSONFeed17getNextFromBufferEv
libkea-cc.so.54:_ZN3isc6config8JSONFeed17invalidEventErrorERKNSt7__cxx1112basic_stringIcSt11char_traitsIcESaIcEEEj
libkea-cc.so.54:_ZN3isc6config8JSONFeed17popNextFromBufferERc
libkea-cc.so.54:_ZN3isc6config8JSONFeed17stringJSONHandlerEv
libkea-cc.so.54:_ZN3isc6config8JSONFeed18stopCommentHandlerEv
libkea-cc.so.54:_ZN3isc6config8JSONFeed19receiveStartHandlerEv
libkea-cc.so.54:_ZN3isc6config8JSONFeed19startCommentHandlerEv
libkea-cc.so.54:_ZN3isc6config8JSONFeed25cCommentBeforeJSONHandlerEv
libkea-cc.so.54:_ZN3isc6config8JSONFeed27eolCommentBeforeJSONHandlerEv
libkea-cc.so.54:_ZN3isc6config8JSONFeed27whiteSpaceBeforeJSONHandlerEv
libkea-cc.so.54:_ZN3isc6config8JSONFeed28stopCommentBeforeJSONHandlerEv
libkea-cc.so.54:_ZN3isc6config8JSONFeed29startCommentBeforeJSONHandlerEv
libkea-cc.so.54:_ZN3isc6config8JSONFeed4pollEv
libkea-cc.so.54:_ZN3isc6config8JSONFeed9initModelEv
libkea-cc.so.54:_ZN3isc6config8JSONFeedC1Ev
libkea-cc.so.54:_ZN3isc6config8JSONFeedC2Ev
libkea-cc.so.54:_ZNK3isc4data10IntElement6equalsERKNS0_7ElementE
libkea-cc.so.54:_ZNK3isc4data10IntElement6toJSONERSo
libkea-cc.so.54:_ZNK3isc4data10MapElement4findERKNSt7__cxx1112basic_stringIcSt11char_traitsIcESaIcEEE
libkea-cc.so.54:_ZNK3isc4data10MapElement4findERKNSt7__cxx1112basic_stringIcSt11char_traitsIcESaIcEEERN5boost10shared_ptrIKNS0_7ElementEEE
libkea-cc.so.54:_ZNK3isc4data10MapElement6equalsERKNS0_7ElementE
libkea-cc.so.54:_ZNK3isc4data10MapElement6toJSONERSo
libkea-cc.so.54:_ZNK3isc4data11BoolElement6equalsERKNS0_7ElementE
libkea-cc.so.54:_ZNK3isc4data11BoolElement6toJSONERSo
libkea-cc.so.54:_ZNK3isc4data11ListElement6equalsERKNS0_7ElementE
libkea-cc.so.54:_ZNK3isc4data11ListElement6toJSONERSo
libkea-cc.so.54:_ZNK3isc4data11NullElement6equalsERKNS0_7ElementE
libkea-cc.so.54:_ZNK3isc4data11NullElement6toJSONERSo
libkea-cc.so.54:_ZNK3isc4data11UserContext16contextToElementEN5boost10shared_ptrINS0_7ElementEEE
libkea-cc.so.54:_ZNK3isc4data12StampedValue12getBoolValueEv
libkea-cc.so.54:_ZNK3isc4data12StampedValue14getDoubleValueEv
libkea-cc.so.54:_ZNK3isc4data12StampedValue14validateAccessENS0_7Element5typesE
libkea-cc.so.54:_ZNK3isc4data12StampedValue15getIntegerValueEv
libkea-cc.so.54:_ZNK3isc4data12StampedValue17validateConstructEv
libkea-cc.so.54:_ZNK3isc4data12StampedValue7getTypeEv
libkea-cc.so.54:_ZNK3isc4data12StampedValue8getValueB5cxx11Ev
libkea-cc.so.54:_ZNK3isc4data13BigIntElement6equalsERKNS0_7ElementE
libkea-cc.so.54:_ZNK3isc4data13BigIntElement6toJSONERSo
libkea-cc.so.54:_ZNK3isc4data13DoubleElement6equalsERKNS0_7ElementE
libkea-cc.so.54:_ZNK3isc4data13DoubleElement6toJSONERSo
libkea-cc.so.54:_ZNK3isc4data13StringElement6equalsERKNS0_7ElementE
libkea-cc.so.54:_ZNK3isc4data13StringElement6toJSONERSo
libkea-cc.so.54:_ZNK3isc4data14StampedElement11getMetadataEv
libkea-cc.so.54:_ZNK3isc4data14StampedElement12hasServerTagERKNS0_9ServerTagE
libkea-cc.so.54:_ZNK3isc4data14StampedElement15hasAllServerTagEv
libkea-cc.so.54:_ZNK3isc4data7Element11getNonConstEi
libkea-cc.so.54:_ZNK3isc4data7Element3getERKNSt7__cxx1112basic_stringIcSt11char_traitsIcESaIcEEE
libkea-cc.so.54:_ZNK3isc4data7Element3getEi
libkea-cc.so.54:_ZNK3isc4data7Element3strB5cxx11Ev
libkea-cc.so.54:_ZNK3isc4data7Element4findERKNSt7__cxx1112basic_stringIcSt11char_traitsIcESaIcEEE
libkea-cc.so.54:_ZNK3isc4data7Element4findERKNSt7__cxx1112basic_stringIcSt11char_traitsIcESaIcEEERN5boost10shared_ptrIKS1_EE
libkea-cc.so.54:_ZNK3isc4data7Element4sizeEv
libkea-cc.so.54:_ZNK3isc4data7Element5emptyEv
libkea-cc.so.54:_ZNK3isc4data7Element6toWireB5cxx11Ev
libkea-cc.so.54:_ZNK3isc4data7Element6toWireERSo
libkea-cc.so.54:_ZNK3isc4data7Element8Position3strB5cxx11Ev
libkea-cc.so.54:_ZNK3isc4data7Element8containsERKNSt7__cxx1112basic_stringIcSt11char_traitsIcESaIcEEE
libkea-cc.so.54:_ZNK3isc4data7Element8getValueERNSt7__cxx1112basic_stringIcSt11char_traitsIcESaIcEEE
libkea-cc.so.54:_ZNK3isc4data7Element8getValueERSt3mapINSt7__cxx1112basic_stringIcSt11char_traitsIcESaIcEEEN5boost10shared_ptrIKS1_EESt4lessIS8_ESaISt4pairIKS8_SC_EEE
libkea-cc.so.54:_ZNK3isc4data7Element8getValueERSt6vectorIN5boost10shared_ptrIS1_EESaIS5_EE
libkea-cc.so.54:_ZNK3isc4data7Element8getValueERb
libkea-cc.so.54:_ZNK3isc4data7Element8getValueERd
libkea-cc.so.54:_ZNK3isc4data7Element8getValueERl
libkea-cc.so.54:_ZNK3isc4data9ServerTag5amAllEv
libkea-cc.so.54:_ZNK3isc6config8JSONFeed6feedOkEv
libkea-cc.so.54:_ZNK3isc6config8JSONFeed8needDataEv
libkea-cc.so.54:_ZNK3isc6config8JSONFeed9toElementEv
libkea-cc.so.54:_ZNSt17_Function_handlerIFvvESt5_BindIFMN3isc6config8JSONFeedEFvvEPS4_EEE10_M_managerERSt9_Any_dataRKSB_St18_Manager_operation
libkea-cc.so.54:_ZNSt17_Function_handlerIFvvESt5_BindIFMN3isc6config8JSONFeedEFvvEPS4_EEE9_M_invokeERKSt9_Any_data
libkea-cfgclient.so.51:_ZN3isc6config10CommandMgr12setIOServiceERKN5boost10shared_ptrINS_8asiolink9IOServiceEEE
libkea-cfgclient.so.51:_ZN3isc6config10CommandMgr17openCommandSocketERKN5boost10shared_ptrIKNS_4data7ElementEEE
libkea-cfgclient.so.51:_ZN3isc6config10CommandMgr18closeCommandSocketEv
libkea-cfgclient.so.51:_ZN3isc6config10CommandMgr18getControlSocketFDEv
libkea-cfgclient.so.51:_ZN3isc6config10CommandMgr20setConnectionTimeoutEl
libkea-cfgclient.so.51:_ZN3isc6config10CommandMgr8instanceEv
libkea-cfgclient.so.51:_ZN3isc6config10CommandMgrC1Ev
libkea-cfgclient.so.51:_ZN3isc6config10CommandMgrC2Ev
libkea-cfgclient.so.51:_ZN3isc6config14BaseCommandMgr13deregisterAllEv
libkea-cfgclient.so.51:_ZN3isc6config14BaseCommandMgr13handleCommandERKNSt7__cxx1112basic_stringIcSt11char_traitsIcESaIcEEERKN5boost10shared_ptrIKNS_4data7ElementEEESH_
libkea-cfgclient.so.51:_ZN3isc6config14BaseCommandMgr14processCommandERKN5boost10shared_ptrIKNS_4data7ElementEEE
libkea-cfgclient.so.51:_ZN3isc6config14BaseCommandMgr15registerCommandERKNSt7__cxx1112basic_stringIcSt11char_traitsIcESaIcEEESt8functionIFN5boost10shared_ptrIKNS_4data7ElementEEES9_RKSG_EE
libkea-cfgclient.so.51:_ZN3isc6config14BaseCommandMgr17deregisterCommandERKNSt7__cxx1112basic_stringIcSt11char_traitsIcESaIcEEE
libkea-cfgclient.so.51:_ZN3isc6config14BaseCommandMgr19listCommandsHandlerERKNSt7__cxx1112basic_stringIcSt11char_traitsIcESaIcEEERKN5boost10shared_ptrIKNS_4data7ElementEEE
libkea-cfgclient.so.51:_ZN3isc6config14BaseCommandMgr23registerExtendedCommandERKNSt7__cxx1112basic_stringIcSt11char_traitsIcESaIcEEESt8functionIFN5boost10shared_ptrIKNS_4data7ElementEEES9_RKSG_SI_EE
libkea-cfgclient.so.51:_ZN3isc6config14BaseCommandMgr7getHashB5cxx11ERKN5boost10shared_ptrIKNS_4data7ElementEEE
libkea-cfgclient.so.51:_ZN3isc6config14BaseCommandMgrC1Ev
libkea-cfgclient.so.51:_ZN3isc6config14BaseCommandMgrC2Ev
libkea-cfgclient.so.51:_ZN3isc6config14CommandMgrImpl17openCommandSocketERKN5boost10shared_ptrIKNS_4data7ElementEEE
libkea-cfgclient.so.51:_ZN3isc6config14CommandMgrImpl8doAcceptEv
libkea-cfgclient.so.51:_ZN3isc6config15CmdHttpListener16checkPermissionsEv
libkea-cfgclient.so.51:_ZN3isc6config15CmdHttpListener4stopEv
libkea-cfgclient.so.51:_ZN3isc6config15CmdHttpListener5pauseEv
libkea-cfgclient.so.51:_ZN3isc6config15CmdHttpListener5startEv
libkea-cfgclient.so.51:_ZN3isc6config15CmdHttpListener6resumeEv
libkea-cfgclient.so.51:_ZN3isc6config15CmdHttpListener8isPausedEv
libkea-cfgclient.so.51:_ZN3isc6config15CmdHttpListener9isRunningEv
libkea-cfgclient.so.51:_ZN3isc6config15CmdHttpListener9isStoppedEv
libkea-cfgclient.so.51:_ZN3isc6config15CmdHttpListenerC1ERKNS_8asiolink9IOAddressEttN5boost10shared_ptrINS2_10TlsContextEEE
libkea-cfgclient.so.51:_ZN3isc6config15CmdHttpListenerC2ERKNS_8asiolink9IOAddressEttN5boost10shared_ptrINS2_10TlsContextEEE
libkea-cfgclient.so.51:_ZN3isc6config15CmdHttpListenerD0Ev
libkea-cfgclient.so.51:_ZN3isc6config15CmdHttpListenerD1Ev
libkea-cfgclient.so.51:_ZN3isc6config15CmdHttpListenerD2Ev
libkea-cfgclient.so.51:_ZN3isc6config16ClientConnection5startERKNS1_10SocketPathERKNS1_14ControlCommandESt8functionIFvRKN5boost6system10error_codeERKNS9_10shared_ptrIKNS0_8JSONFeedEEEEERKNS1_7TimeoutE
libkea-cfgclient.so.51:_ZN3isc6config16ClientConnectionC1ERNS_8asiolink9IOServiceE
libkea-cfgclient.so.51:_ZN3isc6config16ClientConnectionC2ERNS_8asiolink9IOServiceE
libkea-cfgclient.so.51:_ZN3isc6config16HookedCommandMgr13handleCommandERKNSt7__cxx1112basic_stringIcSt11char_traitsIcESaIcEEERKN5boost10shared_ptrIKNS_4data7ElementEEESH_
libkea-cfgclient.so.51:_ZN3isc6config16HookedCommandMgr28delegateCommandToHookLibraryERKNSt7__cxx1112basic_stringIcSt11char_traitsIcESaIcEEERKN5boost10shared_ptrIKNS_4data7ElementEEESH_RNSB_ISD_EE
libkea-cfgclient.so.51:_ZN3isc6config16HookedCommandMgrC1Ev
libkea-cfgclient.so.51:_ZN3isc6config16HookedCommandMgrC2Ev
libkea-cfgclient.so.51:_ZN3isc6config18CmdResponseCreator13filterCommandERKN5boost10shared_ptrINS_4http11HttpRequestEEERKNS3_IKNS_4data7ElementEEERKSt13unordered_setINSt7__cxx1112basic_stringIcSt11char_traitsIcESaIcEEESt4hashISL_ESt8equal_toISL_ESaISL_EE
libkea-cfgclient.so.51:_ZN3isc6config18CmdResponseCreator25createDynamicHttpResponseEN5boost10shared_ptrINS_4http11HttpRequestEEE
libkea-cfgclient.so.51:_ZN3isc6config20ClientConnectionImpl13scheduleTimerESt8functionIFvRKN5boost6system10error_codeERKNS3_10shared_ptrIKNS0_8JSONFeedEEEEE
libkea-cfgclient.so.51:_ZN3isc6config20ClientConnectionImpl15timeoutCallbackESt8functionIFvRKN5boost6system10error_codeERKNS3_10shared_ptrIKNS0_8JSONFeedEEEEE
libkea-cfgclient.so.51:_ZN3isc6config20ClientConnectionImpl5startERKNS0_16ClientConnection10SocketPathERKNS2_14ControlCommandESt8functionIFvRKN5boost6system10error_codeERKNSA_10shared_ptrIKNS0_8JSONFeedEEEEERKNS2_7TimeoutE
libkea-cfgclient.so.51:_ZN3isc6config20ClientConnectionImpl6doSendEPKvmSt8functionIFvRKN5boost6system10error_codeERKNS5_10shared_ptrIKNS0_8JSONFeedEEEEE
libkea-cfgclient.so.51:_ZN3isc6config20ClientConnectionImpl9doReceiveESt8functionIFvRKN5boost6system10error_codeERKNS3_10shared_ptrIKNS0_8JSONFeedEEEEE
libkea-cfgclient.so.51:_ZN3isc6config20ClientConnectionImpl9terminateERKN5boost6system10error_codeESt8functionIFvS6_RKNS2_10shared_ptrIKNS0_8JSONFeedEEEEE
libkea-cfgclient.so.51:_ZN3isc6config20ClientConnectionImplC1ERNS_8asiolink9IOServiceE
libkea-cfgclient.so.51:_ZN3isc6config20ClientConnectionImplC2ERNS_8asiolink9IOServiceE
libkea-cfgclient.so.51:_ZN5boost4asio6detail11executor_opINS1_17executor_functionESaIvENS1_19scheduler_operationEE11do_completeEPvPS5_RKNS_6system10error_codeEm
libkea-cfgclient.so.51:_ZN5boost4asio6detail13epoll_reactor16descriptor_state11do_completeEPvPNS1_19scheduler_operationERKNS_6system10error_codeEm
libkea-cfgclient.so.51:_ZN5boost4asio6detail16service_registry6createINS1_13epoll_reactorENS0_17execution_contextEEEPNS5_7serviceEPv
libkea-cfgclient.so.51:_ZN5boost4asio6detail17executor_function8completeINS1_7binder1ISt8functionIFvRKNS_6system10error_codeEEES7_EESaIvEEEvPNS2_9impl_baseEb
libkea-cfgclient.so.51:_ZN5boost4asio6detail22executor_function_view8completeINS1_7binder1ISt8functionIFvRKNS_6system10error_codeEEES7_EEEEvPv
libkea-cfgclient.so.51:_ZN5boost4asio6detail25reactive_socket_accept_opINS0_12basic_socketINS0_5local15stream_protocolENS0_15any_io_executorEEES5_St8functionIFvRKNS_6system10error_codeEEES6_E11do_completeEPvPNS1_19scheduler_operationESC_m
libkea-cfgclient.so.51:_ZN5boost4asio6detail30reactive_socket_accept_op_baseINS0_12basic_socketINS0_5local15stream_protocolENS0_15any_io_executorEEES5_E10do_performEPNS1_10reactor_opE
libkea-cfgclient.so.51:_ZN5boost4asio9execution6detail17any_executor_base10equal_voidERKS3_S5_
libkea-cfgclient.so.51:_ZN5boost4asio9execution6detail17any_executor_base10execute_exINS0_10io_context19basic_executor_typeISaIvELj0EEEEEvRKS3_ONS0_6detail17executor_functionE
libkea-cfgclient.so.51:_ZN5boost4asio9execution6detail17any_executor_base10execute_exINS0_10io_context19basic_executor_typeISaIvELj4EEEEEvRKS3_ONS0_6detail17executor_functionE
libkea-cfgclient.so.51:_ZN5boost4asio9execution6detail17any_executor_base10require_fnINS1_12any_executorIJNS1_12context_as_tIRNS0_17execution_contextEEENS2_8blocking7never_tILi0EEENS1_11prefer_onlyINSA_10possibly_tILi0EEEEENSD_INS2_16outstanding_work9tracked_tILi0EEEEENSD_INSH_11untracked_tILi0EEEEENSD_INS2_12relationship6fork_tILi0EEEEENSD_INSO_14continuation_tILi0EEEEEEEENS0_10io_context19basic_executor_typeISaIvELj0EEES9_EET_PKvS12_
libkea-cfgclient.so.51:_ZN5boost4asio9execution6detail17any_executor_base10require_fnINS1_12any_executorIJNS1_12context_as_tIRNS0_17execution_contextEEENS2_8blocking7never_tILi0EEENS1_11prefer_onlyINSA_10possibly_tILi0EEEEENSD_INS2_16outstanding_work9tracked_tILi0EEEEENSD_INSH_11untracked_tILi0EEEEENSD_INS2_12relationship6fork_tILi0EEEEENSD_INSO_14continuation_tILi0EEEEEEEENS0_10io_context19basic_executor_typeISaIvELj0EEESC_EET_PKvS12_
libkea-cfgclient.so.51:_ZN5boost4asio9execution6detail17any_executor_base10require_fnINS1_12any_executorIJNS1_12context_as_tIRNS0_17execution_contextEEENS2_8blocking7never_tILi0EEENS1_11prefer_onlyINSA_10possibly_tILi0EEEEENSD_INS2_16outstanding_work9tracked_tILi0EEEEENSD_INSH_11untracked_tILi0EEEEENSD_INS2_12relationship6fork_tILi0EEEEENSD_INSO_14continuation_tILi0EEEEEEEENS0_10io_context19basic_executor_typeISaIvELj0EEESG_EET_PKvS12_
libkea-cfgclient.so.51:_ZN5boost4asio9execution6detail17any_executor_base10require_fnINS1_12any_executorIJNS1_12context_as_tIRNS0_17execution_contextEEENS2_8blocking7never_tILi0EEENS1_11prefer_onlyINSA_10possibly_tILi0EEEEENSD_INS2_16outstanding_work9tracked_tILi0EEEEENSD_INSH_11untracked_tILi0EEEEENSD_INS2_12relationship6fork_tILi0EEEEENSD_INSO_14continuation_tILi0EEEEEEEENS0_10io_context19basic_executor_typeISaIvELj0EEESK_EET_PKvS12_
libkea-cfgclient.so.51:_ZN5boost4asio9execution6detail17any_executor_base10require_fnINS1_12any_executorIJNS1_12context_as_tIRNS0_17execution_contextEEENS2_8blocking7never_tILi0EEENS1_11prefer_onlyINSA_10possibly_tILi0EEEEENSD_INS2_16outstanding_work9tracked_tILi0EEEEENSD_INSH_11untracked_tILi0EEEEENSD_INS2_12relationship6fork_tILi0EEEEENSD_INSO_14continuation_tILi0EEEEEEEENS0_10io_context19basic_executor_typeISaIvELj0EEESN_EET_PKvS12_
libkea-cfgclient.so.51:_ZN5boost4asio9execution6detail17any_executor_base10require_fnINS1_12any_executorIJNS1_12context_as_tIRNS0_17execution_contextEEENS2_8blocking7never_tILi0EEENS1_11prefer_onlyINSA_10possibly_tILi0EEEEENSD_INS2_16outstanding_work9tracked_tILi0EEEEENSD_INSH_11untracked_tILi0EEEEENSD_INS2_12relationship6fork_tILi0EEEEENSD_INSO_14continuation_tILi0EEEEEEEENS0_10io_context19basic_executor_typeISaIvELj0EEESR_EET_PKvS12_
libkea-cfgclient.so.51:_ZN5boost4asio9execution6detail17any_executor_base10require_fnINS1_12any_executorIJNS1_12context_as_tIRNS0_17execution_contextEEENS2_8blocking7never_tILi0EEENS1_11prefer_onlyINSA_10possibly_tILi0EEEEENSD_INS2_16outstanding_work9tracked_tILi0EEEEENSD_INSH_11untracked_tILi0EEEEENSD_INS2_12relationship6fork_tILi0EEEEENSD_INSO_14continuation_tILi0EEEEEEEENS0_10io_context19basic_executor_typeISaIvELj0EEESU_EET_PKvS12_
libkea-cfgclient.so.51:_ZN5boost4asio9execution6detail17any_executor_base10require_fnINS1_12any_executorIJNS1_12context_as_tIRNS0_17execution_contextEEENS2_8blocking7never_tILi0EEENS1_11prefer_onlyINSA_10possibly_tILi0EEEEENSD_INS2_16outstanding_work9tracked_tILi0EEEEENSD_INSH_11untracked_tILi0EEEEENSD_INS2_12relationship6fork_tILi0EEEEENSD_INSO_14continuation_tILi0EEEEEEEENS0_10io_context19basic_executor_typeISaIvELj4EEES9_EET_PKvS12_
libkea-cfgclient.so.51:_ZN5boost4asio9execution6detail17any_executor_base10require_fnINS1_12any_executorIJNS1_12context_as_tIRNS0_17execution_contextEEENS2_8blocking7never_tILi0EEENS1_11prefer_onlyINSA_10possibly_tILi0EEEEENSD_INS2_16outstanding_work9tracked_tILi0EEEEENSD_INSH_11untracked_tILi0EEEEENSD_INS2_12relationship6fork_tILi0EEEEENSD_INSO_14continuation_tILi0EEEEEEEENS0_10io_context19basic_executor_typeISaIvELj4EEESC_EET_PKvS12_
libkea-cfgclient.so.51:_ZN5boost4asio9execution6detail17any_executor_base10require_fnINS1_12any_executorIJNS1_12context_as_tIRNS0_17execution_contextEEENS2_8blocking7never_tILi0EEENS1_11prefer_onlyINSA_10possibly_tILi0EEEEENSD_INS2_16outstanding_work9tracked_tILi0EEEEENSD_INSH_11untracked_tILi0EEEEENSD_INS2_12relationship6fork_tILi0EEEEENSD_INSO_14continuation_tILi0EEEEEEEENS0_10io_context19basic_executor_typeISaIvELj4EEESG_EET_PKvS12_
libkea-cfgclient.so.51:_ZN5boost4asio9execution6detail17any_executor_base10require_fnINS1_12any_executorIJNS1_12context_as_tIRNS0_17execution_contextEEENS2_8blocking7never_tILi0EEENS1_11prefer_onlyINSA_10possibly_tILi0EEEEENSD_INS2_16outstanding_work9tracked_tILi0EEEEENSD_INSH_11untracked_tILi0EEEEENSD_INS2_12relationship6fork_tILi0EEEEENSD_INSO_14continuation_tILi0EEEEEEEENS0_10io_context19basic_executor_typeISaIvELj4EEESK_EET_PKvS12_
libkea-cfgclient.so.51:_ZN5boost4asio9execution6detail17any_executor_base10require_fnINS1_12any_executorIJNS1_12context_as_tIRNS0_17execution_contextEEENS2_8blocking7never_tILi0EEENS1_11prefer_onlyINSA_10possibly_tILi0EEEEENSD_INS2_16outstanding_work9tracked_tILi0EEEEENSD_INSH_11untracked_tILi0EEEEENSD_INS2_12relationship6fork_tILi0EEEEENSD_INSO_14continuation_tILi0EEEEEEEENS0_10io_context19basic_executor_typeISaIvELj4EEESN_EET_PKvS12_
libkea-cfgclient.so.51:_ZN5boost4asio9execution6detail17any_executor_base10require_fnINS1_12any_executorIJNS1_12context_as_tIRNS0_17execution_contextEEENS2_8blocking7never_tILi0EEENS1_11prefer_onlyINSA_10possibly_tILi0EEEEENSD_INS2_16outstanding_work9tracked_tILi0EEEEENSD_INSH_11untracked_tILi0EEEEENSD_INS2_12relationship6fork_tILi0EEEEENSD_INSO_14continuation_tILi0EEEEEEEENS0_10io_context19basic_executor_typeISaIvELj4EEESR_EET_PKvS12_
libkea-cfgclient.so.51:_ZN5boost4asio9execution6detail17any_executor_base10require_fnINS1_12any_executorIJNS1_12context_as_tIRNS0_17execution_contextEEENS2_8blocking7never_tILi0EEENS1_11prefer_onlyINSA_10possibly_tILi0EEEEENSD_INS2_16outstanding_work9tracked_tILi0EEEEENSD_INSH_11untracked_tILi0EEEEENSD_INS2_12relationship6fork_tILi0EEEEENSD_INSO_14continuation_tILi0EEEEEEEENS0_10io_context19basic_executor_typeISaIvELj4EEESU_EET_PKvS12_
libkea-cfgclient.so.51:_ZN5boost4asio9execution6detail17any_executor_base10require_fnINS1_12any_executorIJNS1_12context_as_tIRNS0_17execution_contextEEENS2_8blocking7never_tILi0EEENS1_11prefer_onlyINSA_10possibly_tILi0EEEEENSD_INS2_16outstanding_work9tracked_tILi0EEEEENSD_INSH_11untracked_tILi0EEEEENSD_INS2_12relationship6fork_tILi0EEEEENSD_INSO_14continuation_tILi0EEEEEEEEvS9_EET_PKvSY_
libkea-cfgclient.so.51:_ZN5boost4asio9execution6detail17any_executor_base10require_fnINS1_12any_executorIJNS1_12context_as_tIRNS0_17execution_contextEEENS2_8blocking7never_tILi0EEENS1_11prefer_onlyINSA_10possibly_tILi0EEEEENSD_INS2_16outstanding_work9tracked_tILi0EEEEENSD_INSH_11untracked_tILi0EEEEENSD_INS2_12relationship6fork_tILi0EEEEENSD_INSO_14continuation_tILi0EEEEEEEEvSC_EET_PKvSY_
libkea-cfgclient.so.51:_ZN5boost4asio9execution6detail17any_executor_base10require_fnINS1_12any_executorIJNS1_12context_as_tIRNS0_17execution_contextEEENS2_8blocking7never_tILi0EEENS1_11prefer_onlyINSA_10possibly_tILi0EEEEENSD_INS2_16outstanding_work9tracked_tILi0EEEEENSD_INSH_11untracked_tILi0EEEEENSD_INS2_12relationship6fork_tILi0EEEEENSD_INSO_14continuation_tILi0EEEEEEEEvSG_EET_PKvSY_
libkea-cfgclient.so.51:_ZN5boost4asio9execution6detail17any_executor_base10require_fnINS1_12any_executorIJNS1_12context_as_tIRNS0_17execution_contextEEENS2_8blocking7never_tILi0EEENS1_11prefer_onlyINSA_10possibly_tILi0EEEEENSD_INS2_16outstanding_work9tracked_tILi0EEEEENSD_INSH_11untracked_tILi0EEEEENSD_INS2_12relationship6fork_tILi0EEEEENSD_INSO_14continuation_tILi0EEEEEEEEvSK_EET_PKvSY_
libkea-cfgclient.so.51:_ZN5boost4asio9execution6detail17any_executor_base10require_fnINS1_12any_executorIJNS1_12context_as_tIRNS0_17execution_contextEEENS2_8blocking7never_tILi0EEENS1_11prefer_onlyINSA_10possibly_tILi0EEEEENSD_INS2_16outstanding_work9tracked_tILi0EEEEENSD_INSH_11untracked_tILi0EEEEENSD_INS2_12relationship6fork_tILi0EEEEENSD_INSO_14continuation_tILi0EEEEEEEEvSN_EET_PKvSY_
libkea-cfgclient.so.51:_ZN5boost4asio9execution6detail17any_executor_base10require_fnINS1_12any_executorIJNS1_12context_as_tIRNS0_17execution_contextEEENS2_8blocking7never_tILi0EEENS1_11prefer_onlyINSA_10possibly_tILi0EEEEENSD_INS2_16outstanding_work9tracked_tILi0EEEEENSD_INSH_11untracked_tILi0EEEEENSD_INS2_12relationship6fork_tILi0EEEEENSD_INSO_14continuation_tILi0EEEEEEEEvSR_EET_PKvSY_
libkea-cfgclient.so.51:_ZN5boost4asio9execution6detail17any_executor_base10require_fnINS1_12any_executorIJNS1_12context_as_tIRNS0_17execution_contextEEENS2_8blocking7never_tILi0EEENS1_11prefer_onlyINSA_10possibly_tILi0EEEEENSD_INS2_16outstanding_work9tracked_tILi0EEEEENSD_INSH_11untracked_tILi0EEEEENSD_INS2_12relationship6fork_tILi0EEEEENSD_INSO_14continuation_tILi0EEEEEEEEvSU_EET_PKvSY_
libkea-cfgclient.so.51:_ZN5boost4asio9execution6detail17any_executor_base11copy_objectINS0_10io_context19basic_executor_typeISaIvELj0EEEEEvRS3_RKS3_
libkea-cfgclient.so.51:_ZN5boost4asio9execution6detail17any_executor_base11copy_objectINS0_10io_context19basic_executor_typeISaIvELj4EEEEEvRS3_RKS3_
libkea-cfgclient.so.51:_ZN5boost4asio9execution6detail17any_executor_base11move_objectINS0_10io_context19basic_executor_typeISaIvELj0EEEEEvRS3_S9_
libkea-cfgclient.so.51:_ZN5boost4asio9execution6detail17any_executor_base11move_objectINS0_10io_context19basic_executor_typeISaIvELj4EEEEEvRS3_S9_
libkea-cfgclient.so.51:_ZN5boost4asio9execution6detail17any_executor_base11target_voidERKS3_
libkea-cfgclient.so.51:_ZN5boost4asio9execution6detail17any_executor_base12destroy_voidERS3_
libkea-cfgclient.so.51:_ZN5boost4asio9execution6detail17any_executor_base12execute_voidERKS3_ONS0_6detail17executor_functionE
libkea-cfgclient.so.51:_ZN5boost4asio9execution6detail17any_executor_base13target_objectINS0_10io_context19basic_executor_typeISaIvELj0EEEEEPKvRKS3_
libkea-cfgclient.so.51:_ZN5boost4asio9execution6detail17any_executor_base13target_objectINS0_10io_context19basic_executor_typeISaIvELj4EEEEEPKvRKS3_
libkea-cfgclient.so.51:_ZN5boost4asio9execution6detail17any_executor_base14destroy_objectINS0_10io_context19basic_executor_typeISaIvELj0EEEEEvRS3_
libkea-cfgclient.so.51:_ZN5boost4asio9execution6detail17any_executor_base14destroy_objectINS0_10io_context19basic_executor_typeISaIvELj4EEEEEvRS3_
libkea-cfgclient.so.51:_ZN5boost4asio9execution6detail17any_executor_base14target_type_exINS0_10io_context19basic_executor_typeISaIvELj0EEEEERKSt9type_infov
libkea-cfgclient.so.51:_ZN5boost4asio9execution6detail17any_executor_base14target_type_exINS0_10io_context19basic_executor_typeISaIvELj4EEEEERKSt9type_infov
libkea-cfgclient.so.51:_ZN5boost4asio9execution6detail17any_executor_base16target_type_voidEv
libkea-cfgclient.so.51:_ZN5boost4asio9execution6detail17any_executor_base21blocking_execute_voidERKS3_NS0_6detail22executor_function_viewE
libkea-cfgclient.so.51:_ZN5boost4asio9execution6detail17any_executor_base8equal_exINS0_10io_context19basic_executor_typeISaIvELj0EEEEEbRKS3_SA_
libkea-cfgclient.so.51:_ZN5boost4asio9execution6detail17any_executor_base8equal_exINS0_10io_context19basic_executor_typeISaIvELj4EEEEEbRKS3_SA_
libkea-cfgclient.so.51:_ZN5boost4asio9execution6detail17any_executor_base8query_fnINS0_10io_context19basic_executor_typeISaIvELj0EEENS1_11prefer_onlyINS2_12relationship14continuation_tILi0EEEEEEEvPvPKvSG_
libkea-cfgclient.so.51:_ZN5boost4asio9execution6detail17any_executor_base8query_fnINS0_10io_context19basic_executor_typeISaIvELj0EEENS1_11prefer_onlyINS2_12relationship6fork_tILi0EEEEEEEvPvPKvSG_
libkea-cfgclient.so.51:_ZN5boost4asio9execution6detail17any_executor_base8query_fnINS0_10io_context19basic_executor_typeISaIvELj0EEENS1_11prefer_onlyINS2_16outstanding_work11untracked_tILi0EEEEEEEvPvPKvSG_
libkea-cfgclient.so.51:_ZN5boost4asio9execution6detail17any_executor_base8query_fnINS0_10io_context19basic_executor_typeISaIvELj0EEENS1_11prefer_onlyINS2_16outstanding_work9tracked_tILi0EEEEEEEvPvPKvSG_
libkea-cfgclient.so.51:_ZN5boost4asio9execution6detail17any_executor_base8query_fnINS0_10io_context19basic_executor_typeISaIvELj0EEENS1_11prefer_onlyINS2_8blocking10possibly_tILi0EEEEEEEvPvPKvSG_
libkea-cfgclient.so.51:_ZN5boost4asio9execution6detail17any_executor_base8query_fnINS0_10io_context19basic_executor_typeISaIvELj0EEENS1_12context_as_tIRNS0_17execution_contextEEEEEvPvPKvSF_
libkea-cfgclient.so.51:_ZN5boost4asio9execution6detail17any_executor_base8query_fnINS0_10io_context19basic_executor_typeISaIvELj0EEENS2_8blocking7never_tILi0EEEEEvPvPKvSE_
libkea-cfgclient.so.51:_ZN5boost4asio9execution6detail17any_executor_base8query_fnINS0_10io_context19basic_executor_typeISaIvELj4EEENS1_11prefer_onlyINS2_12relationship14continuation_tILi0EEEEEEEvPvPKvSG_
libkea-cfgclient.so.51:_ZN5boost4asio9execution6detail17any_executor_base8query_fnINS0_10io_context19basic_executor_typeISaIvELj4EEENS1_11prefer_onlyINS2_12relationship6fork_tILi0EEEEEEEvPvPKvSG_
libkea-cfgclient.so.51:_ZN5boost4asio9execution6detail17any_executor_base8query_fnINS0_10io_context19basic_executor_typeISaIvELj4EEENS1_11prefer_onlyINS2_16outstanding_work11untracked_tILi0EEEEEEEvPvPKvSG_
libkea-cfgclient.so.51:_ZN5boost4asio9execution6detail17any_executor_base8query_fnINS0_10io_context19basic_executor_typeISaIvELj4EEENS1_11prefer_onlyINS2_16outstanding_work9tracked_tILi0EEEEEEEvPvPKvSG_
libkea-cfgclient.so.51:_ZN5boost4asio9execution6detail17any_executor_base8query_fnINS0_10io_context19basic_executor_typeISaIvELj4EEENS1_11prefer_onlyINS2_8blocking10possibly_tILi0EEEEEEEvPvPKvSG_
libkea-cfgclient.so.51:_ZN5boost4asio9execution6detail17any_executor_base8query_fnINS0_10io_context19basic_executor_typeISaIvELj4EEENS1_12context_as_tIRNS0_17execution_contextEEEEEvPvPKvSF_
libkea-cfgclient.so.51:_ZN5boost4asio9execution6detail17any_executor_base8query_fnINS0_10io_context19basic_executor_typeISaIvELj4EEENS2_8blocking7never_tILi0EEEEEvPvPKvSE_
libkea-cfgclient.so.51:_ZN5boost4asio9execution6detail17any_executor_base8query_fnIvNS1_11prefer_onlyINS2_12relationship14continuation_tILi0EEEEEEEvPvPKvSC_
libkea-cfgclient.so.51:_ZN5boost4asio9execution6detail17any_executor_base8query_fnIvNS1_11prefer_onlyINS2_12relationship6fork_tILi0EEEEEEEvPvPKvSC_
libkea-cfgclient.so.51:_ZN5boost4asio9execution6detail17any_executor_base8query_fnIvNS1_11prefer_onlyINS2_16outstanding_work11untracked_tILi0EEEEEEEvPvPKvSC_
libkea-cfgclient.so.51:_ZN5boost4asio9execution6detail17any_executor_base8query_fnIvNS1_11prefer_onlyINS2_16outstanding_work9tracked_tILi0EEEEEEEvPvPKvSC_
libkea-cfgclient.so.51:_ZN5boost4asio9execution6detail17any_executor_base8query_fnIvNS1_11prefer_onlyINS2_8blocking10possibly_tILi0EEEEEEEvPvPKvSC_
libkea-cfgclient.so.51:_ZN5boost4asio9execution6detail17any_executor_base8query_fnIvNS1_12context_as_tIRNS0_17execution_contextEEEEEvPvPKvSB_
libkea-cfgclient.so.51:_ZN5boost4asio9execution6detail17any_executor_base8query_fnIvNS2_8blocking7never_tILi0EEEEEvPvPKvSA_
libkea-cfgclient.so.51:_ZN5boost4asio9execution6detail17any_executor_base9copy_voidERS3_RKS3_
libkea-cfgclient.so.51:_ZN5boost4asio9execution6detail17any_executor_base9move_voidERS3_S4_
libkea-cfgclient.so.51:_ZN5boost4asio9execution6detail17any_executor_base9prefer_fnINS1_12any_executorIJNS1_12context_as_tIRNS0_17execution_contextEEENS2_8blocking7never_tILi0EEENS1_11prefer_onlyINSA_10possibly_tILi0EEEEENSD_INS2_16outstanding_work9tracked_tILi0EEEEENSD_INSH_11untracked_tILi0EEEEENSD_INS2_12relationship6fork_tILi0EEEEENSD_INSO_14continuation_tILi0EEEEEEEENS0_10io_context19basic_executor_typeISaIvELj0EEES9_EET_PKvS12_
libkea-cfgclient.so.51:_ZN5boost4asio9execution6detail17any_executor_base9prefer_fnINS1_12any_executorIJNS1_12context_as_tIRNS0_17execution_contextEEENS2_8blocking7never_tILi0EEENS1_11prefer_onlyINSA_10possibly_tILi0EEEEENSD_INS2_16outstanding_work9tracked_tILi0EEEEENSD_INSH_11untracked_tILi0EEEEENSD_INS2_12relationship6fork_tILi0EEEEENSD_INSO_14continuation_tILi0EEEEEEEENS0_10io_context19basic_executor_typeISaIvELj0EEESC_EET_PKvS12_
libkea-cfgclient.so.51:_ZN5boost4asio9execution6detail17any_executor_base9prefer_fnINS1_12any_executorIJNS1_12context_as_tIRNS0_17execution_contextEEENS2_8blocking7never_tILi0EEENS1_11prefer_onlyINSA_10possibly_tILi0EEEEENSD_INS2_16outstanding_work9tracked_tILi0EEEEENSD_INSH_11untracked_tILi0EEEEENSD_INS2_12relationship6fork_tILi0EEEEENSD_INSO_14continuation_tILi0EEEEEEEENS0_10io_context19basic_executor_typeISaIvELj0EEESG_EET_PKvS12_
libkea-cfgclient.so.51:_ZN5boost4asio9execution6detail17any_executor_base9prefer_fnINS1_12any_executorIJNS1_12context_as_tIRNS0_17execution_contextEEENS2_8blocking7never_tILi0EEENS1_11prefer_onlyINSA_10possibly_tILi0EEEEENSD_INS2_16outstanding_work9tracked_tILi0EEEEENSD_INSH_11untracked_tILi0EEEEENSD_INS2_12relationship6fork_tILi0EEEEENSD_INSO_14continuation_tILi0EEEEEEEENS0_10io_context19basic_executor_typeISaIvELj0EEESK_EET_PKvS12_
libkea-cfgclient.so.51:_ZN5boost4asio9execution6detail17any_executor_base9prefer_fnINS1_12any_executorIJNS1_12context_as_tIRNS0_17execution_contextEEENS2_8blocking7never_tILi0EEENS1_11prefer_onlyINSA_10possibly_tILi0EEEEENSD_INS2_16outstanding_work9tracked_tILi0EEEEENSD_INSH_11untracked_tILi0EEEEENSD_INS2_12relationship6fork_tILi0EEEEENSD_INSO_14continuation_tILi0EEEEEEEENS0_10io_context19basic_executor_typeISaIvELj0EEESN_EET_PKvS12_
libkea-cfgclient.so.51:_ZN5boost4asio9execution6detail17any_executor_base9prefer_fnINS1_12any_executorIJNS1_12context_as_tIRNS0_17execution_contextEEENS2_8blocking7never_tILi0EEENS1_11prefer_onlyINSA_10possibly_tILi0EEEEENSD_INS2_16outstanding_work9tracked_tILi0EEEEENSD_INSH_11untracked_tILi0EEEEENSD_INS2_12relationship6fork_tILi0EEEEENSD_INSO_14continuation_tILi0EEEEEEEENS0_10io_context19basic_executor_typeISaIvELj0EEESR_EET_PKvS12_
libkea-cfgclient.so.51:_ZN5boost4asio9execution6detail17any_executor_base9prefer_fnINS1_12any_executorIJNS1_12context_as_tIRNS0_17execution_contextEEENS2_8blocking7never_tILi0EEENS1_11prefer_onlyINSA_10possibly_tILi0EEEEENSD_INS2_16outstanding_work9tracked_tILi0EEEEENSD_INSH_11untracked_tILi0EEEEENSD_INS2_12relationship6fork_tILi0EEEEENSD_INSO_14continuation_tILi0EEEEEEEENS0_10io_context19basic_executor_typeISaIvELj0EEESU_EET_PKvS12_
libkea-cfgclient.so.51:_ZN5boost4asio9execution6detail17any_executor_base9prefer_fnINS1_12any_executorIJNS1_12context_as_tIRNS0_17execution_contextEEENS2_8blocking7never_tILi0EEENS1_11prefer_onlyINSA_10possibly_tILi0EEEEENSD_INS2_16outstanding_work9tracked_tILi0EEEEENSD_INSH_11untracked_tILi0EEEEENSD_INS2_12relationship6fork_tILi0EEEEENSD_INSO_14continuation_tILi0EEEEEEEENS0_10io_context19basic_executor_typeISaIvELj4EEES9_EET_PKvS12_
libkea-cfgclient.so.51:_ZN5boost4asio9execution6detail17any_executor_base9prefer_fnINS1_12any_executorIJNS1_12context_as_tIRNS0_17execution_contextEEENS2_8blocking7never_tILi0EEENS1_11prefer_onlyINSA_10possibly_tILi0EEEEENSD_INS2_16outstanding_work9tracked_tILi0EEEEENSD_INSH_11untracked_tILi0EEEEENSD_INS2_12relationship6fork_tILi0EEEEENSD_INSO_14continuation_tILi0EEEEEEEENS0_10io_context19basic_executor_typeISaIvELj4EEESC_EET_PKvS12_
libkea-cfgclient.so.51:_ZN5boost4asio9execution6detail17any_executor_base9prefer_fnINS1_12any_executorIJNS1_12context_as_tIRNS0_17execution_contextEEENS2_8blocking7never_tILi0EEENS1_11prefer_onlyINSA_10possibly_tILi0EEEEENSD_INS2_16outstanding_work9tracked_tILi0EEEEENSD_INSH_11untracked_tILi0EEEEENSD_INS2_12relationship6fork_tILi0EEEEENSD_INSO_14continuation_tILi0EEEEEEEENS0_10io_context19basic_executor_typeISaIvELj4EEESG_EET_PKvS12_
libkea-cfgclient.so.51:_ZN5boost4asio9execution6detail17any_executor_base9prefer_fnINS1_12any_executorIJNS1_12context_as_tIRNS0_17execution_contextEEENS2_8blocking7never_tILi0EEENS1_11prefer_onlyINSA_10possibly_tILi0EEEEENSD_INS2_16outstanding_work9tracked_tILi0EEEEENSD_INSH_11untracked_tILi0EEEEENSD_INS2_12relationship6fork_tILi0EEEEENSD_INSO_14continuation_tILi0EEEEEEEENS0_10io_context19basic_executor_typeISaIvELj4EEESK_EET_PKvS12_
libkea-cfgclient.so.51:_ZN5boost4asio9execution6detail17any_executor_base9prefer_fnINS1_12any_executorIJNS1_12context_as_tIRNS0_17execution_contextEEENS2_8blocking7never_tILi0EEENS1_11prefer_onlyINSA_10possibly_tILi0EEEEENSD_INS2_16outstanding_work9tracked_tILi0EEEEENSD_INSH_11untracked_tILi0EEEEENSD_INS2_12relationship6fork_tILi0EEEEENSD_INSO_14continuation_tILi0EEEEEEEENS0_10io_context19basic_executor_typeISaIvELj4EEESN_EET_PKvS12_
libkea-cfgclient.so.51:_ZN5boost4asio9execution6detail17any_executor_base9prefer_fnINS1_12any_executorIJNS1_12context_as_tIRNS0_17execution_contextEEENS2_8blocking7never_tILi0EEENS1_11prefer_onlyINSA_10possibly_tILi0EEEEENSD_INS2_16outstanding_work9tracked_tILi0EEEEENSD_INSH_11untracked_tILi0EEEEENSD_INS2_12relationship6fork_tILi0EEEEENSD_INSO_14continuation_tILi0EEEEEEEENS0_10io_context19basic_executor_typeISaIvELj4EEESR_EET_PKvS12_
libkea-cfgclient.so.51:_ZN5boost4asio9execution6detail17any_executor_base9prefer_fnINS1_12any_executorIJNS1_12context_as_tIRNS0_17execution_contextEEENS2_8blocking7never_tILi0EEENS1_11prefer_onlyINSA_10possibly_tILi0EEEEENSD_INS2_16outstanding_work9tracked_tILi0EEEEENSD_INSH_11untracked_tILi0EEEEENSD_INS2_12relationship6fork_tILi0EEEEENSD_INSO_14continuation_tILi0EEEEEEEENS0_10io_context19basic_executor_typeISaIvELj4EEESU_EET_PKvS12_
libkea-cfgclient.so.51:_ZN5boost4asio9execution6detail17any_executor_base9prefer_fnINS1_12any_executorIJNS1_12context_as_tIRNS0_17execution_contextEEENS2_8blocking7never_tILi0EEENS1_11prefer_onlyINSA_10possibly_tILi0EEEEENSD_INS2_16outstanding_work9tracked_tILi0EEEEENSD_INSH_11untracked_tILi0EEEEENSD_INS2_12relationship6fork_tILi0EEEEENSD_INSO_14continuation_tILi0EEEEEEEEvS9_EET_PKvSY_
libkea-cfgclient.so.51:_ZN5boost4asio9execution6detail17any_executor_base9prefer_fnINS1_12any_executorIJNS1_12context_as_tIRNS0_17execution_contextEEENS2_8blocking7never_tILi0EEENS1_11prefer_onlyINSA_10possibly_tILi0EEEEENSD_INS2_16outstanding_work9tracked_tILi0EEEEENSD_INSH_11untracked_tILi0EEEEENSD_INS2_12relationship6fork_tILi0EEEEENSD_INSO_14continuation_tILi0EEEEEEEEvSC_EET_PKvSY_
libkea-cfgclient.so.51:_ZN5boost4asio9execution6detail17any_executor_base9prefer_fnINS1_12any_executorIJNS1_12context_as_tIRNS0_17execution_contextEEENS2_8blocking7never_tILi0EEENS1_11prefer_onlyINSA_10possibly_tILi0EEEEENSD_INS2_16outstanding_work9tracked_tILi0EEEEENSD_INSH_11untracked_tILi0EEEEENSD_INS2_12relationship6fork_tILi0EEEEENSD_INSO_14continuation_tILi0EEEEEEEEvSG_EET_PKvSY_
libkea-cfgclient.so.51:_ZN5boost4asio9execution6detail17any_executor_base9prefer_fnINS1_12any_executorIJNS1_12context_as_tIRNS0_17execution_contextEEENS2_8blocking7never_tILi0EEENS1_11prefer_onlyINSA_10possibly_tILi0EEEEENSD_INS2_16outstanding_work9tracked_tILi0EEEEENSD_INSH_11untracked_tILi0EEEEENSD_INS2_12relationship6fork_tILi0EEEEENSD_INSO_14continuation_tILi0EEEEEEEEvSK_EET_PKvSY_
libkea-cfgclient.so.51:_ZN5boost4asio9execution6detail17any_executor_base9prefer_fnINS1_12any_executorIJNS1_12context_as_tIRNS0_17execution_contextEEENS2_8blocking7never_tILi0EEENS1_11prefer_onlyINSA_10possibly_tILi0EEEEENSD_INS2_16outstanding_work9tracked_tILi0EEEEENSD_INSH_11untracked_tILi0EEEEENSD_INS2_12relationship6fork_tILi0EEEEENSD_INSO_14continuation_tILi0EEEEEEEEvSN_EET_PKvSY_
libkea-cfgclient.so.51:_ZN5boost4asio9execution6detail17any_executor_base9prefer_fnINS1_12any_executorIJNS1_12context_as_tIRNS0_17execution_contextEEENS2_8blocking7never_tILi0EEENS1_11prefer_onlyINSA_10possibly_tILi0EEEEENSD_INS2_16outstanding_work9tracked_tILi0EEEEENSD_INSH_11untracked_tILi0EEEEENSD_INS2_12relationship6fork_tILi0EEEEENSD_INSO_14continuation_tILi0EEEEEEEEvSR_EET_PKvSY_
libkea-cfgclient.so.51:_ZN5boost4asio9execution6detail17any_executor_base9prefer_fnINS1_12any_executorIJNS1_12context_as_tIRNS0_17execution_contextEEENS2_8blocking7never_tILi0EEENS1_11prefer_onlyINSA_10possibly_tILi0EEEEENSD_INS2_16outstanding_work9tracked_tILi0EEEEENSD_INSH_11untracked_tILi0EEEEENSD_INS2_12relationship6fork_tILi0EEEEENSD_INSO_14continuation_tILi0EEEEEEEEvSU_EET_PKvSY_
libkea-cfgclient.so.51:_ZNK3isc6config18CmdResponseCreator20createNewHttpRequestEv
libkea-cfgclient.so.51:_ZNK3isc6config18CmdResponseCreator23createStockHttpResponseERKN5boost10shared_ptrINS_4http11HttpRequestEEERKNS4_14HttpStatusCodeE
libkea-cfgclient.so.51:_ZNK3isc6config18CmdResponseCreator31createStockHttpResponseInternalERKN5boost10shared_ptrINS_4http11HttpRequestEEERKNS4_14HttpStatusCodeE
libkea-cfgclient.so.51:_ZNSt15__exception_ptr12__dest_thunkIN5boost4asio19multiple_exceptionsEEEvPv
libkea-cfgclient.so.51:_ZNSt17_Function_handlerIFN5boost10shared_ptrIKN3isc4data7ElementEEERKNSt7__cxx1112basic_stringIcSt11char_traitsIcESaIcEEERKS6_ESt5_BindIFMNS2_6config14BaseCommandMgrEFS6_SE_SG_EPSK_St12_PlaceholderILi1EESO_ILi2EEEEE10_M_managerERSt9_Any_dataRKSU_St18_Manager_operation
libkea-cfgclient.so.51:_ZNSt17_Function_handlerIFN5boost10shared_ptrIKN3isc4data7ElementEEERKNSt7__cxx1112basic_stringIcSt11char_traitsIcESaIcEEERKS6_ESt5_BindIFMNS2_6config14BaseCommandMgrEFS6_SE_SG_EPSK_St12_PlaceholderILi1EESO_ILi2EEEEE9_M_invokeERKSt9_Any_dataSE_SG_
libkea-cfgclient.so.51:_ZNSt17_Function_handlerIFvvESt5_BindIFMN3isc6config20ClientConnectionImplEFvSt8functionIFvRKN5boost6system10error_codeERKNS6_10shared_ptrIKNS3_8JSONFeedEEEEEEPS4_SI_EEE10_M_managerERSt9_Any_dataRKSP_St18_Manager_operation
libkea-cfgclient.so.51:_ZNSt17_Function_handlerIFvvESt5_BindIFMN3isc6config20ClientConnectionImplEFvSt8functionIFvRKN5boost6system10error_codeERKNS6_10shared_ptrIKNS3_8JSONFeedEEEEEEPS4_SI_EEE9_M_invokeERKSt9_Any_data
libkea-cfgclient.so.51:boost_asio_detail_posix_thread_function
libkea-cryptolink.so.38:_ZN3isc10cryptolink10CryptoLink10createHMACEPKvmNS0_13HashAlgorithmE
libkea-cryptolink.so.38:_ZN3isc10cryptolink10CryptoLink10createHashENS0_13HashAlgorithmE
libkea-cryptolink.so.38:_ZN3isc10cryptolink10CryptoLink10getVersionB5cxx11Ev
libkea-cryptolink.so.38:_ZN3isc10cryptolink10CryptoLink10initializeERS1_
libkea-cryptolink.so.38:_ZN3isc10cryptolink10CryptoLink13getCryptoLinkEv
libkea-cryptolink.so.38:_ZN3isc10cryptolink10CryptoLink6getRNGEv
libkea-cryptolink.so.38:_ZN3isc10cryptolink10CryptoLinkD1Ev
libkea-cryptolink.so.38:_ZN3isc10cryptolink10CryptoLinkD2Ev
libkea-cryptolink.so.38:_ZN3isc10cryptolink10deleteHMACEPNS0_4HMACE
libkea-cryptolink.so.38:_ZN3isc10cryptolink10deleteHashEPNS0_4HashE
libkea-cryptolink.so.38:_ZN3isc10cryptolink10verifyHMACEPKvmS2_mNS0_13HashAlgorithmES2_m
libkea-cryptolink.so.38:_ZN3isc10cryptolink3RNGC1Ev
libkea-cryptolink.so.38:_ZN3isc10cryptolink3RNGC2Ev
libkea-cryptolink.so.38:_ZN3isc10cryptolink3RNGD0Ev
libkea-cryptolink.so.38:_ZN3isc10cryptolink3RNGD1Ev
libkea-cryptolink.so.38:_ZN3isc10cryptolink3RNGD2Ev
libkea-cryptolink.so.38:_ZN3isc10cryptolink4HMAC4signEPvm
libkea-cryptolink.so.38:_ZN3isc10cryptolink4HMAC4signERNS_4util12OutputBufferEm
libkea-cryptolink.so.38:_ZN3isc10cryptolink4HMAC4signEm
libkea-cryptolink.so.38:_ZN3isc10cryptolink4HMAC6updateEPKvm
libkea-cryptolink.so.38:_ZN3isc10cryptolink4HMAC6verifyEPKvm
libkea-cryptolink.so.38:_ZN3isc10cryptolink4HMACC1EPKvmNS0_13HashAlgorithmE
libkea-cryptolink.so.38:_ZN3isc10cryptolink4HMACC2EPKvmNS0_13HashAlgorithmE
libkea-cryptolink.so.38:_ZN3isc10cryptolink4HMACD1Ev
libkea-cryptolink.so.38:_ZN3isc10cryptolink4HMACD2Ev
libkea-cryptolink.so.38:_ZN3isc10cryptolink4Hash5finalEPvm
libkea-cryptolink.so.38:_ZN3isc10cryptolink4Hash5finalERNS_4util12OutputBufferEm
libkea-cryptolink.so.38:_ZN3isc10cryptolink4Hash5finalEm
libkea-cryptolink.so.38:_ZN3isc10cryptolink4Hash6updateEPKvm
libkea-cryptolink.so.38:_ZN3isc10cryptolink4HashC1ENS0_13HashAlgorithmE
libkea-cryptolink.so.38:_ZN3isc10cryptolink4HashC2ENS0_13HashAlgorithmE
libkea-cryptolink.so.38:_ZN3isc10cryptolink4HashD1Ev
libkea-cryptolink.so.38:_ZN3isc10cryptolink4HashD2Ev
libkea-cryptolink.so.38:_ZN3isc10cryptolink4ossl16getHashAlgorithmENS0_13HashAlgorithmE
libkea-cryptolink.so.38:_ZN3isc10cryptolink6digestEPKvmNS0_13HashAlgorithmERNS_4util12OutputBufferEm
libkea-cryptolink.so.38:_ZN3isc10cryptolink6randomEm
libkea-cryptolink.so.38:_ZN3isc10cryptolink8signHMACEPKvmS2_mNS0_13HashAlgorithmERNS_4util12OutputBufferEm
libkea-cryptolink.so.38:_ZNK3isc10cryptolink4HMAC15getOutputLengthEv
libkea-cryptolink.so.38:_ZNK3isc10cryptolink4HMAC16getHashAlgorithmEv
libkea-cryptolink.so.38:_ZNK3isc10cryptolink4Hash15getOutputLengthEv
libkea-cryptolink.so.38:_ZNK3isc10cryptolink4Hash16getHashAlgorithmEv
libkea-d2srv.so.30:_ZN3isc2d210DdnsDomainC1ERKNSt7__cxx1112basic_stringIcSt11char_traitsIcESaIcEEEN5boost10shared_ptrISt6vectorINSB_INS0_13DnsServerInfoEEESaISE_EEEES9_
libkea-d2srv.so.30:_ZN3isc2d210DdnsDomainC2ERKNSt7__cxx1112basic_stringIcSt11char_traitsIcESaIcEEEN5boost10shared_ptrISt6vectorINSB_INS0_13DnsServerInfoEEESaISE_EEEES9_
libkea-d2srv.so.30:_ZN3isc2d210DdnsDomainD0Ev
libkea-d2srv.so.30:_ZN3isc2d210DdnsDomainD1Ev
libkea-d2srv.so.30:_ZN3isc2d210DdnsDomainD2Ev
libkea-d2srv.so.30:_ZN3isc2d211TSIGKeyInfo21stringToAlgorithmNameERKNSt7__cxx1112basic_stringIcSt11char_traitsIcESaIcEEE
libkea-d2srv.so.30:_ZN3isc2d211TSIGKeyInfo9remakeKeyEv
libkea-d2srv.so.30:_ZN3isc2d211TSIGKeyInfoC1ERKNSt7__cxx1112basic_stringIcSt11char_traitsIcESaIcEEES9_S9_j
libkea-d2srv.so.30:_ZN3isc2d211TSIGKeyInfoC2ERKNSt7__cxx1112basic_stringIcSt11char_traitsIcESaIcEEES9_S9_j
libkea-d2srv.so.30:_ZN3isc2d211TSIGKeyInfoD0Ev
libkea-d2srv.so.30:_ZN3isc2d211TSIGKeyInfoD1Ev
libkea-d2srv.so.30:_ZN3isc2d211TSIGKeyInfoD2Ev
libkea-d2srv.so.30:_ZN3isc2d212D2CfgContextC1ERKS1_
libkea-d2srv.so.30:_ZN3isc2d212D2CfgContextC1Ev
libkea-d2srv.so.30:_ZN3isc2d212D2CfgContextC2ERKS1_
libkea-d2srv.so.30:_ZN3isc2d212D2CfgContextC2Ev
libkea-d2srv.so.30:_ZN3isc2d212D2CfgContextD0Ev
libkea-d2srv.so.30:_ZN3isc2d212D2CfgContextD1Ev
libkea-d2srv.so.30:_ZN3isc2d212D2CfgContextD2Ev
libkea-d2srv.so.30:_ZN3isc2d213DNSClientImpl8doUpdateERNS_8asiolink9IOServiceERKNS2_9IOAddressEtRNS0_15D2UpdateMessageEjRKN5boost10shared_ptrINS0_9D2TsigKeyEEE
libkea-d2srv.so.30:_ZN3isc2d213DNSClientImpl9getStatusENS_7asiodns7IOFetch6ResultE
libkea-d2srv.so.30:_ZN3isc2d213DNSClientImpl9incrStatsERKNSt7__cxx1112basic_stringIcSt11char_traitsIcESaIcEEEb
libkea-d2srv.so.30:_ZN3isc2d213DNSClientImplC1ERN5boost10shared_ptrINS0_15D2UpdateMessageEEEPNS0_9DNSClient8CallbackENS7_8ProtocolE
libkea-d2srv.so.30:_ZN3isc2d213DNSClientImplC2ERN5boost10shared_ptrINS0_15D2UpdateMessageEEEPNS0_9DNSClient8CallbackENS7_8ProtocolE
libkea-d2srv.so.30:_ZN3isc2d213DNSClientImplD0Ev
libkea-d2srv.so.30:_ZN3isc2d213DNSClientImplD1Ev
libkea-d2srv.so.30:_ZN3isc2d213DNSClientImplD2Ev
libkea-d2srv.so.30:_ZN3isc2d213DNSClientImplclENS_7asiodns7IOFetch6ResultE
libkea-d2srv.so.30:_ZN3isc2d213DnsServerInfoC1ERKNSt7__cxx1112basic_stringIcSt11char_traitsIcESaIcEEENS_8asiolink9IOAddressEjbRKN5boost10shared_ptrINS0_11TSIGKeyInfoEEEb
libkea-d2srv.so.30:_ZN3isc2d213DnsServerInfoC2ERKNSt7__cxx1112basic_stringIcSt11char_traitsIcESaIcEEENS_8asiolink9IOAddressEjbRKN5boost10shared_ptrINS0_11TSIGKeyInfoEEEb
libkea-d2srv.so.30:_ZN3isc2d213DnsServerInfoD0Ev
libkea-d2srv.so.30:_ZN3isc2d213DnsServerInfoD1Ev
libkea-d2srv.so.30:_ZN3isc2d213DnsServerInfoD2Ev
libkea-d2srv.so.30:_ZN3isc2d214D2SimpleParser14setAllDefaultsEN5boost10shared_ptrINS_4data7ElementEEE
libkea-d2srv.so.30:_ZN3isc2d214D2SimpleParser18setManagerDefaultsEN5boost10shared_ptrINS_4data7ElementEEERKNSt7__cxx1112basic_stringIcSt11char_traitsIcESaIcEEERKSt6vectorINS4_13SimpleDefaultESaISG_EE
libkea-d2srv.so.30:_ZN3isc2d214D2SimpleParser21setDdnsDomainDefaultsEN5boost10shared_ptrINS_4data7ElementEEERKSt6vectorINS4_13SimpleDefaultESaIS8_EE
libkea-d2srv.so.30:_ZN3isc2d214D2SimpleParser5parseERKN5boost10shared_ptrINS0_12D2CfgContextEEERKNS3_IKNS_4data7ElementEEEb
libkea-d2srv.so.30:_ZN3isc2d215D2UpdateMessage16ddnsToDnsSectionENS1_16UpdateMsgSectionE
libkea-d2srv.so.30:_ZN3isc2d215D2UpdateMessage5setIdEt
libkea-d2srv.so.30:_ZN3isc2d215D2UpdateMessage6toWireERNS_3dns23AbstractMessageRendererEPNS2_11TSIGContextE
libkea-d2srv.so.30:_ZN3isc2d215D2UpdateMessage7setZoneERKNS_3dns4NameERKNS2_7RRClassE
libkea-d2srv.so.30:_ZN3isc2d215D2UpdateMessage8addRRsetENS1_16UpdateMsgSectionERKN5boost10shared_ptrINS_3dns13AbstractRRsetEEE
libkea-d2srv.so.30:_ZN3isc2d215D2UpdateMessage8fromWireEPKvmPNS_3dns11TSIGContextE
libkea-d2srv.so.30:_ZN3isc2d215D2UpdateMessage8setRcodeERKNS_3dns5RcodeE
libkea-d2srv.so.30:_ZN3isc2d215D2UpdateMessageC1ENS1_9DirectionE
libkea-d2srv.so.30:_ZN3isc2d215D2UpdateMessageC2ENS1_9DirectionE
libkea-d2srv.so.30:_ZN3isc2d216DdnsDomainParser5parseEN5boost10shared_ptrIKNS_4data7ElementEEENS3_ISt3mapINSt7__cxx1112basic_stringIcSt11char_traitsIcESaIcEEENS3_INS0_11TSIGKeyInfoEEESt4lessISE_ESaISt4pairIKSE_SG_EEEEE
libkea-d2srv.so.30:_ZN3isc2d217DdnsDomainListMgr10setDomainsEN5boost10shared_ptrISt3mapINSt7__cxx1112basic_stringIcSt11char_traitsIcESaIcEEENS3_INS0_10DdnsDomainEEESt4lessISA_ESaISt4pairIKSA_SC_EEEEE
libkea-d2srv.so.30:_ZN3isc2d217DdnsDomainListMgr11matchDomainERKNSt7__cxx1112basic_stringIcSt11char_traitsIcESaIcEEERN5boost10shared_ptrINS0_10DdnsDomainEEE
libkea-d2srv.so.30:_ZN3isc2d217DdnsDomainListMgrC1ERKNSt7__cxx1112basic_stringIcSt11char_traitsIcESaIcEEE
libkea-d2srv.so.30:_ZN3isc2d217DdnsDomainListMgrC2ERKNSt7__cxx1112basic_stringIcSt11char_traitsIcESaIcEEE
libkea-d2srv.so.30:_ZN3isc2d217DdnsDomainListMgrD0Ev
libkea-d2srv.so.30:_ZN3isc2d217DdnsDomainListMgrD1Ev
libkea-d2srv.so.30:_ZN3isc2d217DdnsDomainListMgrD2Ev
libkea-d2srv.so.30:_ZN3isc2d217TSIGKeyInfoParser5parseEN5boost10shared_ptrIKNS_4data7ElementEEE
libkea-d2srv.so.30:_ZN3isc2d219DnsServerInfoParser5parseEN5boost10shared_ptrIKNS_4data7ElementEEES7_NS3_ISt3mapINSt7__cxx1112basic_stringIcSt11char_traitsIcESaIcEEENS3_INS0_11TSIGKeyInfoEEESt4lessISE_ESaISt4pairIKSE_SG_EEEEE
libkea-d2srv.so.30:_ZN3isc2d220DdnsDomainListParser5parseEN5boost10shared_ptrIKNS_4data7ElementEEENS3_ISt3mapINSt7__cxx1112basic_stringIcSt11char_traitsIcESaIcEEENS3_INS0_11TSIGKeyInfoEEESt4lessISE_ESaISt4pairIKSE_SG_EEEEE
libkea-d2srv.so.30:_ZN3isc2d221NameChangeTransaction10sendUpdateERKNSt7__cxx1112basic_stringIcSt11char_traitsIcESaIcEEE
libkea-d2srv.so.30:_ZN3isc2d221NameChangeTransaction11addPtrRdataERN5boost10shared_ptrINS_3dns13AbstractRRsetEEE
libkea-d2srv.so.30:_ZN3isc2d221NameChangeTransaction12defineEventsEv
libkea-d2srv.so.30:_ZN3isc2d221NameChangeTransaction12defineStatesEv
libkea-d2srv.so.30:_ZN3isc2d221NameChangeTransaction12setNcrStatusERKNS_9dhcp_ddns16NameChangeStatusE
libkea-d2srv.so.30:_ZN3isc2d221NameChangeTransaction12verifyEventsEv
libkea-d2srv.so.30:_ZN3isc2d221NameChangeTransaction12verifyStatesEv
libkea-d2srv.so.30:_ZN3isc2d221NameChangeTransaction13addDhcidRdataERN5boost10shared_ptrINS_3dns13AbstractRRsetEEE
libkea-d2srv.so.30:_ZN3isc2d221NameChangeTransaction13selectTSIGKeyEv
libkea-d2srv.so.30:_ZN3isc2d221NameChangeTransaction14onModelFailureERKNSt7__cxx1112basic_stringIcSt11char_traitsIcESaIcEEE
libkea-d2srv.so.30:_ZN3isc2d221NameChangeTransaction14prepNewRequestEN5boost10shared_ptrINS0_10DdnsDomainEEE
libkea-d2srv.so.30:_ZN3isc2d221NameChangeTransaction15retryTransitionEi
libkea-d2srv.so.30:_ZN3isc2d221NameChangeTransaction16getForwardDomainEv
libkea-d2srv.so.30:_ZN3isc2d221NameChangeTransaction16getReverseDomainEv
libkea-d2srv.so.30:_ZN3isc2d221NameChangeTransaction16selectNextServerEv
libkea-d2srv.so.30:_ZN3isc2d221NameChangeTransaction16startTransactionEv
libkea-d2srv.so.30:_ZN3isc2d221NameChangeTransaction17setUpdateAttemptsEm
libkea-d2srv.so.30:_ZN3isc2d221NameChangeTransaction18setDnsUpdateStatusERKNS0_9DNSClient6StatusE
libkea-d2srv.so.30:_ZN3isc2d221NameChangeTransaction19clearUpdateAttemptsEv
libkea-d2srv.so.30:_ZN3isc2d221NameChangeTransaction19initServerSelectionERKN5boost10shared_ptrINS0_10DdnsDomainEEE
libkea-d2srv.so.30:_ZN3isc2d221NameChangeTransaction19setDnsUpdateRequestERN5boost10shared_ptrINS0_15D2UpdateMessageEEE
libkea-d2srv.so.30:_ZN3isc2d221NameChangeTransaction20addLeaseAddressRdataERN5boost10shared_ptrINS_3dns13AbstractRRsetEEE
libkea-d2srv.so.30:_ZN3isc2d221NameChangeTransaction20setDnsUpdateResponseERN5boost10shared_ptrINS0_15D2UpdateMessageEEE
libkea-d2srv.so.30:_ZN3isc2d221NameChangeTransaction21clearDnsUpdateRequestEv
libkea-d2srv.so.30:_ZN3isc2d221NameChangeTransaction22clearDnsUpdateResponseEv
libkea-d2srv.so.30:_ZN3isc2d221NameChangeTransaction25setForwardChangeCompletedEb
libkea-d2srv.so.30:_ZN3isc2d221NameChangeTransaction25setReverseChangeCompletedEb
libkea-d2srv.so.30:_ZN3isc2d221NameChangeTransactionC1ERN5boost10shared_ptrINS_8asiolink9IOServiceEEERNS3_INS_9dhcp_ddns17NameChangeRequestEEERNS3_INS0_10DdnsDomainEEESE_RNS3_INS0_8D2CfgMgrEEE
libkea-d2srv.so.30:_ZN3isc2d221NameChangeTransactionC2ERN5boost10shared_ptrINS_8asiolink9IOServiceEEERNS3_INS_9dhcp_ddns17NameChangeRequestEEERNS3_INS0_10DdnsDomainEEESE_RNS3_INS0_8D2CfgMgrEEE
libkea-d2srv.so.30:_ZN3isc2d221NameChangeTransactionD0Ev
libkea-d2srv.so.30:_ZN3isc2d221NameChangeTransactionD1Ev
libkea-d2srv.so.30:_ZN3isc2d221NameChangeTransactionD2Ev
libkea-d2srv.so.30:_ZN3isc2d221NameChangeTransactionclENS0_9DNSClient6StatusE
libkea-d2srv.so.30:_ZN3isc2d221TSIGKeyInfoListParser5parseB5cxx11EN5boost10shared_ptrIKNS_4data7ElementEEE
libkea-d2srv.so.30:_ZN3isc2d223DdnsDomainListMgrParser5parseEN5boost10shared_ptrIKNS_4data7ElementEEERKNSt7__cxx1112basic_stringIcSt11char_traitsIcESaIcEEENS3_ISt3mapISD_NS3_INS0_11TSIGKeyInfoEEESt4lessISD_ESaISt4pairISE_SI_EEEEE
libkea-d2srv.so.30:_ZN3isc2d223DnsServerInfoListParser5parseEN5boost10shared_ptrIKNS_4data7ElementEEES7_NS3_ISt3mapINSt7__cxx1112basic_stringIcSt11char_traitsIcESaIcEEENS3_INS0_11TSIGKeyInfoEEESt4lessISE_ESaISt4pairIKSE_SG_EEEEE
libkea-d2srv.so.30:_ZN3isc2d26D2ZoneC1ERKNS_3dns4NameERKNS2_7RRClassE
libkea-d2srv.so.30:_ZN3isc2d26D2ZoneC2ERKNS_3dns4NameERKNS2_7RRClassE
libkea-d2srv.so.30:_ZN3isc2d27D2Stats4initEv
libkea-d2srv.so.30:_ZN3isc2d28D2CfgMgr11getD2ParamsEv
libkea-d2srv.so.30:_ZN3isc2d28D2CfgMgr12matchForwardERKNSt7__cxx1112basic_stringIcSt11char_traitsIcESaIcEEERN5boost10shared_ptrINS0_10DdnsDomainEEE
libkea-d2srv.so.30:_ZN3isc2d28D2CfgMgr12matchReverseERKNSt7__cxx1112basic_stringIcSt11char_traitsIcESaIcEEERN5boost10shared_ptrINS0_10DdnsDomainEEE
libkea-d2srv.so.30:_ZN3isc2d28D2CfgMgr14setCfgDefaultsEN5boost10shared_ptrINS_4data7ElementEEE
libkea-d2srv.so.30:_ZN3isc2d28D2CfgMgr16createNewContextEv
libkea-d2srv.so.30:_ZN3isc2d28D2CfgMgr16getConfigSummaryB5cxx11Ej
libkea-d2srv.so.30:_ZN3isc2d28D2CfgMgr16reverseIpAddressERKNSt7__cxx1112basic_stringIcSt11char_traitsIcESaIcEEE
libkea-d2srv.so.30:_ZN3isc2d28D2CfgMgr16reverseV4AddressB5cxx11ERKNS_8asiolink9IOAddressE
libkea-d2srv.so.30:_ZN3isc2d28D2CfgMgr16reverseV6AddressB5cxx11ERKNS_8asiolink9IOAddressE
libkea-d2srv.so.30:_ZN3isc2d28D2CfgMgr20getControlSocketInfoEv
libkea-d2srv.so.30:_ZN3isc2d28D2CfgMgr21forwardUpdatesEnabledEv
libkea-d2srv.so.30:_ZN3isc2d28D2CfgMgr21reverseUpdatesEnabledEv
libkea-d2srv.so.30:_ZN3isc2d28D2CfgMgr5parseEN5boost10shared_ptrIKNS_4data7ElementEEEb
libkea-d2srv.so.30:_ZN3isc2d28D2CfgMgrC1Ev
libkea-d2srv.so.30:_ZN3isc2d28D2CfgMgrC2Ev
libkea-d2srv.so.30:_ZN3isc2d28D2CfgMgrD0Ev
libkea-d2srv.so.30:_ZN3isc2d28D2CfgMgrD1Ev
libkea-d2srv.so.30:_ZN3isc2d28D2CfgMgrD2Ev
libkea-d2srv.so.30:_ZN3isc2d28D2Params16validateContentsEv
libkea-d2srv.so.30:_ZN3isc2d28D2ParamsC1ERKNS_8asiolink9IOAddressEmmRKNS_9dhcp_ddns18NameChangeProtocolERKNS6_16NameChangeFormatE
libkea-d2srv.so.30:_ZN3isc2d28D2ParamsC1Ev
libkea-d2srv.so.30:_ZN3isc2d28D2ParamsC2ERKNS_8asiolink9IOAddressEmmRKNS_9dhcp_ddns18NameChangeProtocolERKNS6_16NameChangeFormatE
libkea-d2srv.so.30:_ZN3isc2d28D2ParamsC2Ev
libkea-d2srv.so.30:_ZN3isc2d28D2ParamsD0Ev
libkea-d2srv.so.30:_ZN3isc2d28D2ParamsD1Ev
libkea-d2srv.so.30:_ZN3isc2d28D2ParamsD2Ev
libkea-d2srv.so.30:_ZN3isc2d29D2TsigKey10resetStatsEv
libkea-d2srv.so.30:_ZN3isc2d29D2TsigKey11removeStatsEv
libkea-d2srv.so.30:_ZN3isc2d29D2TsigKey13createContextEv
libkea-d2srv.so.30:_ZN3isc2d29D2TsigKey9initStatsEv
libkea-d2srv.so.30:_ZN3isc2d29D2TsigKeyC1ERKNS_3dns4NameES5_PKvmm
libkea-d2srv.so.30:_ZN3isc2d29D2TsigKeyC1ERKNSt7__cxx1112basic_stringIcSt11char_traitsIcESaIcEEE
libkea-d2srv.so.30:_ZN3isc2d29D2TsigKeyC2ERKNS_3dns4NameES5_PKvmm
libkea-d2srv.so.30:_ZN3isc2d29D2TsigKeyC2ERKNSt7__cxx1112basic_stringIcSt11char_traitsIcESaIcEEE
libkea-d2srv.so.30:_ZN3isc2d29D2TsigKeyD0Ev
libkea-d2srv.so.30:_ZN3isc2d29D2TsigKeyD1Ev
libkea-d2srv.so.30:_ZN3isc2d29D2TsigKeyD2Ev
libkea-d2srv.so.30:_ZN3isc2d29DNSClient13getMaxTimeoutEv
libkea-d2srv.so.30:_ZN3isc2d29DNSClient8doUpdateERNS_8asiolink9IOServiceERKNS2_9IOAddressEtRNS0_15D2UpdateMessageEjRKN5boost10shared_ptrINS0_9D2TsigKeyEEE
libkea-d2srv.so.30:_ZN3isc2d29DNSClientC1ERN5boost10shared_ptrINS0_15D2UpdateMessageEEEPNS1_8CallbackENS1_8ProtocolE
libkea-d2srv.so.30:_ZN3isc2d29DNSClientC2ERN5boost10shared_ptrINS0_15D2UpdateMessageEEEPNS1_8CallbackENS1_8ProtocolE
libkea-d2srv.so.30:_ZN3isc2d29DNSClientD1Ev
libkea-d2srv.so.30:_ZN3isc2d29DNSClientD2Ev
libkea-d2srv.so.30:_ZN3isc2d2lsERSoRKNS0_13DnsServerInfoE
libkea-d2srv.so.30:_ZN3isc2d2lsERSoRKNS0_6D2ZoneE
libkea-d2srv.so.30:_ZN3isc2d2lsERSoRKNS0_8D2ParamsE
libkea-d2srv.so.30:_ZNK3isc2d210DdnsDomain9toElementEv
libkea-d2srv.so.30:_ZNK3isc2d211TSIGKeyInfo9toElementEv
libkea-d2srv.so.30:_ZNK3isc2d212D2CfgContext9toElementEv
libkea-d2srv.so.30:_ZNK3isc2d213DnsServerInfo10getKeyNameB5cxx11Ev
libkea-d2srv.so.30:_ZNK3isc2d213DnsServerInfo6toTextB5cxx11Ev
libkea-d2srv.so.30:_ZNK3isc2d213DnsServerInfo9toElementEv
libkea-d2srv.so.30:_ZNK3isc2d215D2UpdateMessage10endSectionENS1_16UpdateMsgSectionE
libkea-d2srv.so.30:_ZNK3isc2d215D2UpdateMessage10getRRCountENS1_16UpdateMsgSectionE
libkea-d2srv.so.30:_ZNK3isc2d215D2UpdateMessage12beginSectionENS1_16UpdateMsgSectionE
libkea-d2srv.so.30:_ZNK3isc2d215D2UpdateMessage16validateResponseEv
libkea-d2srv.so.30:_ZNK3isc2d215D2UpdateMessage5getIdEv
libkea-d2srv.so.30:_ZNK3isc2d215D2UpdateMessage7getZoneEv
libkea-d2srv.so.30:_ZNK3isc2d215D2UpdateMessage8getRcodeEv
libkea-d2srv.so.30:_ZNK3isc2d215D2UpdateMessage9getQRFlagEv
libkea-d2srv.so.30:_ZNK3isc2d217DdnsDomainListMgr9toElementEv
libkea-d2srv.so.30:_ZNK3isc2d221NameChangeTransaction12getDNSClientEv
libkea-d2srv.so.30:_ZNK3isc2d221NameChangeTransaction12getNcrStatusEv
libkea-d2srv.so.30:_ZNK3isc2d221NameChangeTransaction12getRequestIdB5cxx11Ev
libkea-d2srv.so.30:_ZNK3isc2d221NameChangeTransaction14responseStringB5cxx11Ev
libkea-d2srv.so.30:_ZNK3isc2d221NameChangeTransaction16getAddressRRTypeEv
libkea-d2srv.so.30:_ZNK3isc2d221NameChangeTransaction16getCurrentServerEv
libkea-d2srv.so.30:_ZNK3isc2d221NameChangeTransaction17getTransactionKeyEv
libkea-d2srv.so.30:_ZNK3isc2d221NameChangeTransaction17getUpdateAttemptsEv
libkea-d2srv.so.30:_ZNK3isc2d221NameChangeTransaction18getDnsUpdateStatusEv
libkea-d2srv.so.30:_ZNK3isc2d221NameChangeTransaction19getDnsUpdateRequestEv
libkea-d2srv.so.30:_ZNK3isc2d221NameChangeTransaction20getDnsUpdateResponseEv
libkea-d2srv.so.30:_ZNK3isc2d221NameChangeTransaction24transactionOutcomeStringB5cxx11Ev
libkea-d2srv.so.30:_ZNK3isc2d221NameChangeTransaction25getForwardChangeCompletedEv
libkea-d2srv.so.30:_ZNK3isc2d221NameChangeTransaction25getReverseChangeCompletedEv
libkea-d2srv.so.30:_ZNK3isc2d221NameChangeTransaction6getNcrEv
libkea-d2srv.so.30:_ZNK3isc2d26D2Zone6toTextB5cxx11Ev
libkea-d2srv.so.30:_ZNK3isc2d28D2CfgMgr17jsonPathsToRedactB5cxx11Ev
libkea-d2srv.so.30:_ZNK3isc2d28D2Params16getConfigSummaryB5cxx11Ev
libkea-d2srv.so.30:_ZNK3isc2d28D2Params6toTextB5cxx11Ev
libkea-d2srv.so.30:_ZNK3isc2d28D2ParamseqERKS1_
libkea-d2srv.so.30:_ZNK3isc2d28D2ParamsneERKS1_
libkea-d2srv.so.30:_ZNSt17_Function_handlerIFvvEN3isc7asiodns7IOFetchEE10_M_managerERSt9_Any_dataRKS5_St18_Manager_operation
libkea-d2srv.so.30:_ZNSt17_Function_handlerIFvvEN3isc7asiodns7IOFetchEE9_M_invokeERKSt9_Any_data
libkea-d2srv.so.30:_ZThn8_N3isc2d221NameChangeTransaction12defineEventsEv
libkea-d2srv.so.30:_ZThn8_N3isc2d221NameChangeTransaction12defineStatesEv
libkea-d2srv.so.30:_ZThn8_N3isc2d221NameChangeTransaction12verifyEventsEv
libkea-d2srv.so.30:_ZThn8_N3isc2d221NameChangeTransaction12verifyStatesEv
libkea-d2srv.so.30:_ZThn8_N3isc2d221NameChangeTransaction14onModelFailureERKNSt7__cxx1112basic_stringIcSt11char_traitsIcESaIcEEE
libkea-d2srv.so.30:_ZThn8_N3isc2d221NameChangeTransactionD0Ev
libkea-d2srv.so.30:_ZThn8_N3isc2d221NameChangeTransactionD1Ev
libkea-database.so.48:_ZN3isc2db10AuditEntry6createERKNSt7__cxx1112basic_stringIcSt11char_traitsIcESaIcEEEmRKNS1_16ModificationTypeERKN5boost10posix_time5ptimeEmS9_
libkea-database.so.48:_ZN3isc2db10AuditEntry6createERKNSt7__cxx1112basic_stringIcSt11char_traitsIcESaIcEEEmRKNS1_16ModificationTypeEmS9_
libkea-database.so.48:_ZN3isc2db10AuditEntryC1ERKNSt7__cxx1112basic_stringIcSt11char_traitsIcESaIcEEEmRKNS1_16ModificationTypeERKN5boost10posix_time5ptimeEmS9_
libkea-database.so.48:_ZN3isc2db10AuditEntryC1ERKNSt7__cxx1112basic_stringIcSt11char_traitsIcESaIcEEEmRKNS1_16ModificationTypeEmS9_
libkea-database.so.48:_ZN3isc2db10AuditEntryC2ERKNSt7__cxx1112basic_stringIcSt11char_traitsIcESaIcEEEmRKNS1_16ModificationTypeERKN5boost10posix_time5ptimeEmS9_
libkea-database.so.48:_ZN3isc2db10AuditEntryC2ERKNSt7__cxx1112basic_stringIcSt11char_traitsIcESaIcEEEmRKNS1_16ModificationTypeEmS9_
libkea-database.so.48:_ZN3isc2db13ServerFetcher3getERKN5boost11multi_index21multi_index_containerINS2_10shared_ptrINS0_6ServerEEENS3_10indexed_byINS3_14ordered_uniqueINS3_3tagINS0_17ServerTagIndexTagEN4mpl_2naESD_SD_SD_SD_SD_SD_SD_SD_SD_SD_SD_SD_SD_SD_SD_SD_SD_SD_EENS3_13const_mem_funIS6_NSt7__cxx1112basic_stringIcSt11char_traitsIcESaIcEEEXadL_ZNKS6_18getServerTagAsTextB5cxx11EvEEEESD_EESD_SD_SD_SD_SD_SD_SD_SD_SD_SD_SD_SD_SD_SD_SD_SD_SD_SD_SD_EESaIS7_EEERKNS_4data9ServerTagE
libkea-database.so.48:_ZN3isc2db14DbAccessParser5parseERNSt7__cxx1112basic_stringIcSt11char_traitsIcESaIcEEEN5boost10shared_ptrIKNS_4data7ElementEEE
libkea-database.so.48:_ZN3isc2db14DbAccessParserC1Ev
libkea-database.so.48:_ZN3isc2db14DbAccessParserC2Ev
libkea-database.so.48:_ZN3isc2db14ServerSelector8MULTIPLEERKSt3setINSt7__cxx1112basic_stringIcSt11char_traitsIcESaIcEEESt4lessIS8_ESaIS8_EE
libkea-database.so.48:_ZN3isc2db14ServerSelectorC1ERKNS1_4TypeE
libkea-database.so.48:_ZN3isc2db14ServerSelectorC1ERKNS_4data9ServerTagE
libkea-database.so.48:_ZN3isc2db14ServerSelectorC1ERKSt3setINS_4data9ServerTagESt4lessIS4_ESaIS4_EE
libkea-database.so.48:_ZN3isc2db14ServerSelectorC2ERKNS1_4TypeE
libkea-database.so.48:_ZN3isc2db14ServerSelectorC2ERKNS_4data9ServerTagE
libkea-database.so.48:_ZN3isc2db14ServerSelectorC2ERKSt3setINS_4data9ServerTagESt4lessIS4_ESaIS4_EE
libkea-database.so.48:_ZN3isc2db15BackendSelector19backendTypeToStringB5cxx11ERKNS1_4TypeE
libkea-database.so.48:_ZN3isc2db15BackendSelector19stringToBackendTypeERKNSt7__cxx1112basic_stringIcSt11char_traitsIcESaIcEEE
libkea-database.so.48:_ZN3isc2db15BackendSelector6UNSPECEv
libkea-database.so.48:_ZN3isc2db15BackendSelectorC1ERKN5boost10shared_ptrIKNS_4data7ElementEEE
libkea-database.so.48:_ZN3isc2db15BackendSelectorC1ERKNS1_4TypeE
libkea-database.so.48:_ZN3isc2db15BackendSelectorC1ERKNSt7__cxx1112basic_stringIcSt11char_traitsIcESaIcEEEt
libkea-database.so.48:_ZN3isc2db15BackendSelectorC1Ev
libkea-database.so.48:_ZN3isc2db15BackendSelectorC2ERKN5boost10shared_ptrIKNS_4data7ElementEEE
libkea-database.so.48:_ZN3isc2db15BackendSelectorC2ERKNS1_4TypeE
libkea-database.so.48:_ZN3isc2db15BackendSelectorC2ERKNSt7__cxx1112basic_stringIcSt11char_traitsIcESaIcEEEt
libkea-database.so.48:_ZN3isc2db15BackendSelectorC2Ev
libkea-database.so.48:_ZN3isc2db18DatabaseConnection16makeReconnectCtlERKNSt7__cxx1112basic_stringIcSt11char_traitsIcESaIcEEE
libkea-database.so.48:_ZN3isc2db18DatabaseConnection20invokeDbLostCallbackERKN5boost10shared_ptrINS_4util12ReconnectCtlEEE
libkea-database.so.48:_ZN3isc2db18DatabaseConnection20redactedAccessStringERKSt3mapINSt7__cxx1112basic_stringIcSt11char_traitsIcESaIcEEES8_St4lessIS8_ESaISt4pairIKS8_S8_EEE
libkea-database.so.48:_ZN3isc2db18DatabaseConnection22invokeDbFailedCallbackERKN5boost10shared_ptrINS_4util12ReconnectCtlEEE
libkea-database.so.48:_ZN3isc2db18DatabaseConnection23toElementDbAccessStringERKNSt7__cxx1112basic_stringIcSt11char_traitsIcESaIcEEE
libkea-database.so.48:_ZN3isc2db18DatabaseConnection25invokeDbRecoveredCallbackERKN5boost10shared_ptrINS_4util12ReconnectCtlEEE
libkea-database.so.48:_ZN3isc2db18DatabaseConnection5parseERKNSt7__cxx1112basic_stringIcSt11char_traitsIcESaIcEEE
libkea-database.so.48:_ZN3isc2db18DatabaseConnection9toElementERKSt3mapINSt7__cxx1112basic_stringIcSt11char_traitsIcESaIcEEES8_St4lessIS8_ESaISt4pairIKS8_S8_EEE
libkea-database.so.48:_ZN3isc2db18checkDbLoggerStackEv
libkea-database.so.48:_ZN3isc2db6DB_LOGILNS0_10log_type_tE0EE9formatterENS0_11DbMessageIDEi
libkea-database.so.48:_ZN3isc2db6DB_LOGILNS0_10log_type_tE1EE9formatterENS0_11DbMessageIDEi
libkea-database.so.48:_ZN3isc2db6DB_LOGILNS0_10log_type_tE2EE9formatterENS0_11DbMessageIDEi
libkea-database.so.48:_ZN3isc2db6DB_LOGILNS0_10log_type_tE3EE9formatterENS0_11DbMessageIDEi
libkea-database.so.48:_ZN3isc2db6DB_LOGILNS0_10log_type_tE4EE9formatterENS0_11DbMessageIDEi
libkea-database.so.48:_ZN3isc2db6Server6createERKNS_4data9ServerTagERKNSt7__cxx1112basic_stringIcSt11char_traitsIcESaIcEEE
libkea-database.so.48:_ZN3isc2db6ServerC1ERKNS_4data9ServerTagERKNSt7__cxx1112basic_stringIcSt11char_traitsIcESaIcEEE
libkea-database.so.48:_ZN3isc2db6ServerC2ERKNS_4data9ServerTagERKNSt7__cxx1112basic_stringIcSt11char_traitsIcESaIcEEE
libkea-database.so.48:_ZN5boost6detail8function15functor_managerINS_9algorithm6detail13token_finderFINS4_10is_any_ofFIcEEEEE6manageERKNS1_15function_bufferERSA_NS1_30functor_manager_operation_typeE
libkea-database.so.48:_ZN5boost6detail8function21function_obj_invoker2INS_9algorithm6detail13token_finderFINS4_10is_any_ofFIcEEEENS_14iterator_rangeIN9__gnu_cxx17__normal_iteratorIPcNSt7__cxx1112basic_stringIcSt11char_traitsIcESaIcEEEEEEESJ_SJ_E6invokeERNS1_15function_bufferESJ_SJ_
libkea-database.so.48:_ZNK3isc2db10AuditEntry8validateEv
libkea-database.so.48:_ZNK3isc2db14DbAccessParser17getDbAccessStringB5cxx11Ev
libkea-database.so.48:_ZNK3isc2db15BackendSelector13amUnspecifiedEv
libkea-database.so.48:_ZNK3isc2db15BackendSelector6toTextB5cxx11Ev
libkea-database.so.48:_ZNK3isc2db15BackendSelector8validateEv
libkea-database.so.48:_ZNK3isc2db15BackendSelector9toElementEv
libkea-database.so.48:_ZNK3isc2db18DatabaseConnection12getParameterERKNSt7__cxx1112basic_stringIcSt11char_traitsIcESaIcEEE
libkea-database.so.48:_ZNK3isc2db18DatabaseConnection18configuredReadOnlyEv
libkea-database.so.48:_ZNK3isc2db6DB_LOGILNS0_10log_type_tE0EE9isEnabledEi
libkea-database.so.48:_ZNK3isc2db6DB_LOGILNS0_10log_type_tE1EE9isEnabledEi
libkea-database.so.48:_ZNK3isc2db6DB_LOGILNS0_10log_type_tE2EE9isEnabledEi
libkea-database.so.48:_ZNK3isc2db6DB_LOGILNS0_10log_type_tE3EE9isEnabledEi
libkea-database.so.48:_ZNK3isc2db6DB_LOGILNS0_10log_type_tE4EE9isEnabledEi
libkea-database.so.48:_ZNK3isc2db6Server9toElementEv
libkea-database.so.48:_ZNK3isc2db8DbLogger16translateMessageERKNS0_11DbMessageIDE
libkea-dhcp++.so.74:_Z15initOptionSpaceRN5boost10shared_ptrINS_11multi_index21multi_index_containerINS0_IN3isc4dhcp16OptionDefinitionEEENS1_10indexed_byINS1_9sequencedINS1_3tagIN4mpl_2naESB_SB_SB_SB_SB_SB_SB_SB_SB_SB_SB_SB_SB_SB_SB_SB_SB_SB_SB_EEEENS1_17hashed_non_uniqueINS1_13const_mem_funIS5_tXadL_ZNKS5_7getCodeEvEEEESB_SB_SB_EENSE_INSF_IS5_NSt7__cxx1112basic_stringIcSt11char_traitsIcESaIcEEEXadL_ZNKS5_7getNameB5cxx11EvEEEESB_SB_SB_EENS1_18ordered_non_uniqueINSF_INS3_4data18BaseStampedElementENS_10posix_time5ptimeEXadL_ZNKSS_19getModificationTimeEvEEEESB_SB_EENSE_INS9_INS4_16OptionIdIndexTagESB_SB_SB_SB_SB_SB_SB_SB_SB_SB_SB_SB_SB_SB_SB_SB_SB_SB_SB_EENSF_ISS_mXadL_ZNKSS_5getIdEvEEEESB_SB_EESB_SB_SB_SB_SB_SB_SB_SB_SB_SB_SB_SB_SB_SB_SB_EESaIS6_EEEEEPKNS4_15OptionDefParamsEm
libkea-dhcp++.so.74:_ZN3isc4dhcp10Option4Dnr14addDnrInstanceERNS0_11DnrInstanceE
libkea-dhcp++.so.74:_ZN3isc4dhcp10Option4Dnr6unpackEN9__gnu_cxx17__normal_iteratorIPKhSt6vectorIhSaIhEEEES9_
libkea-dhcp++.so.74:_ZN3isc4dhcp10Option4DnrC1EN9__gnu_cxx17__normal_iteratorIPKhSt6vectorIhSaIhEEEES9_
libkea-dhcp++.so.74:_ZN3isc4dhcp10Option4DnrC2EN9__gnu_cxx17__normal_iteratorIPKhSt6vectorIhSaIhEEEES9_
libkea-dhcp++.so.74:_ZN3isc4dhcp10Option6Dnr15unpackAddressesERN9__gnu_cxx17__normal_iteratorIPKhSt6vectorIhSaIhEEEES9_
libkea-dhcp++.so.74:_ZN3isc4dhcp10Option6Dnr6unpackEN9__gnu_cxx17__normal_iteratorIPKhSt6vectorIhSaIhEEEES9_
libkea-dhcp++.so.74:_ZN3isc4dhcp10Option6DnrC1EN9__gnu_cxx17__normal_iteratorIPKhSt6vectorIhSaIhEEEES9_
libkea-dhcp++.so.74:_ZN3isc4dhcp10Option6DnrC2EN9__gnu_cxx17__normal_iteratorIPKhSt6vectorIhSaIhEEEES9_
libkea-dhcp++.so.74:_ZN3isc4dhcp10PktFilter613joinMulticastEiRKNSt7__cxx1112basic_stringIcSt11char_traitsIcESaIcEEES9_
libkea-dhcp++.so.74:_ZN3isc4dhcp11DUIDFactory12readFromFileEv
libkea-dhcp++.so.74:_ZN3isc4dhcp11DUIDFactory3getEv
libkea-dhcp++.so.74:_ZN3isc4dhcp11DUIDFactory3setERKSt6vectorIhSaIhEE
libkea-dhcp++.so.74:_ZN3isc4dhcp11DUIDFactory8createENEjRKSt6vectorIhSaIhEE
libkea-dhcp++.so.74:_ZN3isc4dhcp11DUIDFactory8createLLEtRKSt6vectorIhSaIhEE
libkea-dhcp++.so.74:_ZN3isc4dhcp11DUIDFactory9createLLTEtjRKSt6vectorIhSaIhEE
libkea-dhcp++.so.74:_ZN3isc4dhcp11DUIDFactoryC1ERKNSt7__cxx1112basic_stringIcSt11char_traitsIcESaIcEEE
libkea-dhcp++.so.74:_ZN3isc4dhcp11DUIDFactoryC2ERKNSt7__cxx1112basic_stringIcSt11char_traitsIcESaIcEEE
libkea-dhcp++.so.74:_ZN3isc4dhcp11DnrInstance11checkFieldsEv
libkea-dhcp++.so.74:_ZN3isc4dhcp11DnrInstance11initMembersEv
libkea-dhcp++.so.74:_ZN3isc4dhcp11DnrInstance12addIpAddressERKNS_8asiolink9IOAddressE
libkea-dhcp++.so.74:_ZN3isc4dhcp11DnrInstance14checkSvcParamsEb
libkea-dhcp++.so.74:_ZN3isc4dhcp11DnrInstance15unpackAddressesERN9__gnu_cxx17__normal_iteratorIPKhSt6vectorIhSaIhEEEES9_
libkea-dhcp++.so.74:_ZN3isc4dhcp11DnrInstance15unpackSvcParamsERN9__gnu_cxx17__normal_iteratorIPKhSt6vectorIhSaIhEEEES9_
libkea-dhcp++.so.74:_ZN3isc4dhcp11DnrInstance21unpackServicePriorityERN9__gnu_cxx17__normal_iteratorIPKhSt6vectorIhSaIhEEEE
libkea-dhcp++.so.74:_ZN3isc4dhcp11DnrInstance27unpackDnrInstanceDataLengthERN9__gnu_cxx17__normal_iteratorIPKhSt6vectorIhSaIhEEEES9_
libkea-dhcp++.so.74:_ZN3isc4dhcp11DnrInstance6setAdnERKNSt7__cxx1112basic_stringIcSt11char_traitsIcESaIcEEE
libkea-dhcp++.so.74:_ZN3isc4dhcp11DnrInstance9unpackAdnERN9__gnu_cxx17__normal_iteratorIPKhSt6vectorIhSaIhEEEES9_
libkea-dhcp++.so.74:_ZN3isc4dhcp11DnrInstanceC1ENS0_6Option8UniverseE
libkea-dhcp++.so.74:_ZN3isc4dhcp11DnrInstanceC1ENS0_6Option8UniverseEtRKNSt7__cxx1112basic_stringIcSt11char_traitsIcESaIcEEE
libkea-dhcp++.so.74:_ZN3isc4dhcp11DnrInstanceC1ENS0_6Option8UniverseEtRKNSt7__cxx1112basic_stringIcSt11char_traitsIcESaIcEEERKSt6vectorINS_8asiolink9IOAddressESaISE_EESB_
libkea-dhcp++.so.74:_ZN3isc4dhcp11DnrInstanceC2ENS0_6Option8UniverseE
libkea-dhcp++.so.74:_ZN3isc4dhcp11DnrInstanceC2ENS0_6Option8UniverseEtRKNSt7__cxx1112basic_stringIcSt11char_traitsIcESaIcEEE
libkea-dhcp++.so.74:_ZN3isc4dhcp11DnrInstanceC2ENS0_6Option8UniverseEtRKNSt7__cxx1112basic_stringIcSt11char_traitsIcESaIcEEERKSt6vectorINS_8asiolink9IOAddressESaISE_EESB_
libkea-dhcp++.so.74:_ZN3isc4dhcp11Option6Auth6unpackEN9__gnu_cxx17__normal_iteratorIPKhSt6vectorIhSaIhEEEES9_
libkea-dhcp++.so.74:_ZN3isc4dhcp11Option6AuthC1EhhhmRKSt6vectorIhSaIhEE
libkea-dhcp++.so.74:_ZN3isc4dhcp11Option6AuthC2EhhhmRKSt6vectorIhSaIhEE
libkea-dhcp++.so.74:_ZN3isc4dhcp11OptionSpace12validateNameERKNSt7__cxx1112basic_stringIcSt11char_traitsIcESaIcEEE
libkea-dhcp++.so.74:_ZN3isc4dhcp11OptionSpaceC1ERKNSt7__cxx1112basic_stringIcSt11char_traitsIcESaIcEEEb
libkea-dhcp++.so.74:_ZN3isc4dhcp11OptionSpaceC2ERKNSt7__cxx1112basic_stringIcSt11char_traitsIcESaIcEEEb
libkea-dhcp++.so.74:_ZN3isc4dhcp12OptionCustom10initializeEN9__gnu_cxx17__normal_iteratorIPKhSt6vectorIhSaIhEEEES9_
libkea-dhcp++.so.74:_ZN3isc4dhcp12OptionCustom10writeTupleERKNS0_15OpaqueDataTupleEj
libkea-dhcp++.so.74:_ZN3isc4dhcp12OptionCustom10writeTupleERKNSt7__cxx1112basic_stringIcSt11char_traitsIcESaIcEEEj
libkea-dhcp++.so.74:_ZN3isc4dhcp12OptionCustom11writeBinaryERKSt6vectorIhSaIhEEj
libkea-dhcp++.so.74:_ZN3isc4dhcp12OptionCustom11writePrefixERKNS0_9PrefixLenERKNS_8asiolink9IOAddressEj
libkea-dhcp++.so.74:_ZN3isc4dhcp12OptionCustom11writeStringERKNSt7__cxx1112basic_stringIcSt11char_traitsIcESaIcEEEj
libkea-dhcp++.so.74:_ZN3isc4dhcp12OptionCustom12writeAddressERKNS_8asiolink9IOAddressEj
libkea-dhcp++.so.74:_ZN3isc4dhcp12OptionCustom12writeBooleanEbj
libkea-dhcp++.so.74:_ZN3isc4dhcp12OptionCustom13createBuffersERKSt6vectorIhSaIhEE
libkea-dhcp++.so.74:_ZN3isc4dhcp12OptionCustom13createBuffersEv
libkea-dhcp++.so.74:_ZN3isc4dhcp12OptionCustom17addArrayDataFieldERKNS0_15OpaqueDataTupleE
libkea-dhcp++.so.74:_ZN3isc4dhcp12OptionCustom17addArrayDataFieldERKNS0_7PSIDLenERKNS0_4PSIDE
libkea-dhcp++.so.74:_ZN3isc4dhcp12OptionCustom17addArrayDataFieldERKNS0_9PrefixLenERKNS_8asiolink9IOAddressE
libkea-dhcp++.so.74:_ZN3isc4dhcp12OptionCustom17addArrayDataFieldERKNS_8asiolink9IOAddressE
libkea-dhcp++.so.74:_ZN3isc4dhcp12OptionCustom17addArrayDataFieldERKNSt7__cxx1112basic_stringIcSt11char_traitsIcESaIcEEE
libkea-dhcp++.so.74:_ZN3isc4dhcp12OptionCustom17addArrayDataFieldEb
libkea-dhcp++.so.74:_ZN3isc4dhcp12OptionCustom6unpackEN9__gnu_cxx17__normal_iteratorIPKhSt6vectorIhSaIhEEEES9_
libkea-dhcp++.so.74:_ZN3isc4dhcp12OptionCustom9writeFqdnERKNSt7__cxx1112basic_stringIcSt11char_traitsIcESaIcEEEj
libkea-dhcp++.so.74:_ZN3isc4dhcp12OptionCustom9writePsidERKNS0_7PSIDLenERKNS0_4PSIDEj
libkea-dhcp++.so.74:_ZN3isc4dhcp12OptionCustomC1ERKNS0_16OptionDefinitionENS0_6Option8UniverseE
libkea-dhcp++.so.74:_ZN3isc4dhcp12OptionCustomC1ERKNS0_16OptionDefinitionENS0_6Option8UniverseEN9__gnu_cxx17__normal_iteratorIPKhSt6vectorIhSaIhEEEESE_
libkea-dhcp++.so.74:_ZN3isc4dhcp12OptionCustomC1ERKNS0_16OptionDefinitionENS0_6Option8UniverseERKSt6vectorIhSaIhEE
libkea-dhcp++.so.74:_ZN3isc4dhcp12OptionCustomC2ERKNS0_16OptionDefinitionENS0_6Option8UniverseE
libkea-dhcp++.so.74:_ZN3isc4dhcp12OptionCustomC2ERKNS0_16OptionDefinitionENS0_6Option8UniverseEN9__gnu_cxx17__normal_iteratorIPKhSt6vectorIhSaIhEEEESE_
libkea-dhcp++.so.74:_ZN3isc4dhcp12OptionCustomC2ERKNS0_16OptionDefinitionENS0_6Option8UniverseERKSt6vectorIhSaIhEE
libkea-dhcp++.so.74:_ZN3isc4dhcp12OptionSpace614setVendorSpaceEj
libkea-dhcp++.so.74:_ZN3isc4dhcp12OptionSpace6C1ERKNSt7__cxx1112basic_stringIcSt11char_traitsIcESaIcEEE
libkea-dhcp++.so.74:_ZN3isc4dhcp12OptionSpace6C1ERKNSt7__cxx1112basic_stringIcSt11char_traitsIcESaIcEEEj
libkea-dhcp++.so.74:_ZN3isc4dhcp12OptionSpace6C2ERKNSt7__cxx1112basic_stringIcSt11char_traitsIcESaIcEEE
libkea-dhcp++.so.74:_ZN3isc4dhcp12OptionSpace6C2ERKNSt7__cxx1112basic_stringIcSt11char_traitsIcESaIcEEEj
libkea-dhcp++.so.74:_ZN3isc4dhcp12OptionString6unpackEN9__gnu_cxx17__normal_iteratorIPKhSt6vectorIhSaIhEEEES9_
libkea-dhcp++.so.74:_ZN3isc4dhcp12OptionString8setValueERKNSt7__cxx1112basic_stringIcSt11char_traitsIcESaIcEEE
libkea-dhcp++.so.74:_ZN3isc4dhcp12OptionStringC1ENS0_6Option8UniverseEtN9__gnu_cxx17__normal_iteratorIPKhSt6vectorIhSaIhEEEESB_
libkea-dhcp++.so.74:_ZN3isc4dhcp12OptionStringC1ENS0_6Option8UniverseEtRKNSt7__cxx1112basic_stringIcSt11char_traitsIcESaIcEEE
libkea-dhcp++.so.74:_ZN3isc4dhcp12OptionStringC2ENS0_6Option8UniverseEtN9__gnu_cxx17__normal_iteratorIPKhSt6vectorIhSaIhEEEESB_
libkea-dhcp++.so.74:_ZN3isc4dhcp12OptionStringC2ENS0_6Option8UniverseEtRKNSt7__cxx1112basic_stringIcSt11char_traitsIcESaIcEEE
libkea-dhcp++.so.74:_ZN3isc4dhcp12OptionVendor6unpackEN9__gnu_cxx17__normal_iteratorIPKhSt6vectorIhSaIhEEEES9_
libkea-dhcp++.so.74:_ZN3isc4dhcp12OptionVendorC1ENS0_6Option8UniverseEN9__gnu_cxx17__normal_iteratorIPKhSt6vectorIhSaIhEEEESB_
libkea-dhcp++.so.74:_ZN3isc4dhcp12OptionVendorC1ENS0_6Option8UniverseEj
libkea-dhcp++.so.74:_ZN3isc4dhcp12OptionVendorC2ENS0_6Option8UniverseEN9__gnu_cxx17__normal_iteratorIPKhSt6vectorIhSaIhEEEESB_
libkea-dhcp++.so.74:_ZN3isc4dhcp12OptionVendorC2ENS0_6Option8UniverseEj
libkea-dhcp++.so.74:_ZN3isc4dhcp12PktFilterLPF10openSocketERNS0_5IfaceERKNS_8asiolink9IOAddressEtbb
libkea-dhcp++.so.74:_ZN3isc4dhcp12PktFilterLPF4sendERKNS0_5IfaceEtRKN5boost10shared_ptrINS0_4Pkt4EEE
libkea-dhcp++.so.74:_ZN3isc4dhcp12PktFilterLPF7receiveERNS0_5IfaceERKNS0_10SocketInfoE
libkea-dhcp++.so.74:_ZN3isc4dhcp12calcChecksumEPKhjj
libkea-dhcp++.so.74:_ZN3isc4dhcp13ClientClasses5eraseERKNSt7__cxx1112basic_stringIcSt11char_traitsIcESaIcEEE
libkea-dhcp++.so.74:_ZN3isc4dhcp13ClientClassesC1ERKNSt7__cxx1112basic_stringIcSt11char_traitsIcESaIcEEE
libkea-dhcp++.so.74:_ZN3isc4dhcp13ClientClassesC2ERKNSt7__cxx1112basic_stringIcSt11char_traitsIcESaIcEEE
libkea-dhcp++.so.74:_ZN3isc4dhcp13Option6IAAddr6unpackEN9__gnu_cxx17__normal_iteratorIPKhSt6vectorIhSaIhEEEES9_
libkea-dhcp++.so.74:_ZN3isc4dhcp13Option6IAAddrC1EjN9__gnu_cxx17__normal_iteratorIPKhSt6vectorIhSaIhEEEES9_
libkea-dhcp++.so.74:_ZN3isc4dhcp13Option6IAAddrC1EtRKNS_8asiolink9IOAddressEjj
libkea-dhcp++.so.74:_ZN3isc4dhcp13Option6IAAddrC2EjN9__gnu_cxx17__normal_iteratorIPKhSt6vectorIhSaIhEEEES9_
libkea-dhcp++.so.74:_ZN3isc4dhcp13Option6IAAddrC2EtRKNS_8asiolink9IOAddressEjj
libkea-dhcp++.so.74:_ZN3isc4dhcp13PktFilterInet10openSocketERNS0_5IfaceERKNS_8asiolink9IOAddressEtbb
libkea-dhcp++.so.74:_ZN3isc4dhcp13PktFilterInet4sendERKNS0_5IfaceEtRKN5boost10shared_ptrINS0_4Pkt4EEE
libkea-dhcp++.so.74:_ZN3isc4dhcp13PktFilterInet7receiveERNS0_5IfaceERKNS0_10SocketInfoE
libkea-dhcp++.so.74:_ZN3isc4dhcp14Option4AddrLst10addAddressERKNS_8asiolink9IOAddressE
libkea-dhcp++.so.74:_ZN3isc4dhcp14Option4AddrLst10setAddressERKNS_8asiolink9IOAddressE
libkea-dhcp++.so.74:_ZN3isc4dhcp14Option4AddrLst12setAddressesERKSt6vectorINS_8asiolink9IOAddressESaIS4_EE
libkea-dhcp++.so.74:_ZN3isc4dhcp14Option4AddrLstC1Eh
libkea-dhcp++.so.74:_ZN3isc4dhcp14Option4AddrLstC1EhN9__gnu_cxx17__normal_iteratorIPKhSt6vectorIhSaIhEEEES9_
libkea-dhcp++.so.74:_ZN3isc4dhcp14Option4AddrLstC1EhRKNS_8asiolink9IOAddressE
libkea-dhcp++.so.74:_ZN3isc4dhcp14Option4AddrLstC1EhRKSt6vectorINS_8asiolink9IOAddressESaIS4_EE
libkea-dhcp++.so.74:_ZN3isc4dhcp14Option4AddrLstC2Eh
libkea-dhcp++.so.74:_ZN3isc4dhcp14Option4AddrLstC2EhN9__gnu_cxx17__normal_iteratorIPKhSt6vectorIhSaIhEEEES9_
libkea-dhcp++.so.74:_ZN3isc4dhcp14Option4AddrLstC2EhRKNS_8asiolink9IOAddressE
libkea-dhcp++.so.74:_ZN3isc4dhcp14Option4AddrLstC2EhRKSt6vectorINS_8asiolink9IOAddressESaIS4_EE
libkea-dhcp++.so.74:_ZN3isc4dhcp14Option6AddrLst10setAddressERKNS_8asiolink9IOAddressE
libkea-dhcp++.so.74:_ZN3isc4dhcp14Option6AddrLst12setAddressesERKSt6vectorINS_8asiolink9IOAddressESaIS4_EE
libkea-dhcp++.so.74:_ZN3isc4dhcp14Option6AddrLst6unpackEN9__gnu_cxx17__normal_iteratorIPKhSt6vectorIhSaIhEEEES9_
libkea-dhcp++.so.74:_ZN3isc4dhcp14Option6AddrLstC1EtN9__gnu_cxx17__normal_iteratorIPKhSt6vectorIhSaIhEEEES9_
libkea-dhcp++.so.74:_ZN3isc4dhcp14Option6AddrLstC1EtRKNS_8asiolink9IOAddressE
libkea-dhcp++.so.74:_ZN3isc4dhcp14Option6AddrLstC1EtRKSt6vectorINS_8asiolink9IOAddressESaIS4_EE
libkea-dhcp++.so.74:_ZN3isc4dhcp14Option6AddrLstC2EtN9__gnu_cxx17__normal_iteratorIPKhSt6vectorIhSaIhEEEES9_
libkea-dhcp++.so.74:_ZN3isc4dhcp14Option6AddrLstC2EtRKNS_8asiolink9IOAddressE
libkea-dhcp++.so.74:_ZN3isc4dhcp14Option6AddrLstC2EtRKSt6vectorINS_8asiolink9IOAddressESaIS4_EE
libkea-dhcp++.so.74:_ZN3isc4dhcp14PktFilterInet610openSocketERKNS0_5IfaceERKNS_8asiolink9IOAddressEtb
libkea-dhcp++.so.74:_ZN3isc4dhcp14PktFilterInet64sendERKNS0_5IfaceEtRKN5boost10shared_ptrINS0_4Pkt6EEE
libkea-dhcp++.so.74:_ZN3isc4dhcp14PktFilterInet67receiveERKNS0_10SocketInfoE
libkea-dhcp++.so.74:_ZN3isc4dhcp15IfaceCollection16getIfaceInternalERKNSt7__cxx1112basic_stringIcSt11char_traitsIcESaIcEEEb
libkea-dhcp++.so.74:_ZN3isc4dhcp15IfaceCollection16getIfaceInternalEjb
libkea-dhcp++.so.74:_ZN3isc4dhcp15IfaceCollection8getIfaceERKNSt7__cxx1112basic_stringIcSt11char_traitsIcESaIcEEE
libkea-dhcp++.so.74:_ZN3isc4dhcp15IfaceCollection8getIfaceEj
libkea-dhcp++.so.74:_ZN3isc4dhcp15OpaqueDataTuple5clearEv
libkea-dhcp++.so.74:_ZN3isc4dhcp15OpaqueDataTuple6appendERKNSt7__cxx1112basic_stringIcSt11char_traitsIcESaIcEEE
libkea-dhcp++.so.74:_ZN3isc4dhcp15OpaqueDataTuple6assignERKNSt7__cxx1112basic_stringIcSt11char_traitsIcESaIcEEE
libkea-dhcp++.so.74:_ZN3isc4dhcp15OpaqueDataTuple6unpackEN9__gnu_cxx17__normal_iteratorIPKhSt6vectorIhSaIhEEEES9_
libkea-dhcp++.so.74:_ZN3isc4dhcp15OpaqueDataTupleC1ENS1_15LengthFieldTypeE
libkea-dhcp++.so.74:_ZN3isc4dhcp15OpaqueDataTupleC2ENS1_15LengthFieldTypeE
libkea-dhcp++.so.74:_ZN3isc4dhcp15OpaqueDataTupleaSERKNSt7__cxx1112basic_stringIcSt11char_traitsIcESaIcEEE
libkea-dhcp++.so.74:_ZN3isc4dhcp15OpaqueDataTupleneERKNSt7__cxx1112basic_stringIcSt11char_traitsIcESaIcEEE
libkea-dhcp++.so.74:_ZN3isc4dhcp15Option6IAPrefix6unpackEN9__gnu_cxx17__normal_iteratorIPKhSt6vectorIhSaIhEEEES9_
libkea-dhcp++.so.74:_ZN3isc4dhcp15Option6IAPrefixC1EjN9__gnu_cxx17__normal_iteratorIPKhSt6vectorIhSaIhEEEES9_
libkea-dhcp++.so.74:_ZN3isc4dhcp15Option6IAPrefixC1EtRKNS_8asiolink9IOAddressEhjj
libkea-dhcp++.so.74:_ZN3isc4dhcp15Option6IAPrefixC2EjN9__gnu_cxx17__normal_iteratorIPKhSt6vectorIhSaIhEEEES9_
libkea-dhcp++.so.74:_ZN3isc4dhcp15Option6IAPrefixC2EtRKNS_8asiolink9IOAddressEhjj
libkea-dhcp++.so.74:_ZN3isc4dhcp15PacketQueueMgr4C1Ev
libkea-dhcp++.so.74:_ZN3isc4dhcp15PacketQueueMgr4C2Ev
libkea-dhcp++.so.74:_ZN3isc4dhcp15PacketQueueMgr6C1Ev
libkea-dhcp++.so.74:_ZN3isc4dhcp15PacketQueueMgr6C2Ev
libkea-dhcp++.so.74:_ZN3isc4dhcp16Option6PDExclude6unpackEN9__gnu_cxx17__normal_iteratorIPKhSt6vectorIhSaIhEEEES9_
libkea-dhcp++.so.74:_ZN3isc4dhcp16Option6PDExcludeC1EN9__gnu_cxx17__normal_iteratorIPKhSt6vectorIhSaIhEEEES9_
libkea-dhcp++.so.74:_ZN3isc4dhcp16Option6PDExcludeC1ERKNS_8asiolink9IOAddressEhS5_h
libkea-dhcp++.so.74:_ZN3isc4dhcp16Option6PDExcludeC2EN9__gnu_cxx17__normal_iteratorIPKhSt6vectorIhSaIhEEEES9_
libkea-dhcp++.so.74:_ZN3isc4dhcp16Option6PDExcludeC2ERKNS_8asiolink9IOAddressEhS5_h
libkea-dhcp++.so.74:_ZN3isc4dhcp16OptionDefinition10factoryIA6EtN9__gnu_cxx17__normal_iteratorIPKhSt6vectorIhSaIhEEEES9_
libkea-dhcp++.so.74:_ZN3isc4dhcp16OptionDefinition12factoryEmptyENS0_6Option8UniverseEt
libkea-dhcp++.so.74:_ZN3isc4dhcp16OptionDefinition14addRecordFieldENS0_14OptionDataTypeE
libkea-dhcp++.so.74:_ZN3isc4dhcp16OptionDefinition14addRecordFieldERKNSt7__cxx1112basic_stringIcSt11char_traitsIcESaIcEEE
libkea-dhcp++.so.74:_ZN3isc4dhcp16OptionDefinition14factoryGenericENS0_6Option8UniverseEtN9__gnu_cxx17__normal_iteratorIPKhSt6vectorIhSaIhEEEESB_
libkea-dhcp++.so.74:_ZN3isc4dhcp16OptionDefinition14factoryIAAddr6EtN9__gnu_cxx17__normal_iteratorIPKhSt6vectorIhSaIhEEEES9_
libkea-dhcp++.so.74:_ZN3isc4dhcp16OptionDefinition16factoryAddrList4EtN9__gnu_cxx17__normal_iteratorIPKhSt6vectorIhSaIhEEEES9_
libkea-dhcp++.so.74:_ZN3isc4dhcp16OptionDefinition16factoryAddrList6EtN9__gnu_cxx17__normal_iteratorIPKhSt6vectorIhSaIhEEEES9_
libkea-dhcp++.so.74:_ZN3isc4dhcp16OptionDefinition16factoryIAPrefix6EtN9__gnu_cxx17__normal_iteratorIPKhSt6vectorIhSaIhEEEES9_
libkea-dhcp++.so.74:_ZN3isc4dhcp16OptionDefinition23factoryOpaqueDataTuplesENS0_6Option8UniverseEtN9__gnu_cxx17__normal_iteratorIPKhSt6vectorIhSaIhEEEESB_
libkea-dhcp++.so.74:_ZN3isc4dhcp16OptionDefinition23factoryOpaqueDataTuplesENS0_6Option8UniverseEtN9__gnu_cxx17__normal_iteratorIPKhSt6vectorIhSaIhEEEESB_NS0_15OpaqueDataTuple15LengthFieldTypeE
libkea-dhcp++.so.74:_ZN3isc4dhcp16OptionDefinition6createERKNSt7__cxx1112basic_stringIcSt11char_traitsIcESaIcEEEtS9_NS0_14OptionDataTypeEPKc
libkea-dhcp++.so.74:_ZN3isc4dhcp16OptionDefinition6createERKNSt7__cxx1112basic_stringIcSt11char_traitsIcESaIcEEEtS9_NS0_14OptionDataTypeEb
libkea-dhcp++.so.74:_ZN3isc4dhcp16OptionDefinition6createERKNSt7__cxx1112basic_stringIcSt11char_traitsIcESaIcEEEtS9_S9_PKc
libkea-dhcp++.so.74:_ZN3isc4dhcp16OptionDefinition6createERKNSt7__cxx1112basic_stringIcSt11char_traitsIcESaIcEEEtS9_S9_b
libkea-dhcp++.so.74:_ZN3isc4dhcp16OptionDefinitionC1ERKNSt7__cxx1112basic_stringIcSt11char_traitsIcESaIcEEEtS9_NS0_14OptionDataTypeEPKc
libkea-dhcp++.so.74:_ZN3isc4dhcp16OptionDefinitionC1ERKNSt7__cxx1112basic_stringIcSt11char_traitsIcESaIcEEEtS9_NS0_14OptionDataTypeEb
libkea-dhcp++.so.74:_ZN3isc4dhcp16OptionDefinitionC1ERKNSt7__cxx1112basic_stringIcSt11char_traitsIcESaIcEEEtS9_S9_PKc
libkea-dhcp++.so.74:_ZN3isc4dhcp16OptionDefinitionC1ERKNSt7__cxx1112basic_stringIcSt11char_traitsIcESaIcEEEtS9_S9_b
libkea-dhcp++.so.74:_ZN3isc4dhcp16OptionDefinitionC2ERKNSt7__cxx1112basic_stringIcSt11char_traitsIcESaIcEEEtS9_NS0_14OptionDataTypeEPKc
libkea-dhcp++.so.74:_ZN3isc4dhcp16OptionDefinitionC2ERKNSt7__cxx1112basic_stringIcSt11char_traitsIcESaIcEEEtS9_NS0_14OptionDataTypeEb
libkea-dhcp++.so.74:_ZN3isc4dhcp16OptionDefinitionC2ERKNSt7__cxx1112basic_stringIcSt11char_traitsIcESaIcEEEtS9_S9_PKc
libkea-dhcp++.so.74:_ZN3isc4dhcp16OptionDefinitionC2ERKNSt7__cxx1112basic_stringIcSt11char_traitsIcESaIcEEEtS9_S9_b
libkea-dhcp++.so.74:_ZN3isc4dhcp16writeIpUdpHeaderERKN5boost10shared_ptrINS0_4Pkt4EEERNS_4util12OutputBufferE
libkea-dhcp++.so.74:_ZN3isc4dhcp17Option4ClientFqdn10resetFlagsEv
libkea-dhcp++.so.74:_ZN3isc4dhcp17Option4ClientFqdn13setDomainNameERKNSt7__cxx1112basic_stringIcSt11char_traitsIcESaIcEEENS1_14DomainNameTypeE
libkea-dhcp++.so.74:_ZN3isc4dhcp17Option4ClientFqdn15resetDomainNameEv
libkea-dhcp++.so.74:_ZN3isc4dhcp17Option4ClientFqdn6unpackEN9__gnu_cxx17__normal_iteratorIPKhSt6vectorIhSaIhEEEES9_
libkea-dhcp++.so.74:_ZN3isc4dhcp17Option4ClientFqdn7setFlagEhb
libkea-dhcp++.so.74:_ZN3isc4dhcp17Option4ClientFqdn8setRcodeERKNS1_5RcodeE
libkea-dhcp++.so.74:_ZN3isc4dhcp17Option4ClientFqdnC1EN9__gnu_cxx17__normal_iteratorIPKhSt6vectorIhSaIhEEEES9_
libkea-dhcp++.so.74:_ZN3isc4dhcp17Option4ClientFqdnC1ERKS1_
libkea-dhcp++.so.74:_ZN3isc4dhcp17Option4ClientFqdnC1EhRKNS1_5RcodeE
libkea-dhcp++.so.74:_ZN3isc4dhcp17Option4ClientFqdnC1EhRKNS1_5RcodeERKNSt7__cxx1112basic_stringIcSt11char_traitsIcESaIcEEENS1_14DomainNameTypeE
libkea-dhcp++.so.74:_ZN3isc4dhcp17Option4ClientFqdnC2EN9__gnu_cxx17__normal_iteratorIPKhSt6vectorIhSaIhEEEES9_
libkea-dhcp++.so.74:_ZN3isc4dhcp17Option4ClientFqdnC2ERKS1_
libkea-dhcp++.so.74:_ZN3isc4dhcp17Option4ClientFqdnC2EhRKNS1_5RcodeE
libkea-dhcp++.so.74:_ZN3isc4dhcp17Option4ClientFqdnC2EhRKNS1_5RcodeERKNSt7__cxx1112basic_stringIcSt11char_traitsIcESaIcEEENS1_14DomainNameTypeE
libkea-dhcp++.so.74:_ZN3isc4dhcp17Option4ClientFqdnD0Ev
libkea-dhcp++.so.74:_ZN3isc4dhcp17Option4ClientFqdnD1Ev
libkea-dhcp++.so.74:_ZN3isc4dhcp17Option4ClientFqdnD2Ev
libkea-dhcp++.so.74:_ZN3isc4dhcp17Option4ClientFqdnaSERKS1_
libkea-dhcp++.so.74:_ZN3isc4dhcp17Option6ClientFqdn10resetFlagsEv
libkea-dhcp++.so.74:_ZN3isc4dhcp17Option6ClientFqdn13setDomainNameERKNSt7__cxx1112basic_stringIcSt11char_traitsIcESaIcEEENS1_14DomainNameTypeE
libkea-dhcp++.so.74:_ZN3isc4dhcp17Option6ClientFqdn15resetDomainNameEv
libkea-dhcp++.so.74:_ZN3isc4dhcp17Option6ClientFqdn6unpackEN9__gnu_cxx17__normal_iteratorIPKhSt6vectorIhSaIhEEEES9_
libkea-dhcp++.so.74:_ZN3isc4dhcp17Option6ClientFqdn7setFlagEhb
libkea-dhcp++.so.74:_ZN3isc4dhcp17Option6ClientFqdnC1EN9__gnu_cxx17__normal_iteratorIPKhSt6vectorIhSaIhEEEES9_
libkea-dhcp++.so.74:_ZN3isc4dhcp17Option6ClientFqdnC1ERKS1_
libkea-dhcp++.so.74:_ZN3isc4dhcp17Option6ClientFqdnC1Eh
libkea-dhcp++.so.74:_ZN3isc4dhcp17Option6ClientFqdnC1EhRKNSt7__cxx1112basic_stringIcSt11char_traitsIcESaIcEEENS1_14DomainNameTypeE
libkea-dhcp++.so.74:_ZN3isc4dhcp17Option6ClientFqdnC2EN9__gnu_cxx17__normal_iteratorIPKhSt6vectorIhSaIhEEEES9_
libkea-dhcp++.so.74:_ZN3isc4dhcp17Option6ClientFqdnC2ERKS1_
libkea-dhcp++.so.74:_ZN3isc4dhcp17Option6ClientFqdnC2Eh
libkea-dhcp++.so.74:_ZN3isc4dhcp17Option6ClientFqdnC2EhRKNSt7__cxx1112basic_stringIcSt11char_traitsIcESaIcEEENS1_14DomainNameTypeE
libkea-dhcp++.so.74:_ZN3isc4dhcp17Option6ClientFqdnD0Ev
libkea-dhcp++.so.74:_ZN3isc4dhcp17Option6ClientFqdnD1Ev
libkea-dhcp++.so.74:_ZN3isc4dhcp17Option6ClientFqdnD2Ev
libkea-dhcp++.so.74:_ZN3isc4dhcp17Option6ClientFqdnaSERKS1_
libkea-dhcp++.so.74:_ZN3isc4dhcp17Option6StatusCode6unpackEN9__gnu_cxx17__normal_iteratorIPKhSt6vectorIhSaIhEEEES9_
libkea-dhcp++.so.74:_ZN3isc4dhcp17Option6StatusCodeC1EN9__gnu_cxx17__normal_iteratorIPKhSt6vectorIhSaIhEEEES9_
libkea-dhcp++.so.74:_ZN3isc4dhcp17Option6StatusCodeC1EtRKNSt7__cxx1112basic_stringIcSt11char_traitsIcESaIcEEE
libkea-dhcp++.so.74:_ZN3isc4dhcp17Option6StatusCodeC2EN9__gnu_cxx17__normal_iteratorIPKhSt6vectorIhSaIhEEEES9_
libkea-dhcp++.so.74:_ZN3isc4dhcp17Option6StatusCodeC2EtRKNSt7__cxx1112basic_stringIcSt11char_traitsIcESaIcEEE
libkea-dhcp++.so.74:_ZN3isc4dhcp17OptionVendorClass6unpackEN9__gnu_cxx17__normal_iteratorIPKhSt6vectorIhSaIhEEEES9_
libkea-dhcp++.so.74:_ZN3isc4dhcp17OptionVendorClass8addTupleERKNS0_15OpaqueDataTupleE
libkea-dhcp++.so.74:_ZN3isc4dhcp17OptionVendorClass8setTupleEmRKNS0_15OpaqueDataTupleE
libkea-dhcp++.so.74:_ZN3isc4dhcp17OptionVendorClassC1ENS0_6Option8UniverseEN9__gnu_cxx17__normal_iteratorIPKhSt6vectorIhSaIhEEEESB_
libkea-dhcp++.so.74:_ZN3isc4dhcp17OptionVendorClassC1ENS0_6Option8UniverseEj
libkea-dhcp++.so.74:_ZN3isc4dhcp17OptionVendorClassC2ENS0_6Option8UniverseEN9__gnu_cxx17__normal_iteratorIPKhSt6vectorIhSaIhEEEESB_
libkea-dhcp++.so.74:_ZN3isc4dhcp17OptionVendorClassC2ENS0_6Option8UniverseEj
libkea-dhcp++.so.74:_ZN3isc4dhcp17decodeIpUdpHeaderERNS_4util11InputBufferERN5boost10shared_ptrINS0_4Pkt4EEE
libkea-dhcp++.so.74:_ZN3isc4dhcp18IdentifierBaseTypeD0Ev
libkea-dhcp++.so.74:_ZN3isc4dhcp18IdentifierBaseTypeD1Ev
libkea-dhcp++.so.74:_ZN3isc4dhcp18IdentifierBaseTypeD2Ev
libkea-dhcp++.so.74:_ZN3isc4dhcp18OptionDataTypeUtil10readPrefixERKSt6vectorIhSaIhEE
libkea-dhcp++.so.74:_ZN3isc4dhcp18OptionDataTypeUtil10readStringB5cxx11ERKSt6vectorIhSaIhEE
libkea-dhcp++.so.74:_ZN3isc4dhcp18OptionDataTypeUtil10writeTupleERKNS0_15OpaqueDataTupleERSt6vectorIhSaIhEE
libkea-dhcp++.so.74:_ZN3isc4dhcp18OptionDataTypeUtil10writeTupleERKNSt7__cxx1112basic_stringIcSt11char_traitsIcESaIcEEENS0_15OpaqueDataTuple15LengthFieldTypeERSt6vectorIhSaIhEE
libkea-dhcp++.so.74:_ZN3isc4dhcp18OptionDataTypeUtil11getDataTypeERKNSt7__cxx1112basic_stringIcSt11char_traitsIcESaIcEEE
libkea-dhcp++.so.74:_ZN3isc4dhcp18OptionDataTypeUtil11readAddressERKSt6vectorIhSaIhEEs
libkea-dhcp++.so.74:_ZN3isc4dhcp18OptionDataTypeUtil11writeBinaryERKNSt7__cxx1112basic_stringIcSt11char_traitsIcESaIcEEERSt6vectorIhSaIhEE
libkea-dhcp++.so.74:_ZN3isc4dhcp18OptionDataTypeUtil11writePrefixERKNS0_9PrefixLenERKNS_8asiolink9IOAddressERSt6vectorIhSaIhEE
libkea-dhcp++.so.74:_ZN3isc4dhcp18OptionDataTypeUtil11writeStringERKNSt7__cxx1112basic_stringIcSt11char_traitsIcESaIcEEERSt6vectorIhSaIhEE
libkea-dhcp++.so.74:_ZN3isc4dhcp18OptionDataTypeUtil12writeAddressERKNS_8asiolink9IOAddressERSt6vectorIhSaIhEE
libkea-dhcp++.so.74:_ZN3isc4dhcp18OptionDataTypeUtil13getLabelCountERKNSt7__cxx1112basic_stringIcSt11char_traitsIcESaIcEEE
libkea-dhcp++.so.74:_ZN3isc4dhcp18OptionDataTypeUtil14getDataTypeLenENS0_14OptionDataTypeE
libkea-dhcp++.so.74:_ZN3isc4dhcp18OptionDataTypeUtil15getDataTypeNameB5cxx11ENS0_14OptionDataTypeE
libkea-dhcp++.so.74:_ZN3isc4dhcp18OptionDataTypeUtil20getTupleLenFieldTypeENS0_6Option8UniverseE
libkea-dhcp++.so.74:_ZN3isc4dhcp18OptionDataTypeUtil8instanceEv
libkea-dhcp++.so.74:_ZN3isc4dhcp18OptionDataTypeUtil8readBoolERKSt6vectorIhSaIhEE
libkea-dhcp++.so.74:_ZN3isc4dhcp18OptionDataTypeUtil8readFqdnB5cxx11ERKSt6vectorIhSaIhEE
libkea-dhcp++.so.74:_ZN3isc4dhcp18OptionDataTypeUtil8readPsidERKSt6vectorIhSaIhEE
libkea-dhcp++.so.74:_ZN3isc4dhcp18OptionDataTypeUtil9readTupleB5cxx11ERKSt6vectorIhSaIhEENS0_15OpaqueDataTuple15LengthFieldTypeE
libkea-dhcp++.so.74:_ZN3isc4dhcp18OptionDataTypeUtil9readTupleERKSt6vectorIhSaIhEERNS0_15OpaqueDataTupleE
libkea-dhcp++.so.74:_ZN3isc4dhcp18OptionDataTypeUtil9writeBoolEbRSt6vectorIhSaIhEE
libkea-dhcp++.so.74:_ZN3isc4dhcp18OptionDataTypeUtil9writeFqdnERKNSt7__cxx1112basic_stringIcSt11char_traitsIcESaIcEEERSt6vectorIhSaIhEEb
libkea-dhcp++.so.74:_ZN3isc4dhcp18OptionDataTypeUtil9writePsidERKNS0_7PSIDLenERKNS0_4PSIDERSt6vectorIhSaIhEE
libkea-dhcp++.so.74:_ZN3isc4dhcp18OptionDataTypeUtilC1Ev
libkea-dhcp++.so.74:_ZN3isc4dhcp18OptionDataTypeUtilC2Ev
libkea-dhcp++.so.74:_ZN3isc4dhcp19writeEthernetHeaderERKN5boost10shared_ptrINS0_4Pkt4EEERNS_4util12OutputBufferE
libkea-dhcp++.so.74:_ZN3isc4dhcp20decodeEthernetHeaderERNS_4util11InputBufferERN5boost10shared_ptrINS0_4Pkt4EEE
libkea-dhcp++.so.74:_ZN3isc4dhcp21Option4ClientFqdnImpl10checkFlagsEhb
libkea-dhcp++.so.74:_ZN3isc4dhcp21Option4ClientFqdnImpl13parseWireDataEN9__gnu_cxx17__normal_iteratorIPKhSt6vectorIhSaIhEEEES9_
libkea-dhcp++.so.74:_ZN3isc4dhcp21Option4ClientFqdnImpl13setDomainNameERKNSt7__cxx1112basic_stringIcSt11char_traitsIcESaIcEEENS0_17Option4ClientFqdn14DomainNameTypeE
libkea-dhcp++.so.74:_ZN3isc4dhcp21Option4ClientFqdnImpl20parseASCIIDomainNameEN9__gnu_cxx17__normal_iteratorIPKhSt6vectorIhSaIhEEEES9_
libkea-dhcp++.so.74:_ZN3isc4dhcp21Option4ClientFqdnImpl24parseCanonicalDomainNameEN9__gnu_cxx17__normal_iteratorIPKhSt6vectorIhSaIhEEEES9_
libkea-dhcp++.so.74:_ZN3isc4dhcp21Option4ClientFqdnImplC1EN9__gnu_cxx17__normal_iteratorIPKhSt6vectorIhSaIhEEEES9_
libkea-dhcp++.so.74:_ZN3isc4dhcp21Option4ClientFqdnImplC1ERKS1_
libkea-dhcp++.so.74:_ZN3isc4dhcp21Option4ClientFqdnImplC1EhRKNS0_17Option4ClientFqdn5RcodeERKNSt7__cxx1112basic_stringIcSt11char_traitsIcESaIcEEENS2_14DomainNameTypeE
libkea-dhcp++.so.74:_ZN3isc4dhcp21Option4ClientFqdnImplC2EN9__gnu_cxx17__normal_iteratorIPKhSt6vectorIhSaIhEEEES9_
libkea-dhcp++.so.74:_ZN3isc4dhcp21Option4ClientFqdnImplC2ERKS1_
libkea-dhcp++.so.74:_ZN3isc4dhcp21Option4ClientFqdnImplC2EhRKNS0_17Option4ClientFqdn5RcodeERKNSt7__cxx1112basic_stringIcSt11char_traitsIcESaIcEEENS2_14DomainNameTypeE
libkea-dhcp++.so.74:_ZN3isc4dhcp21Option4ClientFqdnImplaSERKS1_
libkea-dhcp++.so.74:_ZN3isc4dhcp21Option6ClientFqdnImpl10checkFlagsEhb
libkea-dhcp++.so.74:_ZN3isc4dhcp21Option6ClientFqdnImpl13parseWireDataEN9__gnu_cxx17__normal_iteratorIPKhSt6vectorIhSaIhEEEES9_
libkea-dhcp++.so.74:_ZN3isc4dhcp21Option6ClientFqdnImpl13setDomainNameERKNSt7__cxx1112basic_stringIcSt11char_traitsIcESaIcEEENS0_17Option6ClientFqdn14DomainNameTypeE
libkea-dhcp++.so.74:_ZN3isc4dhcp21Option6ClientFqdnImplC1EN9__gnu_cxx17__normal_iteratorIPKhSt6vectorIhSaIhEEEES9_
libkea-dhcp++.so.74:_ZN3isc4dhcp21Option6ClientFqdnImplC1ERKS1_
libkea-dhcp++.so.74:_ZN3isc4dhcp21Option6ClientFqdnImplC1EhRKNSt7__cxx1112basic_stringIcSt11char_traitsIcESaIcEEENS0_17Option6ClientFqdn14DomainNameTypeE
libkea-dhcp++.so.74:_ZN3isc4dhcp21Option6ClientFqdnImplC2EN9__gnu_cxx17__normal_iteratorIPKhSt6vectorIhSaIhEEEES9_
libkea-dhcp++.so.74:_ZN3isc4dhcp21Option6ClientFqdnImplC2ERKS1_
libkea-dhcp++.so.74:_ZN3isc4dhcp21Option6ClientFqdnImplC2EhRKNSt7__cxx1112basic_stringIcSt11char_traitsIcESaIcEEENS0_17Option6ClientFqdn14DomainNameTypeE
libkea-dhcp++.so.74:_ZN3isc4dhcp21Option6ClientFqdnImplaSERKS1_
libkea-dhcp++.so.74:_ZN3isc4dhcp22Option4SlpServiceScope6unpackEN9__gnu_cxx17__normal_iteratorIPKhSt6vectorIhSaIhEEEES9_
libkea-dhcp++.so.74:_ZN3isc4dhcp22Option4SlpServiceScopeC1EN9__gnu_cxx17__normal_iteratorIPKhSt6vectorIhSaIhEEEES9_
libkea-dhcp++.so.74:_ZN3isc4dhcp22Option4SlpServiceScopeC1EbRKNSt7__cxx1112basic_stringIcSt11char_traitsIcESaIcEEE
libkea-dhcp++.so.74:_ZN3isc4dhcp22Option4SlpServiceScopeC2EN9__gnu_cxx17__normal_iteratorIPKhSt6vectorIhSaIhEEEES9_
libkea-dhcp++.so.74:_ZN3isc4dhcp22Option4SlpServiceScopeC2EbRKNSt7__cxx1112basic_stringIcSt11char_traitsIcESaIcEEE
libkea-dhcp++.so.74:_ZN3isc4dhcp22OptionOpaqueDataTuples6unpackEN9__gnu_cxx17__normal_iteratorIPKhSt6vectorIhSaIhEEEES9_
libkea-dhcp++.so.74:_ZN3isc4dhcp22OptionOpaqueDataTuples8addTupleERKNS0_15OpaqueDataTupleE
libkea-dhcp++.so.74:_ZN3isc4dhcp22OptionOpaqueDataTuples8setTupleEmRKNS0_15OpaqueDataTupleE
libkea-dhcp++.so.74:_ZN3isc4dhcp22OptionOpaqueDataTuplesC1ENS0_6Option8UniverseEtN9__gnu_cxx17__normal_iteratorIPKhSt6vectorIhSaIhEEEESB_NS0_15OpaqueDataTuple15LengthFieldTypeE
libkea-dhcp++.so.74:_ZN3isc4dhcp22OptionOpaqueDataTuplesC1ENS0_6Option8UniverseEtNS0_15OpaqueDataTuple15LengthFieldTypeE
libkea-dhcp++.so.74:_ZN3isc4dhcp22OptionOpaqueDataTuplesC2ENS0_6Option8UniverseEtN9__gnu_cxx17__normal_iteratorIPKhSt6vectorIhSaIhEEEESB_NS0_15OpaqueDataTuple15LengthFieldTypeE
libkea-dhcp++.so.74:_ZN3isc4dhcp22OptionOpaqueDataTuplesC2ENS0_6Option8UniverseEtNS0_15OpaqueDataTuple15LengthFieldTypeE
libkea-dhcp++.so.74:_ZN3isc4dhcp3Pkt10getOptionsEt
libkea-dhcp++.so.74:_ZN3isc4dhcp3Pkt11addSubClassERKNSt7__cxx1112basic_stringIcSt11char_traitsIcESaIcEEES9_
libkea-dhcp++.so.74:_ZN3isc4dhcp3Pkt12cloneOptionsEv
libkea-dhcp++.so.74:_ZN3isc4dhcp3Pkt14getMACFromIPv6ERKNS_8asiolink9IOAddressE
libkea-dhcp++.so.74:_ZN3isc4dhcp3Pkt15setHWAddrMemberEhhRKSt6vectorIhSaIhEERN5boost10shared_ptrINS0_6HWAddrEEE
libkea-dhcp++.so.74:_ZN3isc4dhcp3Pkt15setRemoteHWAddrERKN5boost10shared_ptrINS0_6HWAddrEEE
libkea-dhcp++.so.74:_ZN3isc4dhcp3Pkt15setRemoteHWAddrEhhRKSt6vectorIhSaIhEE
libkea-dhcp++.so.74:_ZN3isc4dhcp3Pkt15updateTimestampEv
libkea-dhcp++.so.74:_ZN3isc4dhcp3Pkt6getMACEj
libkea-dhcp++.so.74:_ZN3isc4dhcp3Pkt6repackEv
libkea-dhcp++.so.74:_ZN3isc4dhcp3Pkt7inClassERKNSt7__cxx1112basic_stringIcSt11char_traitsIcESaIcEEE
libkea-dhcp++.so.74:_ZN3isc4dhcp3Pkt8addClassERKNSt7__cxx1112basic_stringIcSt11char_traitsIcESaIcEEEb
libkea-dhcp++.so.74:_ZN3isc4dhcp3Pkt9addOptionERKN5boost10shared_ptrINS0_6OptionEEE
libkea-dhcp++.so.74:_ZN3isc4dhcp3Pkt9delOptionEt
libkea-dhcp++.so.74:_ZN3isc4dhcp3Pkt9getOptionEt
libkea-dhcp++.so.74:_ZN3isc4dhcp3PktC1EPKhjRKNS_8asiolink9IOAddressES7_tt
libkea-dhcp++.so.74:_ZN3isc4dhcp3PktC1EjRKNS_8asiolink9IOAddressES5_tt
libkea-dhcp++.so.74:_ZN3isc4dhcp3PktC2EPKhjRKNS_8asiolink9IOAddressES7_tt
libkea-dhcp++.so.74:_ZN3isc4dhcp3PktC2EjRKNS_8asiolink9IOAddressES5_tt
libkea-dhcp++.so.74:_ZN3isc4dhcp4DUID5EMPTYEv
libkea-dhcp++.so.74:_ZN3isc4dhcp4DUID8fromTextERKNSt7__cxx1112basic_stringIcSt11char_traitsIcESaIcEEE
libkea-dhcp++.so.74:_ZN3isc4dhcp4DUIDC1EPKhm
libkea-dhcp++.so.74:_ZN3isc4dhcp4DUIDC1ERKSt6vectorIhSaIhEE
libkea-dhcp++.so.74:_ZN3isc4dhcp4DUIDC2EPKhm
libkea-dhcp++.so.74:_ZN3isc4dhcp4DUIDC2ERKSt6vectorIhSaIhEE
libkea-dhcp++.so.74:_ZN3isc4dhcp4Pkt414setLocalHWAddrERKN5boost10shared_ptrINS0_6HWAddrEEE
libkea-dhcp++.so.74:_ZN3isc4dhcp4Pkt414setLocalHWAddrEhhRKSt6vectorIhSaIhEE
libkea-dhcp++.so.74:_ZN3isc4dhcp4Pkt415setHWAddrMemberEhhRKSt6vectorIhSaIhEERN5boost10shared_ptrINS0_6HWAddrEEE
libkea-dhcp++.so.74:_ZN3isc4dhcp4Pkt419DHCPTypeToBootpTypeEh
libkea-dhcp++.so.74:_ZN3isc4dhcp4Pkt43lenEv
libkea-dhcp++.so.74:_ZN3isc4dhcp4Pkt44packEv
libkea-dhcp++.so.74:_ZN3isc4dhcp4Pkt46unpackEv
libkea-dhcp++.so.74:_ZN3isc4dhcp4Pkt47getNameEh
libkea-dhcp++.so.74:_ZN3isc4dhcp4Pkt47setFileEPKhm
libkea-dhcp++.so.74:_ZN3isc4dhcp4Pkt47setTypeEh
libkea-dhcp++.so.74:_ZN3isc4dhcp4Pkt48setSnameEPKhm
libkea-dhcp++.so.74:_ZN3isc4dhcp4Pkt49addOptionERKN5boost10shared_ptrINS0_6OptionEEE
libkea-dhcp++.so.74:_ZN3isc4dhcp4Pkt49makeLabelB5cxx11ERKN5boost10shared_ptrINS0_6HWAddrEEERKNS3_INS0_8ClientIdEEE
libkea-dhcp++.so.74:_ZN3isc4dhcp4Pkt49makeLabelB5cxx11ERKN5boost10shared_ptrINS0_6HWAddrEEERKNS3_INS0_8ClientIdEEEj
libkea-dhcp++.so.74:_ZN3isc4dhcp4Pkt49setHWAddrERKN5boost10shared_ptrINS0_6HWAddrEEE
libkea-dhcp++.so.74:_ZN3isc4dhcp4Pkt49setHWAddrEhhRKSt6vectorIhSaIhEE
libkea-dhcp++.so.74:_ZN3isc4dhcp4Pkt4C1EPKhm
libkea-dhcp++.so.74:_ZN3isc4dhcp4Pkt4C1Ehj
libkea-dhcp++.so.74:_ZN3isc4dhcp4Pkt4C2EPKhm
libkea-dhcp++.so.74:_ZN3isc4dhcp4Pkt4C2Ehj
libkea-dhcp++.so.74:_ZN3isc4dhcp4Pkt612addRelayInfoERKNS1_9RelayInfoE
libkea-dhcp++.so.74:_ZN3isc4dhcp4Pkt613copyRelayInfoERKN5boost10shared_ptrIS1_EE
libkea-dhcp++.so.74:_ZN3isc4dhcp4Pkt614getMACFromDUIDEv
libkea-dhcp++.so.74:_ZN3isc4dhcp4Pkt614getRelayOptionEth
libkea-dhcp++.so.74:_ZN3isc4dhcp4Pkt614unpackRelayMsgEv
libkea-dhcp++.so.74:_ZN3isc4dhcp4Pkt615getRelayOptionsEth
libkea-dhcp++.so.74:_ZN3isc4dhcp4Pkt617getAnyRelayOptionEtRKNS1_16RelaySearchOrderE
libkea-dhcp++.so.74:_ZN3isc4dhcp4Pkt618getAllRelayOptionsEtRKNS1_16RelaySearchOrderE
libkea-dhcp++.so.74:_ZN3isc4dhcp4Pkt619calculateRelaySizesEv
libkea-dhcp++.so.74:_ZN3isc4dhcp4Pkt620getMACFromDocsisCMTSEv
libkea-dhcp++.so.74:_ZN3isc4dhcp4Pkt621getMACFromDocsisModemEv
libkea-dhcp++.so.74:_ZN3isc4dhcp4Pkt622getMACFromIPv6RelayOptEv
libkea-dhcp++.so.74:_ZN3isc4dhcp4Pkt626getMACFromSrcLinkLocalAddrEv
libkea-dhcp++.so.74:_ZN3isc4dhcp4Pkt629getMACFromRemoteIdRelayOptionEv
libkea-dhcp++.so.74:_ZN3isc4dhcp4Pkt63lenEv
libkea-dhcp++.so.74:_ZN3isc4dhcp4Pkt64packEv
libkea-dhcp++.so.74:_ZN3isc4dhcp4Pkt66unpackEv
libkea-dhcp++.so.74:_ZN3isc4dhcp4Pkt67getNameEh
libkea-dhcp++.so.74:_ZN3isc4dhcp4Pkt67packTCPEv
libkea-dhcp++.so.74:_ZN3isc4dhcp4Pkt67packUDPEv
libkea-dhcp++.so.74:_ZN3isc4dhcp4Pkt69RelayInfoC1Ev
libkea-dhcp++.so.74:_ZN3isc4dhcp4Pkt69RelayInfoC2Ev
libkea-dhcp++.so.74:_ZN3isc4dhcp4Pkt69makeLabelB5cxx11EN5boost10shared_ptrINS0_4DUIDEEERKNS3_INS0_6HWAddrEEE
libkea-dhcp++.so.74:_ZN3isc4dhcp4Pkt69makeLabelB5cxx11EN5boost10shared_ptrINS0_4DUIDEEEjRKNS3_INS0_6HWAddrEEE
libkea-dhcp++.so.74:_ZN3isc4dhcp4Pkt69unpackMsgEN9__gnu_cxx17__normal_iteratorIPKhSt6vectorIhSaIhEEEES9_
libkea-dhcp++.so.74:_ZN3isc4dhcp4Pkt69unpackTCPEv
libkea-dhcp++.so.74:_ZN3isc4dhcp4Pkt69unpackUDPEv
libkea-dhcp++.so.74:_ZN3isc4dhcp4Pkt6C1EPKhjNS1_11DHCPv6ProtoE
libkea-dhcp++.so.74:_ZN3isc4dhcp4Pkt6C1EhjNS1_11DHCPv6ProtoE
libkea-dhcp++.so.74:_ZN3isc4dhcp4Pkt6C2EPKhjNS1_11DHCPv6ProtoE
libkea-dhcp++.so.74:_ZN3isc4dhcp4Pkt6C2EhjNS1_11DHCPv6ProtoE
libkea-dhcp++.so.74:_ZN3isc4dhcp5Iface10addAddressERKNS_8asiolink9IOAddressE
libkea-dhcp++.so.74:_ZN3isc4dhcp5Iface10addUnicastERKNS_8asiolink9IOAddressE
libkea-dhcp++.so.74:_ZN3isc4dhcp5Iface10delAddressERKNS_8asiolink9IOAddressE
libkea-dhcp++.so.74:_ZN3isc4dhcp5Iface11clearErrorsEv
libkea-dhcp++.so.74:_ZN3isc4dhcp5Iface12closeSocketsEt
libkea-dhcp++.so.74:_ZN3isc4dhcp5Iface12closeSocketsEv
libkea-dhcp++.so.74:_ZN3isc4dhcp5Iface6setMacEPKhm
libkea-dhcp++.so.74:_ZN3isc4dhcp5Iface8addErrorERKNSt7__cxx1112basic_stringIcSt11char_traitsIcESaIcEEE
libkea-dhcp++.so.74:_ZN3isc4dhcp5Iface8setFlagsEm
libkea-dhcp++.so.74:_ZN3isc4dhcp5Iface9delSocketEt
libkea-dhcp++.so.74:_ZN3isc4dhcp5Iface9setActiveERKNS_8asiolink9IOAddressEb
libkea-dhcp++.so.74:_ZN3isc4dhcp5Iface9setActiveEb
libkea-dhcp++.so.74:_ZN3isc4dhcp5IfaceC1ERKNSt7__cxx1112basic_stringIcSt11char_traitsIcESaIcEEEj
libkea-dhcp++.so.74:_ZN3isc4dhcp5IfaceC2ERKNSt7__cxx1112basic_stringIcSt11char_traitsIcESaIcEEEj
libkea-dhcp++.so.74:_ZN3isc4dhcp6HWAddr8fromTextERKNSt7__cxx1112basic_stringIcSt11char_traitsIcESaIcEEEt
libkea-dhcp++.so.74:_ZN3isc4dhcp6HWAddrC1EPKhmt
libkea-dhcp++.so.74:_ZN3isc4dhcp6HWAddrC1ERKSt6vectorIhSaIhEEt
libkea-dhcp++.so.74:_ZN3isc4dhcp6HWAddrC1Ev
libkea-dhcp++.so.74:_ZN3isc4dhcp6HWAddrC2EPKhmt
libkea-dhcp++.so.74:_ZN3isc4dhcp6HWAddrC2ERKSt6vectorIhSaIhEEt
libkea-dhcp++.so.74:_ZN3isc4dhcp6HWAddrC2Ev
libkea-dhcp++.so.74:_ZN3isc4dhcp6Option13unpackOptionsERKSt6vectorIhSaIhEE
libkea-dhcp++.so.74:_ZN3isc4dhcp6Option6createENS1_8UniverseEt
libkea-dhcp++.so.74:_ZN3isc4dhcp6Option6createENS1_8UniverseEtRKSt6vectorIhSaIhEE
libkea-dhcp++.so.74:_ZN3isc4dhcp6Option6unpackEN9__gnu_cxx17__normal_iteratorIPKhSt6vectorIhSaIhEEEES9_
libkea-dhcp++.so.74:_ZN3isc4dhcp6Option7factoryENS1_8UniverseEtRKSt6vectorIhSaIhEE
libkea-dhcp++.so.74:_ZN3isc4dhcp6Option8setUint8Eh
libkea-dhcp++.so.74:_ZN3isc4dhcp6Option9addOptionEN5boost10shared_ptrIS1_EE
libkea-dhcp++.so.74:_ZN3isc4dhcp6Option9delOptionEt
libkea-dhcp++.so.74:_ZN3isc4dhcp6Option9setUint16Et
libkea-dhcp++.so.74:_ZN3isc4dhcp6Option9setUint32Ej
libkea-dhcp++.so.74:_ZN3isc4dhcp6OptionC1ENS1_8UniverseEt
libkea-dhcp++.so.74:_ZN3isc4dhcp6OptionC1ENS1_8UniverseEtN9__gnu_cxx17__normal_iteratorIPKhSt6vectorIhSaIhEEEESA_
libkea-dhcp++.so.74:_ZN3isc4dhcp6OptionC1ENS1_8UniverseEtRKSt6vectorIhSaIhEE
libkea-dhcp++.so.74:_ZN3isc4dhcp6OptionC1ERKS1_
libkea-dhcp++.so.74:_ZN3isc4dhcp6OptionC2ENS1_8UniverseEt
libkea-dhcp++.so.74:_ZN3isc4dhcp6OptionC2ENS1_8UniverseEtN9__gnu_cxx17__normal_iteratorIPKhSt6vectorIhSaIhEEEESA_
libkea-dhcp++.so.74:_ZN3isc4dhcp6OptionC2ENS1_8UniverseEtRKSt6vectorIhSaIhEE
libkea-dhcp++.so.74:_ZN3isc4dhcp6OptionC2ERKS1_
libkea-dhcp++.so.74:_ZN3isc4dhcp6OptionD0Ev
libkea-dhcp++.so.74:_ZN3isc4dhcp6OptionD1Ev
libkea-dhcp++.so.74:_ZN3isc4dhcp6OptionD2Ev
libkea-dhcp++.so.74:_ZN3isc4dhcp6OptionaSERKS1_
libkea-dhcp++.so.74:_ZN3isc4dhcp6Pkt4o623setCopyRetrievedOptionsEb
libkea-dhcp++.so.74:_ZN3isc4dhcp6Pkt4o64packEv
libkea-dhcp++.so.74:_ZN3isc4dhcp6Pkt4o6C1ERKN5boost10shared_ptrINS0_4Pkt4EEERKNS3_INS0_4Pkt6EEE
libkea-dhcp++.so.74:_ZN3isc4dhcp6Pkt4o6C1ERKSt6vectorIhSaIhEERKN5boost10shared_ptrINS0_4Pkt6EEE
libkea-dhcp++.so.74:_ZN3isc4dhcp6Pkt4o6C2ERKN5boost10shared_ptrINS0_4Pkt4EEERKNS3_INS0_4Pkt6EEE
libkea-dhcp++.so.74:_ZN3isc4dhcp6Pkt4o6C2ERKSt6vectorIhSaIhEERKN5boost10shared_ptrINS0_4Pkt6EEE
libkea-dhcp++.so.74:_ZN3isc4dhcp7LibDHCP12fuseOptions4ERSt8multimapIjN5boost10shared_ptrINS0_6OptionEEESt4lessIjESaISt4pairIKjS6_EEE
libkea-dhcp++.so.74:_ZN3isc4dhcp7LibDHCP12getOptionDefERKNSt7__cxx1112basic_stringIcSt11char_traitsIcESaIcEEES9_
libkea-dhcp++.so.74:_ZN3isc4dhcp7LibDHCP12getOptionDefERKNSt7__cxx1112basic_stringIcSt11char_traitsIcESaIcEEEt
libkea-dhcp++.so.74:_ZN3isc4dhcp7LibDHCP12packOptions4ERNS_4util12OutputBufferERKSt8multimapIjN5boost10shared_ptrINS0_6OptionEEESt4lessIjESaISt4pairIKjS9_EEEbb
libkea-dhcp++.so.74:_ZN3isc4dhcp7LibDHCP12packOptions6ERNS_4util12OutputBufferERKSt8multimapIjN5boost10shared_ptrINS0_6OptionEEESt4lessIjESaISt4pairIKjS9_EEE
libkea-dhcp++.so.74:_ZN3isc4dhcp7LibDHCP13getOptionDefsERKNSt7__cxx1112basic_stringIcSt11char_traitsIcESaIcEEE
libkea-dhcp++.so.74:_ZN3isc4dhcp7LibDHCP13optionFactoryENS0_6Option8UniverseEtRKSt6vectorIhSaIhEE
libkea-dhcp++.so.74:_ZN3isc4dhcp7LibDHCP13splitOptions4ERSt8multimapIjN5boost10shared_ptrINS0_6OptionEEESt4lessIjESaISt4pairIKjS6_EEERSt6vectorISt10shared_ptrINS0_20ScopedSubOptionsCopyEESaISI_EEj
libkea-dhcp++.so.74:_ZN3isc4dhcp7LibDHCP14initOptionDefsEv
libkea-dhcp++.so.74:_ZN3isc4dhcp7LibDHCP14unpackOptions4ERKSt6vectorIhSaIhEERKNSt7__cxx1112basic_stringIcSt11char_traitsIcESaIcEEERSt8multimapIjN5boost10shared_ptrINS0_6OptionEEESt4lessIjESaISt4pairIKjSJ_EEERNS7_4listItSaItEEEb
libkea-dhcp++.so.74:_ZN3isc4dhcp7LibDHCP14unpackOptions6ERKSt6vectorIhSaIhEERKNSt7__cxx1112basic_stringIcSt11char_traitsIcESaIcEEERSt8multimapIjN5boost10shared_ptrINS0_6OptionEEESt4lessIjESaISt4pairIKjSJ_EEEPmSS_
libkea-dhcp++.so.74:_ZN3isc4dhcp7LibDHCP18getVendorOptionDefENS0_6Option8UniverseEjRKNSt7__cxx1112basic_stringIcSt11char_traitsIcESaIcEEE
libkea-dhcp++.so.74:_ZN3isc4dhcp7LibDHCP18getVendorOptionDefENS0_6Option8UniverseEjt
libkea-dhcp++.so.74:_ZN3isc4dhcp7LibDHCP19getRuntimeOptionDefERKNSt7__cxx1112basic_stringIcSt11char_traitsIcESaIcEEES9_
libkea-dhcp++.so.74:_ZN3isc4dhcp7LibDHCP19getRuntimeOptionDefERKNSt7__cxx1112basic_stringIcSt11char_traitsIcESaIcEEEt
libkea-dhcp++.so.74:_ZN3isc4dhcp7LibDHCP19getVendorOptionDefsB5cxx11ENS0_6Option8UniverseEj
libkea-dhcp++.so.74:_ZN3isc4dhcp7LibDHCP20extendVendorOptions4ERSt8multimapIjN5boost10shared_ptrINS0_6OptionEEESt4lessIjESaISt4pairIKjS6_EEE
libkea-dhcp++.so.74:_ZN3isc4dhcp7LibDHCP20getRuntimeOptionDefsERKNSt7__cxx1112basic_stringIcSt11char_traitsIcESaIcEEE
libkea-dhcp++.so.74:_ZN3isc4dhcp7LibDHCP20setRuntimeOptionDefsERKNS0_23OptionDefSpaceContainerE
libkea-dhcp++.so.74:_ZN3isc4dhcp7LibDHCP20unpackVendorOptions4EjRKSt6vectorIhSaIhEERSt8multimapIjN5boost10shared_ptrINS0_6OptionEEESt4lessIjESaISt4pairIKjSB_EEE
libkea-dhcp++.so.74:_ZN3isc4dhcp7LibDHCP20unpackVendorOptions6EjRKSt6vectorIhSaIhEERSt8multimapIjN5boost10shared_ptrINS0_6OptionEEESt4lessIjESaISt4pairIKjSB_EEE
libkea-dhcp++.so.74:_ZN3isc4dhcp7LibDHCP21OptionFactoryRegisterENS0_6Option8UniverseEtPFN5boost10shared_ptrIS2_EES3_tRKSt6vectorIhSaIhEEE
libkea-dhcp++.so.74:_ZN3isc4dhcp7LibDHCP21optionSpaceToVendorIdERKNSt7__cxx1112basic_stringIcSt11char_traitsIcESaIcEEE
libkea-dhcp++.so.74:_ZN3isc4dhcp7LibDHCP22clearRuntimeOptionDefsEv
libkea-dhcp++.so.74:_ZN3isc4dhcp7LibDHCP22getLastResortOptionDefERKNSt7__cxx1112basic_stringIcSt11char_traitsIcESaIcEEES9_
libkea-dhcp++.so.74:_ZN3isc4dhcp7LibDHCP22getLastResortOptionDefERKNSt7__cxx1112basic_stringIcSt11char_traitsIcESaIcEEEt
libkea-dhcp++.so.74:_ZN3isc4dhcp7LibDHCP23commitRuntimeOptionDefsEv
libkea-dhcp++.so.74:_ZN3isc4dhcp7LibDHCP23getLastResortOptionDefsERKNSt7__cxx1112basic_stringIcSt11char_traitsIcESaIcEEE
libkea-dhcp++.so.74:_ZN3isc4dhcp7LibDHCP23revertRuntimeOptionDefsEv
libkea-dhcp++.so.74:_ZN3isc4dhcp7LibDHCP23shouldDeferOptionUnpackERKNSt7__cxx1112basic_stringIcSt11char_traitsIcESaIcEEEt
libkea-dhcp++.so.74:_ZN3isc4dhcp8ClientId8fromTextERKNSt7__cxx1112basic_stringIcSt11char_traitsIcESaIcEEE
libkea-dhcp++.so.74:_ZN3isc4dhcp8ClientIdC1EPKhm
libkea-dhcp++.so.74:_ZN3isc4dhcp8ClientIdC1ERKSt6vectorIhSaIhEE
libkea-dhcp++.so.74:_ZN3isc4dhcp8ClientIdC2EPKhm
libkea-dhcp++.so.74:_ZN3isc4dhcp8ClientIdC2ERKSt6vectorIhSaIhEE
libkea-dhcp++.so.74:_ZN3isc4dhcp8IfaceMgr10addFDtoSetEiRiP6fd_set
libkea-dhcp++.so.74:_ZN3isc4dhcp8IfaceMgr10openSocketERKNSt7__cxx1112basic_stringIcSt11char_traitsIcESaIcEEERKNS_8asiolink9IOAddressEtbb
libkea-dhcp++.so.74:_ZN3isc4dhcp8IfaceMgr11clearIfacesEv
libkea-dhcp++.so.74:_ZN3isc4dhcp8IfaceMgr11instancePtrEv
libkea-dhcp++.so.74:_ZN3isc4dhcp8IfaceMgr11openSocket4ERNS0_5IfaceERKNS_8asiolink9IOAddressEtbb
libkea-dhcp++.so.74:_ZN3isc4dhcp8IfaceMgr11openSocket6ERNS0_5IfaceERKNS_8asiolink9IOAddressEtb
libkea-dhcp++.so.74:_ZN3isc4dhcp8IfaceMgr11printIfacesERSo
libkea-dhcp++.so.74:_ZN3isc4dhcp8IfaceMgr12addInterfaceERKN5boost10shared_ptrINS0_5IfaceEEE
libkea-dhcp++.so.74:_ZN3isc4dhcp8IfaceMgr12closeSocketsEv
libkea-dhcp++.so.74:_ZN3isc4dhcp8IfaceMgr12detectIfacesEb
libkea-dhcp++.so.74:_ZN3isc4dhcp8IfaceMgr12openSockets4EtbSt8functionIFvRKNSt7__cxx1112basic_stringIcSt11char_traitsIcESaIcEEEEEb
libkea-dhcp++.so.74:_ZN3isc4dhcp8IfaceMgr12openSockets6EtSt8functionIFvRKNSt7__cxx1112basic_stringIcSt11char_traitsIcESaIcEEEEEb
libkea-dhcp++.so.74:_ZN3isc4dhcp8IfaceMgr13clearUnicastsEv
libkea-dhcp++.so.74:_ZN3isc4dhcp8IfaceMgr14receive4DirectEjj
libkea-dhcp++.so.74:_ZN3isc4dhcp8IfaceMgr14receive6DirectEjj
libkea-dhcp++.so.74:_ZN3isc4dhcp8IfaceMgr15getLocalAddressERKNS_8asiolink9IOAddressEt
libkea-dhcp++.so.74:_ZN3isc4dhcp8IfaceMgr15purgeBadSocketsEv
libkea-dhcp++.so.74:_ZN3isc4dhcp8IfaceMgr15setPacketFilterERKN5boost10shared_ptrINS0_10PktFilter6EEE
libkea-dhcp++.so.74:_ZN3isc4dhcp8IfaceMgr15setPacketFilterERKN5boost10shared_ptrINS0_9PktFilterEEE
libkea-dhcp++.so.74:_ZN3isc4dhcp8IfaceMgr16receive4IndirectEjj
libkea-dhcp++.so.74:_ZN3isc4dhcp8IfaceMgr16receive6IndirectEjj
libkea-dhcp++.so.74:_ZN3isc4dhcp8IfaceMgr16stopDHCPReceiverEv
libkea-dhcp++.so.74:_ZN3isc4dhcp8IfaceMgr17addExternalSocketEiSt8functionIFviEE
libkea-dhcp++.so.74:_ZN3isc4dhcp8IfaceMgr17checkDetectIfacesEb
libkea-dhcp++.so.74:_ZN3isc4dhcp8IfaceMgr17startDHCPReceiverEt
libkea-dhcp++.so.74:_ZN3isc4dhcp8IfaceMgr18receiveDHCP4PacketERNS0_5IfaceERKNS0_10SocketInfoE
libkea-dhcp++.so.74:_ZN3isc4dhcp8IfaceMgr18receiveDHCP6PacketERKNS0_10SocketInfoE
libkea-dhcp++.so.74:_ZN3isc4dhcp8IfaceMgr19clearBoundAddressesEv
libkea-dhcp++.so.74:_ZN3isc4dhcp8IfaceMgr19openMulticastSocketERNS0_5IfaceERKNS_8asiolink9IOAddressEtSt8functionIFvRKNSt7__cxx1112basic_stringIcSt11char_traitsIcESaIcEEEEE
libkea-dhcp++.so.74:_ZN3isc4dhcp8IfaceMgr19openSocketFromIfaceERKNSt7__cxx1112basic_stringIcSt11char_traitsIcESaIcEEEth
libkea-dhcp++.so.74:_ZN3isc4dhcp8IfaceMgr19receiveDHCP4PacketsEv
libkea-dhcp++.so.74:_ZN3isc4dhcp8IfaceMgr19receiveDHCP6PacketsEv
libkea-dhcp++.so.74:_ZN3isc4dhcp8IfaceMgr20deleteExternalSocketEi
libkea-dhcp++.so.74:_ZN3isc4dhcp8IfaceMgr21collectBoundAddressesEv
libkea-dhcp++.so.74:_ZN3isc4dhcp8IfaceMgr21openSocketFromAddressERKNS_8asiolink9IOAddressEt
libkea-dhcp++.so.74:_ZN3isc4dhcp8IfaceMgr23setMatchingPacketFilterEb
libkea-dhcp++.so.74:_ZN3isc4dhcp8IfaceMgr24configureDHCPPacketQueueEtN5boost10shared_ptrIKNS_4data7ElementEEE
libkea-dhcp++.so.74:_ZN3isc4dhcp8IfaceMgr24deleteAllExternalSocketsEv
libkea-dhcp++.so.74:_ZN3isc4dhcp8IfaceMgr27openSocketFromRemoteAddressERKNS_8asiolink9IOAddressEt
libkea-dhcp++.so.74:_ZN3isc4dhcp8IfaceMgr28deleteExternalSocketInternalEi
libkea-dhcp++.so.74:_ZN3isc4dhcp8IfaceMgr4sendERKN5boost10shared_ptrINS0_4Pkt4EEE
libkea-dhcp++.so.74:_ZN3isc4dhcp8IfaceMgr4sendERKN5boost10shared_ptrINS0_4Pkt6EEE
libkea-dhcp++.so.74:_ZN3isc4dhcp8IfaceMgr8getIfaceERKN5boost10shared_ptrINS0_3PktEEE
libkea-dhcp++.so.74:_ZN3isc4dhcp8IfaceMgr8getIfaceERKNSt7__cxx1112basic_stringIcSt11char_traitsIcESaIcEEE
libkea-dhcp++.so.74:_ZN3isc4dhcp8IfaceMgr8getIfaceEj
libkea-dhcp++.so.74:_ZN3isc4dhcp8IfaceMgr8instanceEv
libkea-dhcp++.so.74:_ZN3isc4dhcp8IfaceMgr8receive4Ejj
libkea-dhcp++.so.74:_ZN3isc4dhcp8IfaceMgr8receive6Ejj
libkea-dhcp++.so.74:_ZN3isc4dhcp8IfaceMgr9getSocketERKN5boost10shared_ptrINS0_4Pkt4EEE
libkea-dhcp++.so.74:_ZN3isc4dhcp8IfaceMgr9getSocketERKN5boost10shared_ptrINS0_4Pkt6EEE
libkea-dhcp++.so.74:_ZN3isc4dhcp8IfaceMgrC1Ev
libkea-dhcp++.so.74:_ZN3isc4dhcp8IfaceMgrC2Ev
libkea-dhcp++.so.74:_ZN3isc4dhcp8IfaceMgrD0Ev
libkea-dhcp++.so.74:_ZN3isc4dhcp8IfaceMgrD1Ev
libkea-dhcp++.so.74:_ZN3isc4dhcp8IfaceMgrD2Ev
libkea-dhcp++.so.74:_ZN3isc4dhcp9Option6IA6unpackEN9__gnu_cxx17__normal_iteratorIPKhSt6vectorIhSaIhEEEES9_
libkea-dhcp++.so.74:_ZN3isc4dhcp9Option6IAC1EtN9__gnu_cxx17__normal_iteratorIPKhSt6vectorIhSaIhEEEES9_
libkea-dhcp++.so.74:_ZN3isc4dhcp9Option6IAC1Etj
libkea-dhcp++.so.74:_ZN3isc4dhcp9Option6IAC2EtN9__gnu_cxx17__normal_iteratorIPKhSt6vectorIhSaIhEEEES9_
libkea-dhcp++.so.74:_ZN3isc4dhcp9Option6IAC2Etj
libkea-dhcp++.so.74:_ZN3isc4dhcp9PktFilter18openFallbackSocketERKNS_8asiolink9IOAddressEt
libkea-dhcp++.so.74:_ZN3isc4dhcplsERSoRKNS0_15OpaqueDataTupleE
libkea-dhcp++.so.74:_ZN3isc4dhcprsERSiRNS0_15OpaqueDataTupleE
libkea-dhcp++.so.74:_ZN5boost14dynamic_bitsetIhSaIhEE11m_not_emptyEh
libkea-dhcp++.so.74:_ZN5boost4asio6detail11executor_opINS1_17executor_functionESaIvENS1_19scheduler_operationEE11do_completeEPvPS5_RKNS_6system10error_codeEm
libkea-dhcp++.so.74:_ZN5boost4asio6detail13epoll_reactor16descriptor_state11do_completeEPvPNS1_19scheduler_operationERKNS_6system10error_codeEm
libkea-dhcp++.so.74:_ZN5boost4asio6detail16service_registry6createINS1_13epoll_reactorENS0_17execution_contextEEEPNS5_7serviceEPv
libkea-dhcp++.so.74:_ZN5boost4asio9execution6detail17any_executor_base10equal_voidERKS3_S5_
libkea-dhcp++.so.74:_ZN5boost4asio9execution6detail17any_executor_base10execute_exINS0_10io_context19basic_executor_typeISaIvELj0EEEEEvRKS3_ONS0_6detail17executor_functionE
libkea-dhcp++.so.74:_ZN5boost4asio9execution6detail17any_executor_base10execute_exINS0_10io_context19basic_executor_typeISaIvELj4EEEEEvRKS3_ONS0_6detail17executor_functionE
libkea-dhcp++.so.74:_ZN5boost4asio9execution6detail17any_executor_base10require_fnINS1_12any_executorIJNS1_12context_as_tIRNS0_17execution_contextEEENS2_8blocking7never_tILi0EEENS1_11prefer_onlyINSA_10possibly_tILi0EEEEENSD_INS2_16outstanding_work9tracked_tILi0EEEEENSD_INSH_11untracked_tILi0EEEEENSD_INS2_12relationship6fork_tILi0EEEEENSD_INSO_14continuation_tILi0EEEEEEEENS0_10io_context19basic_executor_typeISaIvELj0EEES9_EET_PKvS12_
libkea-dhcp++.so.74:_ZN5boost4asio9execution6detail17any_executor_base10require_fnINS1_12any_executorIJNS1_12context_as_tIRNS0_17execution_contextEEENS2_8blocking7never_tILi0EEENS1_11prefer_onlyINSA_10possibly_tILi0EEEEENSD_INS2_16outstanding_work9tracked_tILi0EEEEENSD_INSH_11untracked_tILi0EEEEENSD_INS2_12relationship6fork_tILi0EEEEENSD_INSO_14continuation_tILi0EEEEEEEENS0_10io_context19basic_executor_typeISaIvELj0EEESC_EET_PKvS12_
libkea-dhcp++.so.74:_ZN5boost4asio9execution6detail17any_executor_base10require_fnINS1_12any_executorIJNS1_12context_as_tIRNS0_17execution_contextEEENS2_8blocking7never_tILi0EEENS1_11prefer_onlyINSA_10possibly_tILi0EEEEENSD_INS2_16outstanding_work9tracked_tILi0EEEEENSD_INSH_11untracked_tILi0EEEEENSD_INS2_12relationship6fork_tILi0EEEEENSD_INSO_14continuation_tILi0EEEEEEEENS0_10io_context19basic_executor_typeISaIvELj0EEESG_EET_PKvS12_
libkea-dhcp++.so.74:_ZN5boost4asio9execution6detail17any_executor_base10require_fnINS1_12any_executorIJNS1_12context_as_tIRNS0_17execution_contextEEENS2_8blocking7never_tILi0EEENS1_11prefer_onlyINSA_10possibly_tILi0EEEEENSD_INS2_16outstanding_work9tracked_tILi0EEEEENSD_INSH_11untracked_tILi0EEEEENSD_INS2_12relationship6fork_tILi0EEEEENSD_INSO_14continuation_tILi0EEEEEEEENS0_10io_context19basic_executor_typeISaIvELj0EEESK_EET_PKvS12_
libkea-dhcp++.so.74:_ZN5boost4asio9execution6detail17any_executor_base10require_fnINS1_12any_executorIJNS1_12context_as_tIRNS0_17execution_contextEEENS2_8blocking7never_tILi0EEENS1_11prefer_onlyINSA_10possibly_tILi0EEEEENSD_INS2_16outstanding_work9tracked_tILi0EEEEENSD_INSH_11untracked_tILi0EEEEENSD_INS2_12relationship6fork_tILi0EEEEENSD_INSO_14continuation_tILi0EEEEEEEENS0_10io_context19basic_executor_typeISaIvELj0EEESN_EET_PKvS12_
libkea-dhcp++.so.74:_ZN5boost4asio9execution6detail17any_executor_base10require_fnINS1_12any_executorIJNS1_12context_as_tIRNS0_17execution_contextEEENS2_8blocking7never_tILi0EEENS1_11prefer_onlyINSA_10possibly_tILi0EEEEENSD_INS2_16outstanding_work9tracked_tILi0EEEEENSD_INSH_11untracked_tILi0EEEEENSD_INS2_12relationship6fork_tILi0EEEEENSD_INSO_14continuation_tILi0EEEEEEEENS0_10io_context19basic_executor_typeISaIvELj0EEESR_EET_PKvS12_
libkea-dhcp++.so.74:_ZN5boost4asio9execution6detail17any_executor_base10require_fnINS1_12any_executorIJNS1_12context_as_tIRNS0_17execution_contextEEENS2_8blocking7never_tILi0EEENS1_11prefer_onlyINSA_10possibly_tILi0EEEEENSD_INS2_16outstanding_work9tracked_tILi0EEEEENSD_INSH_11untracked_tILi0EEEEENSD_INS2_12relationship6fork_tILi0EEEEENSD_INSO_14continuation_tILi0EEEEEEEENS0_10io_context19basic_executor_typeISaIvELj0EEESU_EET_PKvS12_
libkea-dhcp++.so.74:_ZN5boost4asio9execution6detail17any_executor_base10require_fnINS1_12any_executorIJNS1_12context_as_tIRNS0_17execution_contextEEENS2_8blocking7never_tILi0EEENS1_11prefer_onlyINSA_10possibly_tILi0EEEEENSD_INS2_16outstanding_work9tracked_tILi0EEEEENSD_INSH_11untracked_tILi0EEEEENSD_INS2_12relationship6fork_tILi0EEEEENSD_INSO_14continuation_tILi0EEEEEEEENS0_10io_context19basic_executor_typeISaIvELj4EEES9_EET_PKvS12_
libkea-dhcp++.so.74:_ZN5boost4asio9execution6detail17any_executor_base10require_fnINS1_12any_executorIJNS1_12context_as_tIRNS0_17execution_contextEEENS2_8blocking7never_tILi0EEENS1_11prefer_onlyINSA_10possibly_tILi0EEEEENSD_INS2_16outstanding_work9tracked_tILi0EEEEENSD_INSH_11untracked_tILi0EEEEENSD_INS2_12relationship6fork_tILi0EEEEENSD_INSO_14continuation_tILi0EEEEEEEENS0_10io_context19basic_executor_typeISaIvELj4EEESC_EET_PKvS12_
libkea-dhcp++.so.74:_ZN5boost4asio9execution6detail17any_executor_base10require_fnINS1_12any_executorIJNS1_12context_as_tIRNS0_17execution_contextEEENS2_8blocking7never_tILi0EEENS1_11prefer_onlyINSA_10possibly_tILi0EEEEENSD_INS2_16outstanding_work9tracked_tILi0EEEEENSD_INSH_11untracked_tILi0EEEEENSD_INS2_12relationship6fork_tILi0EEEEENSD_INSO_14continuation_tILi0EEEEEEEENS0_10io_context19basic_executor_typeISaIvELj4EEESG_EET_PKvS12_
libkea-dhcp++.so.74:_ZN5boost4asio9execution6detail17any_executor_base10require_fnINS1_12any_executorIJNS1_12context_as_tIRNS0_17execution_contextEEENS2_8blocking7never_tILi0EEENS1_11prefer_onlyINSA_10possibly_tILi0EEEEENSD_INS2_16outstanding_work9tracked_tILi0EEEEENSD_INSH_11untracked_tILi0EEEEENSD_INS2_12relationship6fork_tILi0EEEEENSD_INSO_14continuation_tILi0EEEEEEEENS0_10io_context19basic_executor_typeISaIvELj4EEESK_EET_PKvS12_
libkea-dhcp++.so.74:_ZN5boost4asio9execution6detail17any_executor_base10require_fnINS1_12any_executorIJNS1_12context_as_tIRNS0_17execution_contextEEENS2_8blocking7never_tILi0EEENS1_11prefer_onlyINSA_10possibly_tILi0EEEEENSD_INS2_16outstanding_work9tracked_tILi0EEEEENSD_INSH_11untracked_tILi0EEEEENSD_INS2_12relationship6fork_tILi0EEEEENSD_INSO_14continuation_tILi0EEEEEEEENS0_10io_context19basic_executor_typeISaIvELj4EEESN_EET_PKvS12_
libkea-dhcp++.so.74:_ZN5boost4asio9execution6detail17any_executor_base10require_fnINS1_12any_executorIJNS1_12context_as_tIRNS0_17execution_contextEEENS2_8blocking7never_tILi0EEENS1_11prefer_onlyINSA_10possibly_tILi0EEEEENSD_INS2_16outstanding_work9tracked_tILi0EEEEENSD_INSH_11untracked_tILi0EEEEENSD_INS2_12relationship6fork_tILi0EEEEENSD_INSO_14continuation_tILi0EEEEEEEENS0_10io_context19basic_executor_typeISaIvELj4EEESR_EET_PKvS12_
libkea-dhcp++.so.74:_ZN5boost4asio9execution6detail17any_executor_base10require_fnINS1_12any_executorIJNS1_12context_as_tIRNS0_17execution_contextEEENS2_8blocking7never_tILi0EEENS1_11prefer_onlyINSA_10possibly_tILi0EEEEENSD_INS2_16outstanding_work9tracked_tILi0EEEEENSD_INSH_11untracked_tILi0EEEEENSD_INS2_12relationship6fork_tILi0EEEEENSD_INSO_14continuation_tILi0EEEEEEEENS0_10io_context19basic_executor_typeISaIvELj4EEESU_EET_PKvS12_
libkea-dhcp++.so.74:_ZN5boost4asio9execution6detail17any_executor_base10require_fnINS1_12any_executorIJNS1_12context_as_tIRNS0_17execution_contextEEENS2_8blocking7never_tILi0EEENS1_11prefer_onlyINSA_10possibly_tILi0EEEEENSD_INS2_16outstanding_work9tracked_tILi0EEEEENSD_INSH_11untracked_tILi0EEEEENSD_INS2_12relationship6fork_tILi0EEEEENSD_INSO_14continuation_tILi0EEEEEEEEvS9_EET_PKvSY_
libkea-dhcp++.so.74:_ZN5boost4asio9execution6detail17any_executor_base10require_fnINS1_12any_executorIJNS1_12context_as_tIRNS0_17execution_contextEEENS2_8blocking7never_tILi0EEENS1_11prefer_onlyINSA_10possibly_tILi0EEEEENSD_INS2_16outstanding_work9tracked_tILi0EEEEENSD_INSH_11untracked_tILi0EEEEENSD_INS2_12relationship6fork_tILi0EEEEENSD_INSO_14continuation_tILi0EEEEEEEEvSC_EET_PKvSY_
libkea-dhcp++.so.74:_ZN5boost4asio9execution6detail17any_executor_base10require_fnINS1_12any_executorIJNS1_12context_as_tIRNS0_17execution_contextEEENS2_8blocking7never_tILi0EEENS1_11prefer_onlyINSA_10possibly_tILi0EEEEENSD_INS2_16outstanding_work9tracked_tILi0EEEEENSD_INSH_11untracked_tILi0EEEEENSD_INS2_12relationship6fork_tILi0EEEEENSD_INSO_14continuation_tILi0EEEEEEEEvSG_EET_PKvSY_
libkea-dhcp++.so.74:_ZN5boost4asio9execution6detail17any_executor_base10require_fnINS1_12any_executorIJNS1_12context_as_tIRNS0_17execution_contextEEENS2_8blocking7never_tILi0EEENS1_11prefer_onlyINSA_10possibly_tILi0EEEEENSD_INS2_16outstanding_work9tracked_tILi0EEEEENSD_INSH_11untracked_tILi0EEEEENSD_INS2_12relationship6fork_tILi0EEEEENSD_INSO_14continuation_tILi0EEEEEEEEvSK_EET_PKvSY_
libkea-dhcp++.so.74:_ZN5boost4asio9execution6detail17any_executor_base10require_fnINS1_12any_executorIJNS1_12context_as_tIRNS0_17execution_contextEEENS2_8blocking7never_tILi0EEENS1_11prefer_onlyINSA_10possibly_tILi0EEEEENSD_INS2_16outstanding_work9tracked_tILi0EEEEENSD_INSH_11untracked_tILi0EEEEENSD_INS2_12relationship6fork_tILi0EEEEENSD_INSO_14continuation_tILi0EEEEEEEEvSN_EET_PKvSY_
libkea-dhcp++.so.74:_ZN5boost4asio9execution6detail17any_executor_base10require_fnINS1_12any_executorIJNS1_12context_as_tIRNS0_17execution_contextEEENS2_8blocking7never_tILi0EEENS1_11prefer_onlyINSA_10possibly_tILi0EEEEENSD_INS2_16outstanding_work9tracked_tILi0EEEEENSD_INSH_11untracked_tILi0EEEEENSD_INS2_12relationship6fork_tILi0EEEEENSD_INSO_14continuation_tILi0EEEEEEEEvSR_EET_PKvSY_
libkea-dhcp++.so.74:_ZN5boost4asio9execution6detail17any_executor_base10require_fnINS1_12any_executorIJNS1_12context_as_tIRNS0_17execution_contextEEENS2_8blocking7never_tILi0EEENS1_11prefer_onlyINSA_10possibly_tILi0EEEEENSD_INS2_16outstanding_work9tracked_tILi0EEEEENSD_INSH_11untracked_tILi0EEEEENSD_INS2_12relationship6fork_tILi0EEEEENSD_INSO_14continuation_tILi0EEEEEEEEvSU_EET_PKvSY_
libkea-dhcp++.so.74:_ZN5boost4asio9execution6detail17any_executor_base11copy_objectINS0_10io_context19basic_executor_typeISaIvELj0EEEEEvRS3_RKS3_
libkea-dhcp++.so.74:_ZN5boost4asio9execution6detail17any_executor_base11copy_objectINS0_10io_context19basic_executor_typeISaIvELj4EEEEEvRS3_RKS3_
libkea-dhcp++.so.74:_ZN5boost4asio9execution6detail17any_executor_base11move_objectINS0_10io_context19basic_executor_typeISaIvELj0EEEEEvRS3_S9_
libkea-dhcp++.so.74:_ZN5boost4asio9execution6detail17any_executor_base11move_objectINS0_10io_context19basic_executor_typeISaIvELj4EEEEEvRS3_S9_
libkea-dhcp++.so.74:_ZN5boost4asio9execution6detail17any_executor_base11target_voidERKS3_
libkea-dhcp++.so.74:_ZN5boost4asio9execution6detail17any_executor_base12destroy_voidERS3_
libkea-dhcp++.so.74:_ZN5boost4asio9execution6detail17any_executor_base12execute_voidERKS3_ONS0_6detail17executor_functionE
libkea-dhcp++.so.74:_ZN5boost4asio9execution6detail17any_executor_base13target_objectINS0_10io_context19basic_executor_typeISaIvELj0EEEEEPKvRKS3_
libkea-dhcp++.so.74:_ZN5boost4asio9execution6detail17any_executor_base13target_objectINS0_10io_context19basic_executor_typeISaIvELj4EEEEEPKvRKS3_
libkea-dhcp++.so.74:_ZN5boost4asio9execution6detail17any_executor_base14destroy_objectINS0_10io_context19basic_executor_typeISaIvELj0EEEEEvRS3_
libkea-dhcp++.so.74:_ZN5boost4asio9execution6detail17any_executor_base14destroy_objectINS0_10io_context19basic_executor_typeISaIvELj4EEEEEvRS3_
libkea-dhcp++.so.74:_ZN5boost4asio9execution6detail17any_executor_base14target_type_exINS0_10io_context19basic_executor_typeISaIvELj0EEEEERKSt9type_infov
libkea-dhcp++.so.74:_ZN5boost4asio9execution6detail17any_executor_base14target_type_exINS0_10io_context19basic_executor_typeISaIvELj4EEEEERKSt9type_infov
libkea-dhcp++.so.74:_ZN5boost4asio9execution6detail17any_executor_base16target_type_voidEv
libkea-dhcp++.so.74:_ZN5boost4asio9execution6detail17any_executor_base21blocking_execute_voidERKS3_NS0_6detail22executor_function_viewE
libkea-dhcp++.so.74:_ZN5boost4asio9execution6detail17any_executor_base8equal_exINS0_10io_context19basic_executor_typeISaIvELj0EEEEEbRKS3_SA_
libkea-dhcp++.so.74:_ZN5boost4asio9execution6detail17any_executor_base8equal_exINS0_10io_context19basic_executor_typeISaIvELj4EEEEEbRKS3_SA_
libkea-dhcp++.so.74:_ZN5boost4asio9execution6detail17any_executor_base8query_fnINS0_10io_context19basic_executor_typeISaIvELj0EEENS1_11prefer_onlyINS2_12relationship14continuation_tILi0EEEEEEEvPvPKvSG_
libkea-dhcp++.so.74:_ZN5boost4asio9execution6detail17any_executor_base8query_fnINS0_10io_context19basic_executor_typeISaIvELj0EEENS1_11prefer_onlyINS2_12relationship6fork_tILi0EEEEEEEvPvPKvSG_
libkea-dhcp++.so.74:_ZN5boost4asio9execution6detail17any_executor_base8query_fnINS0_10io_context19basic_executor_typeISaIvELj0EEENS1_11prefer_onlyINS2_16outstanding_work11untracked_tILi0EEEEEEEvPvPKvSG_
libkea-dhcp++.so.74:_ZN5boost4asio9execution6detail17any_executor_base8query_fnINS0_10io_context19basic_executor_typeISaIvELj0EEENS1_11prefer_onlyINS2_16outstanding_work9tracked_tILi0EEEEEEEvPvPKvSG_
libkea-dhcp++.so.74:_ZN5boost4asio9execution6detail17any_executor_base8query_fnINS0_10io_context19basic_executor_typeISaIvELj0EEENS1_11prefer_onlyINS2_8blocking10possibly_tILi0EEEEEEEvPvPKvSG_
libkea-dhcp++.so.74:_ZN5boost4asio9execution6detail17any_executor_base8query_fnINS0_10io_context19basic_executor_typeISaIvELj0EEENS1_12context_as_tIRNS0_17execution_contextEEEEEvPvPKvSF_
libkea-dhcp++.so.74:_ZN5boost4asio9execution6detail17any_executor_base8query_fnINS0_10io_context19basic_executor_typeISaIvELj0EEENS2_8blocking7never_tILi0EEEEEvPvPKvSE_
libkea-dhcp++.so.74:_ZN5boost4asio9execution6detail17any_executor_base8query_fnINS0_10io_context19basic_executor_typeISaIvELj4EEENS1_11prefer_onlyINS2_12relationship14continuation_tILi0EEEEEEEvPvPKvSG_
libkea-dhcp++.so.74:_ZN5boost4asio9execution6detail17any_executor_base8query_fnINS0_10io_context19basic_executor_typeISaIvELj4EEENS1_11prefer_onlyINS2_12relationship6fork_tILi0EEEEEEEvPvPKvSG_
libkea-dhcp++.so.74:_ZN5boost4asio9execution6detail17any_executor_base8query_fnINS0_10io_context19basic_executor_typeISaIvELj4EEENS1_11prefer_onlyINS2_16outstanding_work11untracked_tILi0EEEEEEEvPvPKvSG_
libkea-dhcp++.so.74:_ZN5boost4asio9execution6detail17any_executor_base8query_fnINS0_10io_context19basic_executor_typeISaIvELj4EEENS1_11prefer_onlyINS2_16outstanding_work9tracked_tILi0EEEEEEEvPvPKvSG_
libkea-dhcp++.so.74:_ZN5boost4asio9execution6detail17any_executor_base8query_fnINS0_10io_context19basic_executor_typeISaIvELj4EEENS1_11prefer_onlyINS2_8blocking10possibly_tILi0EEEEEEEvPvPKvSG_
libkea-dhcp++.so.74:_ZN5boost4asio9execution6detail17any_executor_base8query_fnINS0_10io_context19basic_executor_typeISaIvELj4EEENS1_12context_as_tIRNS0_17execution_contextEEEEEvPvPKvSF_
libkea-dhcp++.so.74:_ZN5boost4asio9execution6detail17any_executor_base8query_fnINS0_10io_context19basic_executor_typeISaIvELj4EEENS2_8blocking7never_tILi0EEEEEvPvPKvSE_
libkea-dhcp++.so.74:_ZN5boost4asio9execution6detail17any_executor_base8query_fnIvNS1_11prefer_onlyINS2_12relationship14continuation_tILi0EEEEEEEvPvPKvSC_
libkea-dhcp++.so.74:_ZN5boost4asio9execution6detail17any_executor_base8query_fnIvNS1_11prefer_onlyINS2_12relationship6fork_tILi0EEEEEEEvPvPKvSC_
libkea-dhcp++.so.74:_ZN5boost4asio9execution6detail17any_executor_base8query_fnIvNS1_11prefer_onlyINS2_16outstanding_work11untracked_tILi0EEEEEEEvPvPKvSC_
libkea-dhcp++.so.74:_ZN5boost4asio9execution6detail17any_executor_base8query_fnIvNS1_11prefer_onlyINS2_16outstanding_work9tracked_tILi0EEEEEEEvPvPKvSC_
libkea-dhcp++.so.74:_ZN5boost4asio9execution6detail17any_executor_base8query_fnIvNS1_11prefer_onlyINS2_8blocking10possibly_tILi0EEEEEEEvPvPKvSC_
libkea-dhcp++.so.74:_ZN5boost4asio9execution6detail17any_executor_base8query_fnIvNS1_12context_as_tIRNS0_17execution_contextEEEEEvPvPKvSB_
libkea-dhcp++.so.74:_ZN5boost4asio9execution6detail17any_executor_base8query_fnIvNS2_8blocking7never_tILi0EEEEEvPvPKvSA_
libkea-dhcp++.so.74:_ZN5boost4asio9execution6detail17any_executor_base9copy_voidERS3_RKS3_
libkea-dhcp++.so.74:_ZN5boost4asio9execution6detail17any_executor_base9move_voidERS3_S4_
libkea-dhcp++.so.74:_ZN5boost4asio9execution6detail17any_executor_base9prefer_fnINS1_12any_executorIJNS1_12context_as_tIRNS0_17execution_contextEEENS2_8blocking7never_tILi0EEENS1_11prefer_onlyINSA_10possibly_tILi0EEEEENSD_INS2_16outstanding_work9tracked_tILi0EEEEENSD_INSH_11untracked_tILi0EEEEENSD_INS2_12relationship6fork_tILi0EEEEENSD_INSO_14continuation_tILi0EEEEEEEENS0_10io_context19basic_executor_typeISaIvELj0EEES9_EET_PKvS12_
libkea-dhcp++.so.74:_ZN5boost4asio9execution6detail17any_executor_base9prefer_fnINS1_12any_executorIJNS1_12context_as_tIRNS0_17execution_contextEEENS2_8blocking7never_tILi0EEENS1_11prefer_onlyINSA_10possibly_tILi0EEEEENSD_INS2_16outstanding_work9tracked_tILi0EEEEENSD_INSH_11untracked_tILi0EEEEENSD_INS2_12relationship6fork_tILi0EEEEENSD_INSO_14continuation_tILi0EEEEEEEENS0_10io_context19basic_executor_typeISaIvELj0EEESC_EET_PKvS12_
libkea-dhcp++.so.74:_ZN5boost4asio9execution6detail17any_executor_base9prefer_fnINS1_12any_executorIJNS1_12context_as_tIRNS0_17execution_contextEEENS2_8blocking7never_tILi0EEENS1_11prefer_onlyINSA_10possibly_tILi0EEEEENSD_INS2_16outstanding_work9tracked_tILi0EEEEENSD_INSH_11untracked_tILi0EEEEENSD_INS2_12relationship6fork_tILi0EEEEENSD_INSO_14continuation_tILi0EEEEEEEENS0_10io_context19basic_executor_typeISaIvELj0EEESG_EET_PKvS12_
libkea-dhcp++.so.74:_ZN5boost4asio9execution6detail17any_executor_base9prefer_fnINS1_12any_executorIJNS1_12context_as_tIRNS0_17execution_contextEEENS2_8blocking7never_tILi0EEENS1_11prefer_onlyINSA_10possibly_tILi0EEEEENSD_INS2_16outstanding_work9tracked_tILi0EEEEENSD_INSH_11untracked_tILi0EEEEENSD_INS2_12relationship6fork_tILi0EEEEENSD_INSO_14continuation_tILi0EEEEEEEENS0_10io_context19basic_executor_typeISaIvELj0EEESK_EET_PKvS12_
libkea-dhcp++.so.74:_ZN5boost4asio9execution6detail17any_executor_base9prefer_fnINS1_12any_executorIJNS1_12context_as_tIRNS0_17execution_contextEEENS2_8blocking7never_tILi0EEENS1_11prefer_onlyINSA_10possibly_tILi0EEEEENSD_INS2_16outstanding_work9tracked_tILi0EEEEENSD_INSH_11untracked_tILi0EEEEENSD_INS2_12relationship6fork_tILi0EEEEENSD_INSO_14continuation_tILi0EEEEEEEENS0_10io_context19basic_executor_typeISaIvELj0EEESN_EET_PKvS12_
libkea-dhcp++.so.74:_ZN5boost4asio9execution6detail17any_executor_base9prefer_fnINS1_12any_executorIJNS1_12context_as_tIRNS0_17execution_contextEEENS2_8blocking7never_tILi0EEENS1_11prefer_onlyINSA_10possibly_tILi0EEEEENSD_INS2_16outstanding_work9tracked_tILi0EEEEENSD_INSH_11untracked_tILi0EEEEENSD_INS2_12relationship6fork_tILi0EEEEENSD_INSO_14continuation_tILi0EEEEEEEENS0_10io_context19basic_executor_typeISaIvELj0EEESR_EET_PKvS12_
libkea-dhcp++.so.74:_ZN5boost4asio9execution6detail17any_executor_base9prefer_fnINS1_12any_executorIJNS1_12context_as_tIRNS0_17execution_contextEEENS2_8blocking7never_tILi0EEENS1_11prefer_onlyINSA_10possibly_tILi0EEEEENSD_INS2_16outstanding_work9tracked_tILi0EEEEENSD_INSH_11untracked_tILi0EEEEENSD_INS2_12relationship6fork_tILi0EEEEENSD_INSO_14continuation_tILi0EEEEEEEENS0_10io_context19basic_executor_typeISaIvELj0EEESU_EET_PKvS12_
libkea-dhcp++.so.74:_ZN5boost4asio9execution6detail17any_executor_base9prefer_fnINS1_12any_executorIJNS1_12context_as_tIRNS0_17execution_contextEEENS2_8blocking7never_tILi0EEENS1_11prefer_onlyINSA_10possibly_tILi0EEEEENSD_INS2_16outstanding_work9tracked_tILi0EEEEENSD_INSH_11untracked_tILi0EEEEENSD_INS2_12relationship6fork_tILi0EEEEENSD_INSO_14continuation_tILi0EEEEEEEENS0_10io_context19basic_executor_typeISaIvELj4EEES9_EET_PKvS12_
libkea-dhcp++.so.74:_ZN5boost4asio9execution6detail17any_executor_base9prefer_fnINS1_12any_executorIJNS1_12context_as_tIRNS0_17execution_contextEEENS2_8blocking7never_tILi0EEENS1_11prefer_onlyINSA_10possibly_tILi0EEEEENSD_INS2_16outstanding_work9tracked_tILi0EEEEENSD_INSH_11untracked_tILi0EEEEENSD_INS2_12relationship6fork_tILi0EEEEENSD_INSO_14continuation_tILi0EEEEEEEENS0_10io_context19basic_executor_typeISaIvELj4EEESC_EET_PKvS12_
libkea-dhcp++.so.74:_ZN5boost4asio9execution6detail17any_executor_base9prefer_fnINS1_12any_executorIJNS1_12context_as_tIRNS0_17execution_contextEEENS2_8blocking7never_tILi0EEENS1_11prefer_onlyINSA_10possibly_tILi0EEEEENSD_INS2_16outstanding_work9tracked_tILi0EEEEENSD_INSH_11untracked_tILi0EEEEENSD_INS2_12relationship6fork_tILi0EEEEENSD_INSO_14continuation_tILi0EEEEEEEENS0_10io_context19basic_executor_typeISaIvELj4EEESG_EET_PKvS12_
libkea-dhcp++.so.74:_ZN5boost4asio9execution6detail17any_executor_base9prefer_fnINS1_12any_executorIJNS1_12context_as_tIRNS0_17execution_contextEEENS2_8blocking7never_tILi0EEENS1_11prefer_onlyINSA_10possibly_tILi0EEEEENSD_INS2_16outstanding_work9tracked_tILi0EEEEENSD_INSH_11untracked_tILi0EEEEENSD_INS2_12relationship6fork_tILi0EEEEENSD_INSO_14continuation_tILi0EEEEEEEENS0_10io_context19basic_executor_typeISaIvELj4EEESK_EET_PKvS12_
libkea-dhcp++.so.74:_ZN5boost4asio9execution6detail17any_executor_base9prefer_fnINS1_12any_executorIJNS1_12context_as_tIRNS0_17execution_contextEEENS2_8blocking7never_tILi0EEENS1_11prefer_onlyINSA_10possibly_tILi0EEEEENSD_INS2_16outstanding_work9tracked_tILi0EEEEENSD_INSH_11untracked_tILi0EEEEENSD_INS2_12relationship6fork_tILi0EEEEENSD_INSO_14continuation_tILi0EEEEEEEENS0_10io_context19basic_executor_typeISaIvELj4EEESN_EET_PKvS12_
libkea-dhcp++.so.74:_ZN5boost4asio9execution6detail17any_executor_base9prefer_fnINS1_12any_executorIJNS1_12context_as_tIRNS0_17execution_contextEEENS2_8blocking7never_tILi0EEENS1_11prefer_onlyINSA_10possibly_tILi0EEEEENSD_INS2_16outstanding_work9tracked_tILi0EEEEENSD_INSH_11untracked_tILi0EEEEENSD_INS2_12relationship6fork_tILi0EEEEENSD_INSO_14continuation_tILi0EEEEEEEENS0_10io_context19basic_executor_typeISaIvELj4EEESR_EET_PKvS12_
libkea-dhcp++.so.74:_ZN5boost4asio9execution6detail17any_executor_base9prefer_fnINS1_12any_executorIJNS1_12context_as_tIRNS0_17execution_contextEEENS2_8blocking7never_tILi0EEENS1_11prefer_onlyINSA_10possibly_tILi0EEEEENSD_INS2_16outstanding_work9tracked_tILi0EEEEENSD_INSH_11untracked_tILi0EEEEENSD_INS2_12relationship6fork_tILi0EEEEENSD_INSO_14continuation_tILi0EEEEEEEENS0_10io_context19basic_executor_typeISaIvELj4EEESU_EET_PKvS12_
libkea-dhcp++.so.74:_ZN5boost4asio9execution6detail17any_executor_base9prefer_fnINS1_12any_executorIJNS1_12context_as_tIRNS0_17execution_contextEEENS2_8blocking7never_tILi0EEENS1_11prefer_onlyINSA_10possibly_tILi0EEEEENSD_INS2_16outstanding_work9tracked_tILi0EEEEENSD_INSH_11untracked_tILi0EEEEENSD_INS2_12relationship6fork_tILi0EEEEENSD_INSO_14continuation_tILi0EEEEEEEEvS9_EET_PKvSY_
libkea-dhcp++.so.74:_ZN5boost4asio9execution6detail17any_executor_base9prefer_fnINS1_12any_executorIJNS1_12context_as_tIRNS0_17execution_contextEEENS2_8blocking7never_tILi0EEENS1_11prefer_onlyINSA_10possibly_tILi0EEEEENSD_INS2_16outstanding_work9tracked_tILi0EEEEENSD_INSH_11untracked_tILi0EEEEENSD_INS2_12relationship6fork_tILi0EEEEENSD_INSO_14continuation_tILi0EEEEEEEEvSC_EET_PKvSY_
libkea-dhcp++.so.74:_ZN5boost4asio9execution6detail17any_executor_base9prefer_fnINS1_12any_executorIJNS1_12context_as_tIRNS0_17execution_contextEEENS2_8blocking7never_tILi0EEENS1_11prefer_onlyINSA_10possibly_tILi0EEEEENSD_INS2_16outstanding_work9tracked_tILi0EEEEENSD_INSH_11untracked_tILi0EEEEENSD_INS2_12relationship6fork_tILi0EEEEENSD_INSO_14continuation_tILi0EEEEEEEEvSG_EET_PKvSY_
libkea-dhcp++.so.74:_ZN5boost4asio9execution6detail17any_executor_base9prefer_fnINS1_12any_executorIJNS1_12context_as_tIRNS0_17execution_contextEEENS2_8blocking7never_tILi0EEENS1_11prefer_onlyINSA_10possibly_tILi0EEEEENSD_INS2_16outstanding_work9tracked_tILi0EEEEENSD_INSH_11untracked_tILi0EEEEENSD_INS2_12relationship6fork_tILi0EEEEENSD_INSO_14continuation_tILi0EEEEEEEEvSK_EET_PKvSY_
libkea-dhcp++.so.74:_ZN5boost4asio9execution6detail17any_executor_base9prefer_fnINS1_12any_executorIJNS1_12context_as_tIRNS0_17execution_contextEEENS2_8blocking7never_tILi0EEENS1_11prefer_onlyINSA_10possibly_tILi0EEEEENSD_INS2_16outstanding_work9tracked_tILi0EEEEENSD_INSH_11untracked_tILi0EEEEENSD_INS2_12relationship6fork_tILi0EEEEENSD_INSO_14continuation_tILi0EEEEEEEEvSN_EET_PKvSY_
libkea-dhcp++.so.74:_ZN5boost4asio9execution6detail17any_executor_base9prefer_fnINS1_12any_executorIJNS1_12context_as_tIRNS0_17execution_contextEEENS2_8blocking7never_tILi0EEENS1_11prefer_onlyINSA_10possibly_tILi0EEEEENSD_INS2_16outstanding_work9tracked_tILi0EEEEENSD_INSH_11untracked_tILi0EEEEENSD_INS2_12relationship6fork_tILi0EEEEENSD_INSO_14continuation_tILi0EEEEEEEEvSR_EET_PKvSY_
libkea-dhcp++.so.74:_ZN5boost4asio9execution6detail17any_executor_base9prefer_fnINS1_12any_executorIJNS1_12context_as_tIRNS0_17execution_contextEEENS2_8blocking7never_tILi0EEENS1_11prefer_onlyINSA_10possibly_tILi0EEEEENSD_INS2_16outstanding_work9tracked_tILi0EEEEENSD_INSH_11untracked_tILi0EEEEENSD_INS2_12relationship6fork_tILi0EEEEENSD_INSO_14continuation_tILi0EEEEEEEEvSU_EET_PKvSY_
libkea-dhcp++.so.74:_ZN5boost6detail8function15functor_managerINS_9algorithm6detail13token_finderFINS4_10is_any_ofFIcEEEEE6manageERKNS1_15function_bufferERSA_NS1_30functor_manager_operation_typeE
libkea-dhcp++.so.74:_ZN5boost6detail8function21function_obj_invoker2INS_9algorithm6detail13token_finderFINS4_10is_any_ofFIcEEEENS_14iterator_rangeIN9__gnu_cxx17__normal_iteratorIPKcNSt7__cxx1112basic_stringIcSt11char_traitsIcESaIcEEEEEEESK_SK_E6invokeERNS1_15function_bufferESK_SK_
libkea-dhcp++.so.74:_ZNK3isc4dhcp10Option4Dnr3lenEv
libkea-dhcp++.so.74:_ZNK3isc4dhcp10Option4Dnr4packERNS_4util12OutputBufferEb
libkea-dhcp++.so.74:_ZNK3isc4dhcp10Option4Dnr5cloneEv
libkea-dhcp++.so.74:_ZNK3isc4dhcp10Option4Dnr6toTextB5cxx11Ei
libkea-dhcp++.so.74:_ZNK3isc4dhcp10Option6Dnr13packAddressesERNS_4util12OutputBufferE
libkea-dhcp++.so.74:_ZNK3isc4dhcp10Option6Dnr3lenEv
libkea-dhcp++.so.74:_ZNK3isc4dhcp10Option6Dnr4packERNS_4util12OutputBufferEb
libkea-dhcp++.so.74:_ZNK3isc4dhcp10Option6Dnr5cloneEv
libkea-dhcp++.so.74:_ZNK3isc4dhcp10Option6Dnr6toTextB5cxx11Ei
libkea-dhcp++.so.74:_ZNK3isc4dhcp11DUIDFactory17createLinkLayerIdERSt6vectorIhSaIhEERt
libkea-dhcp++.so.74:_ZNK3isc4dhcp11DUIDFactory8isStoredEv
libkea-dhcp++.so.74:_ZNK3isc4dhcp11DnrInstance12getAdnAsTextB5cxx11Ev
libkea-dhcp++.so.74:_ZNK3isc4dhcp11DnrInstance13packAddressesERNS_4util12OutputBufferE
libkea-dhcp++.so.74:_ZNK3isc4dhcp11DnrInstance13packSvcParamsERNS_4util12OutputBufferE
libkea-dhcp++.so.74:_ZNK3isc4dhcp11DnrInstance14dnrInstanceLenEv
libkea-dhcp++.so.74:_ZNK3isc4dhcp11DnrInstance20getDnrInstanceAsTextB5cxx11Ev
libkea-dhcp++.so.74:_ZNK3isc4dhcp11DnrInstance7packAdnERNS_4util12OutputBufferE
libkea-dhcp++.so.74:_ZNK3isc4dhcp11Option6Auth13packHashInputERNS_4util12OutputBufferE
libkea-dhcp++.so.74:_ZNK3isc4dhcp11Option6Auth4packERNS_4util12OutputBufferEb
libkea-dhcp++.so.74:_ZNK3isc4dhcp11Option6Auth5cloneEv
libkea-dhcp++.so.74:_ZNK3isc4dhcp11Option6Auth6toTextB5cxx11Ei
libkea-dhcp++.so.74:_ZNK3isc4dhcp12OptionCustom10checkIndexEj
libkea-dhcp++.so.74:_ZNK3isc4dhcp12OptionCustom10readBinaryEj
libkea-dhcp++.so.74:_ZNK3isc4dhcp12OptionCustom10readPrefixEj
libkea-dhcp++.so.74:_ZNK3isc4dhcp12OptionCustom10readStringB5cxx11Ej
libkea-dhcp++.so.74:_ZNK3isc4dhcp12OptionCustom11readAddressEj
libkea-dhcp++.so.74:_ZNK3isc4dhcp12OptionCustom11readBooleanEj
libkea-dhcp++.so.74:_ZNK3isc4dhcp12OptionCustom12bufferLengthENS0_14OptionDataTypeEbN9__gnu_cxx17__normal_iteratorIPKhSt6vectorIhSaIhEEEESA_
libkea-dhcp++.so.74:_ZNK3isc4dhcp12OptionCustom12createBufferERSt6vectorIhSaIhEENS0_14OptionDataTypeE
libkea-dhcp++.so.74:_ZNK3isc4dhcp12OptionCustom15dataFieldToTextB5cxx11ENS0_14OptionDataTypeEj
libkea-dhcp++.so.74:_ZNK3isc4dhcp12OptionCustom3lenEv
libkea-dhcp++.so.74:_ZNK3isc4dhcp12OptionCustom4packERNS_4util12OutputBufferEb
libkea-dhcp++.so.74:_ZNK3isc4dhcp12OptionCustom5cloneEv
libkea-dhcp++.so.74:_ZNK3isc4dhcp12OptionCustom6toTextB5cxx11Ei
libkea-dhcp++.so.74:_ZNK3isc4dhcp12OptionCustom8readFqdnB5cxx11Ej
libkea-dhcp++.so.74:_ZNK3isc4dhcp12OptionCustom8readPsidEj
libkea-dhcp++.so.74:_ZNK3isc4dhcp12OptionCustom9readTupleB5cxx11Ej
libkea-dhcp++.so.74:_ZNK3isc4dhcp12OptionCustom9readTupleERNS0_15OpaqueDataTupleEj
libkea-dhcp++.so.74:_ZNK3isc4dhcp12OptionString3lenEv
libkea-dhcp++.so.74:_ZNK3isc4dhcp12OptionString4packERNS_4util12OutputBufferEb
libkea-dhcp++.so.74:_ZNK3isc4dhcp12OptionString5cloneEv
libkea-dhcp++.so.74:_ZNK3isc4dhcp12OptionString6toTextB5cxx11Ei
libkea-dhcp++.so.74:_ZNK3isc4dhcp12OptionString8getValueB5cxx11Ev
libkea-dhcp++.so.74:_ZNK3isc4dhcp12OptionString8toStringB5cxx11Ev
libkea-dhcp++.so.74:_ZNK3isc4dhcp12OptionVendor3lenEv
libkea-dhcp++.so.74:_ZNK3isc4dhcp12OptionVendor4packERNS_4util12OutputBufferEb
libkea-dhcp++.so.74:_ZNK3isc4dhcp12OptionVendor5cloneEv
libkea-dhcp++.so.74:_ZNK3isc4dhcp12OptionVendor6toTextB5cxx11Ei
libkea-dhcp++.so.74:_ZNK3isc4dhcp13ClientClasses6toTextERKNSt7__cxx1112basic_stringIcSt11char_traitsIcESaIcEEE
libkea-dhcp++.so.74:_ZNK3isc4dhcp13ClientClasses8containsERKNSt7__cxx1112basic_stringIcSt11char_traitsIcESaIcEEE
libkea-dhcp++.so.74:_ZNK3isc4dhcp13ClientClasses9toElementEv
libkea-dhcp++.so.74:_ZNK3isc4dhcp13Option6IAAddr3lenEv
libkea-dhcp++.so.74:_ZNK3isc4dhcp13Option6IAAddr4packERNS_4util12OutputBufferEb
libkea-dhcp++.so.74:_ZNK3isc4dhcp13Option6IAAddr5cloneEv
libkea-dhcp++.so.74:_ZNK3isc4dhcp13Option6IAAddr6toTextB5cxx11Ei
libkea-dhcp++.so.74:_ZNK3isc4dhcp14Option4AddrLst3lenEv
libkea-dhcp++.so.74:_ZNK3isc4dhcp14Option4AddrLst4packERNS_4util12OutputBufferEb
libkea-dhcp++.so.74:_ZNK3isc4dhcp14Option4AddrLst5cloneEv
libkea-dhcp++.so.74:_ZNK3isc4dhcp14Option4AddrLst6toTextB5cxx11Ei
libkea-dhcp++.so.74:_ZNK3isc4dhcp14Option6AddrLst3lenEv
libkea-dhcp++.so.74:_ZNK3isc4dhcp14Option6AddrLst4packERNS_4util12OutputBufferEb
libkea-dhcp++.so.74:_ZNK3isc4dhcp14Option6AddrLst5cloneEv
libkea-dhcp++.so.74:_ZNK3isc4dhcp14Option6AddrLst6toTextB5cxx11Ei
libkea-dhcp++.so.74:_ZNK3isc4dhcp15OpaqueDataTuple16getDataFieldSizeEv
libkea-dhcp++.so.74:_ZNK3isc4dhcp15OpaqueDataTuple4packERNS_4util12OutputBufferE
libkea-dhcp++.so.74:_ZNK3isc4dhcp15OpaqueDataTuple6equalsERKNSt7__cxx1112basic_stringIcSt11char_traitsIcESaIcEEE
libkea-dhcp++.so.74:_ZNK3isc4dhcp15OpaqueDataTuple7getTextB5cxx11Ev
libkea-dhcp++.so.74:_ZNK3isc4dhcp15OpaqueDataTupleeqERKNSt7__cxx1112basic_stringIcSt11char_traitsIcESaIcEEE
libkea-dhcp++.so.74:_ZNK3isc4dhcp15Option6IAPrefix3lenEv
libkea-dhcp++.so.74:_ZNK3isc4dhcp15Option6IAPrefix4maskEN9__gnu_cxx17__normal_iteratorIPKhSt6vectorIhSaIhEEEES9_hRS8_
libkea-dhcp++.so.74:_ZNK3isc4dhcp15Option6IAPrefix4packERNS_4util12OutputBufferEb
libkea-dhcp++.so.74:_ZNK3isc4dhcp15Option6IAPrefix5cloneEv
libkea-dhcp++.so.74:_ZNK3isc4dhcp15Option6IAPrefix6toTextB5cxx11Ei
libkea-dhcp++.so.74:_ZNK3isc4dhcp16Option6PDExclude17getExcludedPrefixERKNS_8asiolink9IOAddressEh
libkea-dhcp++.so.74:_ZNK3isc4dhcp16Option6PDExclude17getSubnetIDLengthEhh
libkea-dhcp++.so.74:_ZNK3isc4dhcp16Option6PDExclude3lenEv
libkea-dhcp++.so.74:_ZNK3isc4dhcp16Option6PDExclude4packERNS_4util12OutputBufferEb
libkea-dhcp++.so.74:_ZNK3isc4dhcp16Option6PDExclude5cloneEv
libkea-dhcp++.so.74:_ZNK3isc4dhcp16Option6PDExclude6toTextB5cxx11Ei
libkea-dhcp++.so.74:_ZNK3isc4dhcp16OptionDefinition13convertToBoolERKNSt7__cxx1112basic_stringIcSt11char_traitsIcESaIcEEE
libkea-dhcp++.so.74:_ZNK3isc4dhcp16OptionDefinition13optionFactoryENS0_6Option8UniverseEtN9__gnu_cxx17__normal_iteratorIPKhSt6vectorIhSaIhEEEESB_
libkea-dhcp++.so.74:_ZNK3isc4dhcp16OptionDefinition13optionFactoryENS0_6Option8UniverseEtRKSt6vectorINSt7__cxx1112basic_stringIcSt11char_traitsIcESaIcEEESaISA_EE
libkea-dhcp++.so.74:_ZNK3isc4dhcp16OptionDefinition13optionFactoryENS0_6Option8UniverseEtRKSt6vectorIhSaIhEE
libkea-dhcp++.so.74:_ZNK3isc4dhcp16OptionDefinition13writeToBufferENS0_6Option8UniverseERKNSt7__cxx1112basic_stringIcSt11char_traitsIcESaIcEEENS0_14OptionDataTypeERSt6vectorIhSaIhEE
libkea-dhcp++.so.74:_ZNK3isc4dhcp16OptionDefinition15factoryFqdnListENS0_6Option8UniverseEN9__gnu_cxx17__normal_iteratorIPKhSt6vectorIhSaIhEEEESB_
libkea-dhcp++.so.74:_ZNK3isc4dhcp16OptionDefinition26factorySpecialFormatOptionENS0_6Option8UniverseEN9__gnu_cxx17__normal_iteratorIPKhSt6vectorIhSaIhEEEESB_
libkea-dhcp++.so.74:_ZNK3isc4dhcp16OptionDefinition28haveCompressedFqdnListFormatEv
libkea-dhcp++.so.74:_ZNK3isc4dhcp16OptionDefinition6equalsERKS1_
libkea-dhcp++.so.74:_ZNK3isc4dhcp16OptionDefinition8validateEv
libkea-dhcp++.so.74:_ZNK3isc4dhcp17Option4ClientFqdn13getDomainNameB5cxx11Ev
libkea-dhcp++.so.74:_ZNK3isc4dhcp17Option4ClientFqdn14packDomainNameERNS_4util12OutputBufferE
libkea-dhcp++.so.74:_ZNK3isc4dhcp17Option4ClientFqdn17getDomainNameTypeEv
libkea-dhcp++.so.74:_ZNK3isc4dhcp17Option4ClientFqdn3lenEv
libkea-dhcp++.so.74:_ZNK3isc4dhcp17Option4ClientFqdn4packERNS_4util12OutputBufferEb
libkea-dhcp++.so.74:_ZNK3isc4dhcp17Option4ClientFqdn5cloneEv
libkea-dhcp++.so.74:_ZNK3isc4dhcp17Option4ClientFqdn6toTextB5cxx11Ei
libkea-dhcp++.so.74:_ZNK3isc4dhcp17Option4ClientFqdn7getFlagEh
libkea-dhcp++.so.74:_ZNK3isc4dhcp17Option4ClientFqdn8getRcodeEv
libkea-dhcp++.so.74:_ZNK3isc4dhcp17Option6ClientFqdn13getDomainNameB5cxx11Ev
libkea-dhcp++.so.74:_ZNK3isc4dhcp17Option6ClientFqdn14packDomainNameERNS_4util12OutputBufferE
libkea-dhcp++.so.74:_ZNK3isc4dhcp17Option6ClientFqdn17getDomainNameTypeEv
libkea-dhcp++.so.74:_ZNK3isc4dhcp17Option6ClientFqdn3lenEv
libkea-dhcp++.so.74:_ZNK3isc4dhcp17Option6ClientFqdn4packERNS_4util12OutputBufferEb
libkea-dhcp++.so.74:_ZNK3isc4dhcp17Option6ClientFqdn5cloneEv
libkea-dhcp++.so.74:_ZNK3isc4dhcp17Option6ClientFqdn6toTextB5cxx11Ei
libkea-dhcp++.so.74:_ZNK3isc4dhcp17Option6ClientFqdn7getFlagEh
libkea-dhcp++.so.74:_ZNK3isc4dhcp17Option6StatusCode10dataToTextB5cxx11Ev
libkea-dhcp++.so.74:_ZNK3isc4dhcp17Option6StatusCode17getStatusCodeNameB5cxx11Ev
libkea-dhcp++.so.74:_ZNK3isc4dhcp17Option6StatusCode3lenEv
libkea-dhcp++.so.74:_ZNK3isc4dhcp17Option6StatusCode4packERNS_4util12OutputBufferEb
libkea-dhcp++.so.74:_ZNK3isc4dhcp17Option6StatusCode5cloneEv
libkea-dhcp++.so.74:_ZNK3isc4dhcp17Option6StatusCode6toTextB5cxx11Ei
libkea-dhcp++.so.74:_ZNK3isc4dhcp17OptionVendorClass3lenEv
libkea-dhcp++.so.74:_ZNK3isc4dhcp17OptionVendorClass4packERNS_4util12OutputBufferEb
libkea-dhcp++.so.74:_ZNK3isc4dhcp17OptionVendorClass5cloneEv
libkea-dhcp++.so.74:_ZNK3isc4dhcp17OptionVendorClass6toTextB5cxx11Ei
libkea-dhcp++.so.74:_ZNK3isc4dhcp17OptionVendorClass8getTupleEm
libkea-dhcp++.so.74:_ZNK3isc4dhcp17OptionVendorClass8hasTupleERKNSt7__cxx1112basic_stringIcSt11char_traitsIcESaIcEEE
libkea-dhcp++.so.74:_ZNK3isc4dhcp18OptionDataTypeUtil15getDataTypeImplERKNSt7__cxx1112basic_stringIcSt11char_traitsIcESaIcEEE
libkea-dhcp++.so.74:_ZNK3isc4dhcp18OptionDataTypeUtil19getDataTypeNameImplB5cxx11ENS0_14OptionDataTypeE
libkea-dhcp++.so.74:_ZNK3isc4dhcp22Option4SlpServiceScope10dataToTextB5cxx11Ev
libkea-dhcp++.so.74:_ZNK3isc4dhcp22Option4SlpServiceScope3lenEv
libkea-dhcp++.so.74:_ZNK3isc4dhcp22Option4SlpServiceScope4packERNS_4util12OutputBufferEb
libkea-dhcp++.so.74:_ZNK3isc4dhcp22Option4SlpServiceScope5cloneEv
libkea-dhcp++.so.74:_ZNK3isc4dhcp22Option4SlpServiceScope6toTextB5cxx11Ei
libkea-dhcp++.so.74:_ZNK3isc4dhcp22OptionOpaqueDataTuples3lenEv
libkea-dhcp++.so.74:_ZNK3isc4dhcp22OptionOpaqueDataTuples4packERNS_4util12OutputBufferEb
libkea-dhcp++.so.74:_ZNK3isc4dhcp22OptionOpaqueDataTuples5cloneEv
libkea-dhcp++.so.74:_ZNK3isc4dhcp22OptionOpaqueDataTuples6toTextB5cxx11Ei
libkea-dhcp++.so.74:_ZNK3isc4dhcp22OptionOpaqueDataTuples8getTupleEm
libkea-dhcp++.so.74:_ZNK3isc4dhcp22OptionOpaqueDataTuples8hasTupleERKNSt7__cxx1112basic_stringIcSt11char_traitsIcESaIcEEE
libkea-dhcp++.so.74:_ZNK3isc4dhcp3Pkt18getNonCopiedOptionEt
libkea-dhcp++.so.74:_ZNK3isc4dhcp3Pkt19getNonCopiedOptionsEt
libkea-dhcp++.so.74:_ZNK3isc4dhcp4DUID7getDuidEv
libkea-dhcp++.so.74:_ZNK3isc4dhcp4DUID7getTypeEv
libkea-dhcp++.so.74:_ZNK3isc4dhcp4Pkt414getHWAddrLabelB5cxx11Ev
libkea-dhcp++.so.74:_ZNK3isc4dhcp4Pkt46toTextB5cxx11Ev
libkea-dhcp++.so.74:_ZNK3isc4dhcp4Pkt47getHlenEv
libkea-dhcp++.so.74:_ZNK3isc4dhcp4Pkt47getNameEv
libkea-dhcp++.so.74:_ZNK3isc4dhcp4Pkt47getTypeEv
libkea-dhcp++.so.74:_ZNK3isc4dhcp4Pkt48getHtypeEv
libkea-dhcp++.so.74:_ZNK3isc4dhcp4Pkt48getLabelB5cxx11Ev
libkea-dhcp++.so.74:_ZNK3isc4dhcp4Pkt49isRelayedEv
libkea-dhcp++.so.74:_ZNK3isc4dhcp4Pkt611getClientIdEv
libkea-dhcp++.so.74:_ZNK3isc4dhcp4Pkt616getRelayOverheadERKNS1_9RelayInfoE
libkea-dhcp++.so.74:_ZNK3isc4dhcp4Pkt620getRelay6LinkAddressEh
libkea-dhcp++.so.74:_ZNK3isc4dhcp4Pkt620getRelay6PeerAddressEh
libkea-dhcp++.so.74:_ZNK3isc4dhcp4Pkt623getNonCopiedRelayOptionEth
libkea-dhcp++.so.74:_ZNK3isc4dhcp4Pkt624getNonCopiedRelayOptionsEth
libkea-dhcp++.so.74:_ZNK3isc4dhcp4Pkt624prepareGetAnyRelayOptionERKNS1_16RelaySearchOrderERiS5_S5_
libkea-dhcp++.so.74:_ZNK3isc4dhcp4Pkt626getNonCopiedAnyRelayOptionEtRKNS1_16RelaySearchOrderE
libkea-dhcp++.so.74:_ZNK3isc4dhcp4Pkt627getNonCopiedAllRelayOptionsEtRKNS1_16RelaySearchOrderE
libkea-dhcp++.so.74:_ZNK3isc4dhcp4Pkt66toTextB5cxx11Ev
libkea-dhcp++.so.74:_ZNK3isc4dhcp4Pkt67getNameEv
libkea-dhcp++.so.74:_ZNK3isc4dhcp4Pkt68getLabelB5cxx11Ev
libkea-dhcp++.so.74:_ZNK3isc4dhcp4Pkt69RelayInfo6toTextB5cxx11Ev
libkea-dhcp++.so.74:_ZNK3isc4dhcp4Pkt69directLenEv
libkea-dhcp++.so.74:_ZNK3isc4dhcp5Iface10hasAddressERKNS_8asiolink9IOAddressE
libkea-dhcp++.so.74:_ZNK3isc4dhcp5Iface11getAddress4ERNS_8asiolink9IOAddressE
libkea-dhcp++.so.74:_ZNK3isc4dhcp5Iface11getFullNameB5cxx11Ev
libkea-dhcp++.so.74:_ZNK3isc4dhcp5Iface11getPlainMacB5cxx11Ev
libkea-dhcp++.so.74:_ZNK3isc4dhcp5Iface12countActive4Ev
libkea-dhcp++.so.74:_ZNK3isc4dhcp5Iface9getErrorsB5cxx11Ev
libkea-dhcp++.so.74:_ZNK3isc4dhcp6HWAddr6toTextB5cxx11Eb
libkea-dhcp++.so.74:_ZNK3isc4dhcp6HWAddreqERKS1_
libkea-dhcp++.so.74:_ZNK3isc4dhcp6HWAddrneERKS1_
libkea-dhcp++.so.74:_ZNK3isc4dhcp6Option10packHeaderERNS_4util12OutputBufferEb
libkea-dhcp++.so.74:_ZNK3isc4dhcp6Option11packOptionsERNS_4util12OutputBufferEb
libkea-dhcp++.so.74:_ZNK3isc4dhcp6Option11toHexStringB5cxx11Eb
libkea-dhcp++.so.74:_ZNK3isc4dhcp6Option12getHeaderLenEv
libkea-dhcp++.so.74:_ZNK3isc4dhcp6Option12headerToTextEiRKNSt7__cxx1112basic_stringIcSt11char_traitsIcESaIcEEE
libkea-dhcp++.so.74:_ZNK3isc4dhcp6Option14getOptionsCopyERSt8multimapIjN5boost10shared_ptrIS1_EESt4lessIjESaISt4pairIKjS5_EEE
libkea-dhcp++.so.74:_ZNK3isc4dhcp6Option16suboptionsToTextB5cxx11Ei
libkea-dhcp++.so.74:_ZNK3isc4dhcp6Option3lenEv
libkea-dhcp++.so.74:_ZNK3isc4dhcp6Option4packERNS_4util12OutputBufferEb
libkea-dhcp++.so.74:_ZNK3isc4dhcp6Option5checkEv
libkea-dhcp++.so.74:_ZNK3isc4dhcp6Option5cloneEv
libkea-dhcp++.so.74:_ZNK3isc4dhcp6Option5validEv
libkea-dhcp++.so.74:_ZNK3isc4dhcp6Option6equalsERKN5boost10shared_ptrIS1_EE
libkea-dhcp++.so.74:_ZNK3isc4dhcp6Option6equalsERKS1_
libkea-dhcp++.so.74:_ZNK3isc4dhcp6Option6toTextB5cxx11Ei
libkea-dhcp++.so.74:_ZNK3isc4dhcp6Option8getUint8Ev
libkea-dhcp++.so.74:_ZNK3isc4dhcp6Option8toBinaryEb
libkea-dhcp++.so.74:_ZNK3isc4dhcp6Option8toStringB5cxx11Ev
libkea-dhcp++.so.74:_ZNK3isc4dhcp6Option9getOptionEt
libkea-dhcp++.so.74:_ZNK3isc4dhcp6Option9getUint16Ev
libkea-dhcp++.so.74:_ZNK3isc4dhcp6Option9getUint32Ev
libkea-dhcp++.so.74:_ZNK3isc4dhcp8ClientId11getClientIdEv
libkea-dhcp++.so.74:_ZNK3isc4dhcp8IfaceMgr13hasOpenSocketERKNS_8asiolink9IOAddressE
libkea-dhcp++.so.74:_ZNK3isc4dhcp8IfaceMgr13hasOpenSocketEt
libkea-dhcp++.so.74:_ZNK3isc4dhcp8IfaceMgr25isDirectResponseSupportedEv
libkea-dhcp++.so.74:_ZNK3isc4dhcp9Option6IA3lenEv
libkea-dhcp++.so.74:_ZNK3isc4dhcp9Option6IA4packERNS_4util12OutputBufferEb
libkea-dhcp++.so.74:_ZNK3isc4dhcp9Option6IA5cloneEv
libkea-dhcp++.so.74:_ZNK3isc4dhcp9Option6IA6toTextB5cxx11Ei
libkea-dhcp++.so.74:_ZNSt15__exception_ptr12__dest_thunkIN5boost4asio19multiple_exceptionsEEEvPv
libkea-dhcp++.so.74:_ZNSt17_Function_handlerIFbbESt5_BindIFMN3isc4dhcp8IfaceMgrEFbbEPS4_St12_PlaceholderILi1EEEEE10_M_managerERSt9_Any_dataRKSD_St18_Manager_operation
libkea-dhcp++.so.74:_ZNSt17_Function_handlerIFbbESt5_BindIFMN3isc4dhcp8IfaceMgrEFbbEPS4_St12_PlaceholderILi1EEEEE9_M_invokeERKSt9_Any_dataOb
libkea-dhcp++.so.74:_ZNSt17_Function_handlerIFvvESt5_BindIFMN3isc4dhcp8IfaceMgrEFvvEPS4_EEE10_M_managerERSt9_Any_dataRKSB_St18_Manager_operation
libkea-dhcp++.so.74:_ZNSt17_Function_handlerIFvvESt5_BindIFMN3isc4dhcp8IfaceMgrEFvvEPS4_EEE9_M_invokeERKSt9_Any_data
libkea-dhcp++.so.74:_ZThn120_N3isc4dhcp10Option6Dnr15unpackAddressesERN9__gnu_cxx17__normal_iteratorIPKhSt6vectorIhSaIhEEEES9_
libkea-dhcp++.so.74:_ZThn120_NK3isc4dhcp10Option6Dnr13packAddressesERNS_4util12OutputBufferE
libkea-dhcp++.so.74:boost_asio_detail_posix_thread_function
libkea-dhcp_ddns.so.41:_ZN3isc9dhcp_ddns11UDPCallback7putDataEPKhm
libkea-dhcp_ddns.so.41:_ZN3isc9dhcp_ddns11UDPCallbackC1ERN5boost12shared_arrayIhEEmRNS2_10shared_ptrINS_8asiolink11UDPEndpointEEERKSt8functionIFvbPKS1_EE
libkea-dhcp_ddns.so.41:_ZN3isc9dhcp_ddns11UDPCallbackC2ERN5boost12shared_arrayIhEEmRNS2_10shared_ptrINS_8asiolink11UDPEndpointEEERKSt8functionIFvbPKS1_EE
libkea-dhcp_ddns.so.41:_ZN3isc9dhcp_ddns11UDPCallbackclEN5boost6system10error_codeEm
libkea-dhcp_ddns.so.41:_ZN3isc9dhcp_ddns16NameChangeSender10runReadyIOEv
libkea-dhcp_ddns.so.41:_ZN3isc9dhcp_ddns16NameChangeSender11assumeQueueERS1_
libkea-dhcp_ddns.so.41:_ZN3isc9dhcp_ddns16NameChangeSender11getSelectFdEv
libkea-dhcp_ddns.so.41:_ZN3isc9dhcp_ddns16NameChangeSender11sendRequestERN5boost10shared_ptrINS0_17NameChangeRequestEEE
libkea-dhcp_ddns.so.41:_ZN3isc9dhcp_ddns16NameChangeSender11stopSendingEv
libkea-dhcp_ddns.so.41:_ZN3isc9dhcp_ddns16NameChangeSender12startSendingERNS_8asiolink9IOServiceE
libkea-dhcp_ddns.so.41:_ZN3isc9dhcp_ddns16NameChangeSender14clearSendQueueEv
libkea-dhcp_ddns.so.41:_ZN3isc9dhcp_ddns16NameChangeSender15setQueueMaxSizeEm
libkea-dhcp_ddns.so.41:_ZN3isc9dhcp_ddns16NameChangeSender16skipNextInternalEv
libkea-dhcp_ddns.so.41:_ZN3isc9dhcp_ddns16NameChangeSender17invokeSendHandlerENS1_6ResultE
libkea-dhcp_ddns.so.41:_ZN3isc9dhcp_ddns16NameChangeSender19assumeQueueInternalERS1_
libkea-dhcp_ddns.so.41:_ZN3isc9dhcp_ddns16NameChangeSender19sendRequestInternalERN5boost10shared_ptrINS0_17NameChangeRequestEEE
libkea-dhcp_ddns.so.41:_ZN3isc9dhcp_ddns16NameChangeSender20startSendingInternalERNS_8asiolink9IOServiceE
libkea-dhcp_ddns.so.41:_ZN3isc9dhcp_ddns16NameChangeSender25invokeSendHandlerInternalENS1_6ResultE
libkea-dhcp_ddns.so.41:_ZN3isc9dhcp_ddns16NameChangeSender8sendNextEv
libkea-dhcp_ddns.so.41:_ZN3isc9dhcp_ddns16NameChangeSender8skipNextEv
libkea-dhcp_ddns.so.41:_ZN3isc9dhcp_ddns16NameChangeSenderC1ERNS1_18RequestSendHandlerEm
libkea-dhcp_ddns.so.41:_ZN3isc9dhcp_ddns16NameChangeSenderC2ERNS1_18RequestSendHandlerEm
libkea-dhcp_ddns.so.41:_ZN3isc9dhcp_ddns17NameChangeRequest10fromFormatENS0_16NameChangeFormatERNS_4util11InputBufferE
libkea-dhcp_ddns.so.41:_ZN3isc9dhcp_ddns17NameChangeRequest12setIpAddressEN5boost10shared_ptrIKNS_4data7ElementEEE
libkea-dhcp_ddns.so.41:_ZN3isc9dhcp_ddns17NameChangeRequest12setIpAddressERKNSt7__cxx1112basic_stringIcSt11char_traitsIcESaIcEEE
libkea-dhcp_ddns.so.41:_ZN3isc9dhcp_ddns17NameChangeRequest13setChangeTypeEN5boost10shared_ptrIKNS_4data7ElementEEE
libkea-dhcp_ddns.so.41:_ZN3isc9dhcp_ddns17NameChangeRequest13setChangeTypeENS0_14NameChangeTypeE
libkea-dhcp_ddns.so.41:_ZN3isc9dhcp_ddns17NameChangeRequest14setLeaseLengthEN5boost10shared_ptrIKNS_4data7ElementEEE
libkea-dhcp_ddns.so.41:_ZN3isc9dhcp_ddns17NameChangeRequest14setLeaseLengthEj
libkea-dhcp_ddns.so.41:_ZN3isc9dhcp_ddns17NameChangeRequest15validateContentEv
libkea-dhcp_ddns.so.41:_ZN3isc9dhcp_ddns17NameChangeRequest16setForwardChangeEN5boost10shared_ptrIKNS_4data7ElementEEE
libkea-dhcp_ddns.so.41:_ZN3isc9dhcp_ddns17NameChangeRequest16setForwardChangeEb
libkea-dhcp_ddns.so.41:_ZN3isc9dhcp_ddns17NameChangeRequest16setReverseChangeEN5boost10shared_ptrIKNS_4data7ElementEEE
libkea-dhcp_ddns.so.41:_ZN3isc9dhcp_ddns17NameChangeRequest16setReverseChangeEb
libkea-dhcp_ddns.so.41:_ZN3isc9dhcp_ddns17NameChangeRequest17setLeaseExpiresOnEN5boost10shared_ptrIKNS_4data7ElementEEE
libkea-dhcp_ddns.so.41:_ZN3isc9dhcp_ddns17NameChangeRequest17setLeaseExpiresOnERKNSt7__cxx1112basic_stringIcSt11char_traitsIcESaIcEEE
libkea-dhcp_ddns.so.41:_ZN3isc9dhcp_ddns17NameChangeRequest21setConflictResolutionEN5boost10shared_ptrIKNS_4data7ElementEEE
libkea-dhcp_ddns.so.41:_ZN3isc9dhcp_ddns17NameChangeRequest21setConflictResolutionEb
libkea-dhcp_ddns.so.41:_ZN3isc9dhcp_ddns17NameChangeRequest7setFqdnEN5boost10shared_ptrIKNS_4data7ElementEEE
libkea-dhcp_ddns.so.41:_ZN3isc9dhcp_ddns17NameChangeRequest7setFqdnERKNSt7__cxx1112basic_stringIcSt11char_traitsIcESaIcEEE
libkea-dhcp_ddns.so.41:_ZN3isc9dhcp_ddns17NameChangeRequest8fromJSONERKNSt7__cxx1112basic_stringIcSt11char_traitsIcESaIcEEE
libkea-dhcp_ddns.so.41:_ZN3isc9dhcp_ddns17NameChangeRequest8setDhcidEN5boost10shared_ptrIKNS_4data7ElementEEE
libkea-dhcp_ddns.so.41:_ZN3isc9dhcp_ddns17NameChangeRequest8setDhcidERKNSt7__cxx1112basic_stringIcSt11char_traitsIcESaIcEEE
libkea-dhcp_ddns.so.41:_ZN3isc9dhcp_ddns17NameChangeRequest9setStatusENS0_16NameChangeStatusE
libkea-dhcp_ddns.so.41:_ZN3isc9dhcp_ddns17NameChangeRequestC1ENS0_14NameChangeTypeEbbRKNSt7__cxx1112basic_stringIcSt11char_traitsIcESaIcEEESA_RKNS0_7D2DhcidEmjb
libkea-dhcp_ddns.so.41:_ZN3isc9dhcp_ddns17NameChangeRequestC1Ev
libkea-dhcp_ddns.so.41:_ZN3isc9dhcp_ddns17NameChangeRequestC2ENS0_14NameChangeTypeEbbRKNSt7__cxx1112basic_stringIcSt11char_traitsIcESaIcEEESA_RKNS0_7D2DhcidEmjb
libkea-dhcp_ddns.so.41:_ZN3isc9dhcp_ddns17NameChangeRequestC2Ev
libkea-dhcp_ddns.so.41:_ZN3isc9dhcp_ddns17ncrFormatToStringB5cxx11ENS0_16NameChangeFormatE
libkea-dhcp_ddns.so.41:_ZN3isc9dhcp_ddns17stringToNcrFormatERKNSt7__cxx1112basic_stringIcSt11char_traitsIcESaIcEEE
libkea-dhcp_ddns.so.41:_ZN3isc9dhcp_ddns18NameChangeListener11receiveNextEv
libkea-dhcp_ddns.so.41:_ZN3isc9dhcp_ddns18NameChangeListener13stopListeningEv
libkea-dhcp_ddns.so.41:_ZN3isc9dhcp_ddns18NameChangeListener14startListeningERNS_8asiolink9IOServiceE
libkea-dhcp_ddns.so.41:_ZN3isc9dhcp_ddns18NameChangeListener17invokeRecvHandlerENS1_6ResultERN5boost10shared_ptrINS0_17NameChangeRequestEEE
libkea-dhcp_ddns.so.41:_ZN3isc9dhcp_ddns18NameChangeListenerC1ERNS1_21RequestReceiveHandlerE
libkea-dhcp_ddns.so.41:_ZN3isc9dhcp_ddns18NameChangeListenerC2ERNS1_21RequestReceiveHandlerE
libkea-dhcp_ddns.so.41:_ZN3isc9dhcp_ddns19NameChangeUDPSender11getSelectFdEv
libkea-dhcp_ddns.so.41:_ZN3isc9dhcp_ddns19NameChangeUDPSender16closeWatchSocketEv
libkea-dhcp_ddns.so.41:_ZN3isc9dhcp_ddns19NameChangeUDPSender21sendCompletionHandlerEbPKNS0_11UDPCallbackE
libkea-dhcp_ddns.so.41:_ZN3isc9dhcp_ddns19NameChangeUDPSender4openERNS_8asiolink9IOServiceE
libkea-dhcp_ddns.so.41:_ZN3isc9dhcp_ddns19NameChangeUDPSender5closeEv
libkea-dhcp_ddns.so.41:_ZN3isc9dhcp_ddns19NameChangeUDPSender6doSendERN5boost10shared_ptrINS0_17NameChangeRequestEEE
libkea-dhcp_ddns.so.41:_ZN3isc9dhcp_ddns19NameChangeUDPSender7ioReadyEv
libkea-dhcp_ddns.so.41:_ZN3isc9dhcp_ddns19NameChangeUDPSenderC1ERKNS_8asiolink9IOAddressEjS5_jNS0_16NameChangeFormatERNS0_16NameChangeSender18RequestSendHandlerEmb
libkea-dhcp_ddns.so.41:_ZN3isc9dhcp_ddns19NameChangeUDPSenderC2ERKNS_8asiolink9IOAddressEjS5_jNS0_16NameChangeFormatERNS0_16NameChangeSender18RequestSendHandlerEmb
libkea-dhcp_ddns.so.41:_ZN3isc9dhcp_ddns19NameChangeUDPSenderD0Ev
libkea-dhcp_ddns.so.41:_ZN3isc9dhcp_ddns19NameChangeUDPSenderD1Ev
libkea-dhcp_ddns.so.41:_ZN3isc9dhcp_ddns19NameChangeUDPSenderD2Ev
libkea-dhcp_ddns.so.41:_ZN3isc9dhcp_ddns19ncrProtocolToStringB5cxx11ENS0_18NameChangeProtocolE
libkea-dhcp_ddns.so.41:_ZN3isc9dhcp_ddns19stringToNcrProtocolERKNSt7__cxx1112basic_stringIcSt11char_traitsIcESaIcEEE
libkea-dhcp_ddns.so.41:_ZN3isc9dhcp_ddns21NameChangeUDPListener24receiveCompletionHandlerEbPKNS0_11UDPCallbackE
libkea-dhcp_ddns.so.41:_ZN3isc9dhcp_ddns21NameChangeUDPListener4openERNS_8asiolink9IOServiceE
libkea-dhcp_ddns.so.41:_ZN3isc9dhcp_ddns21NameChangeUDPListener5closeEv
libkea-dhcp_ddns.so.41:_ZN3isc9dhcp_ddns21NameChangeUDPListener9doReceiveEv
libkea-dhcp_ddns.so.41:_ZN3isc9dhcp_ddns21NameChangeUDPListenerC1ERKNS_8asiolink9IOAddressEjNS0_16NameChangeFormatERNS0_18NameChangeListener21RequestReceiveHandlerEb
libkea-dhcp_ddns.so.41:_ZN3isc9dhcp_ddns21NameChangeUDPListenerC2ERKNS_8asiolink9IOAddressEjNS0_16NameChangeFormatERNS0_18NameChangeListener21RequestReceiveHandlerEb
libkea-dhcp_ddns.so.41:_ZN3isc9dhcp_ddns21NameChangeUDPListenerD0Ev
libkea-dhcp_ddns.so.41:_ZN3isc9dhcp_ddns21NameChangeUDPListenerD1Ev
libkea-dhcp_ddns.so.41:_ZN3isc9dhcp_ddns21NameChangeUDPListenerD2Ev
libkea-dhcp_ddns.so.41:_ZN3isc9dhcp_ddns7D2Dhcid10fromHWAddrERKN5boost10shared_ptrINS_4dhcp6HWAddrEEERKSt6vectorIhSaIhEE
libkea-dhcp_ddns.so.41:_ZN3isc9dhcp_ddns7D2Dhcid12createDigestEhRKSt6vectorIhSaIhEES6_
libkea-dhcp_ddns.so.41:_ZN3isc9dhcp_ddns7D2Dhcid12fromClientIdERKSt6vectorIhSaIhEES6_
libkea-dhcp_ddns.so.41:_ZN3isc9dhcp_ddns7D2Dhcid7fromStrERKNSt7__cxx1112basic_stringIcSt11char_traitsIcESaIcEEE
libkea-dhcp_ddns.so.41:_ZN3isc9dhcp_ddns7D2Dhcid8fromDUIDERKNS_4dhcp4DUIDERKSt6vectorIhSaIhEE
libkea-dhcp_ddns.so.41:_ZN3isc9dhcp_ddns7D2DhcidC1ERKN5boost10shared_ptrINS_4dhcp6HWAddrEEERKSt6vectorIhSaIhEE
libkea-dhcp_ddns.so.41:_ZN3isc9dhcp_ddns7D2DhcidC1ERKNS_4dhcp4DUIDERKSt6vectorIhSaIhEE
libkea-dhcp_ddns.so.41:_ZN3isc9dhcp_ddns7D2DhcidC1ERKNSt7__cxx1112basic_stringIcSt11char_traitsIcESaIcEEE
libkea-dhcp_ddns.so.41:_ZN3isc9dhcp_ddns7D2DhcidC1ERKSt6vectorIhSaIhEES6_
libkea-dhcp_ddns.so.41:_ZN3isc9dhcp_ddns7D2DhcidC1Ev
libkea-dhcp_ddns.so.41:_ZN3isc9dhcp_ddns7D2DhcidC2ERKN5boost10shared_ptrINS_4dhcp6HWAddrEEERKSt6vectorIhSaIhEE
libkea-dhcp_ddns.so.41:_ZN3isc9dhcp_ddns7D2DhcidC2ERKNS_4dhcp4DUIDERKSt6vectorIhSaIhEE
libkea-dhcp_ddns.so.41:_ZN3isc9dhcp_ddns7D2DhcidC2ERKNSt7__cxx1112basic_stringIcSt11char_traitsIcESaIcEEE
libkea-dhcp_ddns.so.41:_ZN3isc9dhcp_ddns7D2DhcidC2ERKSt6vectorIhSaIhEES6_
libkea-dhcp_ddns.so.41:_ZN3isc9dhcp_ddns7D2DhcidC2Ev
libkea-dhcp_ddns.so.41:_ZN3isc9dhcp_ddnslsERSoRKNS0_7D2DhcidE
libkea-dhcp_ddns.so.41:_ZN5boost4asio6detail11executor_opINS1_17executor_functionESaIvENS1_19scheduler_operationEE11do_completeEPvPS5_RKNS_6system10error_codeEm
libkea-dhcp_ddns.so.41:_ZN5boost4asio6detail13epoll_reactor16descriptor_state11do_completeEPvPNS1_19scheduler_operationERKNS_6system10error_codeEm
libkea-dhcp_ddns.so.41:_ZN5boost4asio6detail16service_registry6createINS1_13epoll_reactorENS0_17execution_contextEEEPNS5_7serviceEPv
libkea-dhcp_ddns.so.41:_ZN5boost4asio6detail16service_registry6createINS1_23reactive_socket_serviceINS0_2ip3udpEEENS0_10io_contextEEEPNS0_17execution_context7serviceEPv
libkea-dhcp_ddns.so.41:_ZN5boost4asio6detail17executor_function8completeINS1_7binder2IN3isc9dhcp_ddns11UDPCallbackENS_6system10error_codeEmEESaIvEEEvPNS2_9impl_baseEb
libkea-dhcp_ddns.so.41:_ZN5boost4asio6detail22executor_function_view8completeINS1_7binder2IN3isc9dhcp_ddns11UDPCallbackENS_6system10error_codeEmEEEEvPv
libkea-dhcp_ddns.so.41:_ZN5boost4asio6detail25reactive_socket_sendto_opINS0_15const_buffers_1ENS0_2ip14basic_endpointINS4_3udpEEEN3isc9dhcp_ddns11UDPCallbackENS0_15any_io_executorEE11do_completeEPvPNS1_19scheduler_operationERKNS_6system10error_codeEm
libkea-dhcp_ddns.so.41:_ZN5boost4asio6detail27reactive_socket_recvfrom_opINS0_17mutable_buffers_1ENS0_2ip14basic_endpointINS4_3udpEEEN3isc9dhcp_ddns11UDPCallbackENS0_15any_io_executorEE11do_completeEPvPNS1_19scheduler_operationERKNS_6system10error_codeEm
libkea-dhcp_ddns.so.41:_ZN5boost4asio6detail30reactive_socket_sendto_op_baseINS0_15const_buffers_1ENS0_2ip14basic_endpointINS4_3udpEEEE10do_performEPNS1_10reactor_opE
libkea-dhcp_ddns.so.41:_ZN5boost4asio6detail32reactive_socket_recvfrom_op_baseINS0_17mutable_buffers_1ENS0_2ip14basic_endpointINS4_3udpEEEE10do_performEPNS1_10reactor_opE
libkea-dhcp_ddns.so.41:_ZN5boost4asio9execution6detail17any_executor_base10equal_voidERKS3_S5_
libkea-dhcp_ddns.so.41:_ZN5boost4asio9execution6detail17any_executor_base10execute_exINS0_10io_context19basic_executor_typeISaIvELj0EEEEEvRKS3_ONS0_6detail17executor_functionE
libkea-dhcp_ddns.so.41:_ZN5boost4asio9execution6detail17any_executor_base10execute_exINS0_10io_context19basic_executor_typeISaIvELj4EEEEEvRKS3_ONS0_6detail17executor_functionE
libkea-dhcp_ddns.so.41:_ZN5boost4asio9execution6detail17any_executor_base10require_fnINS1_12any_executorIJNS1_12context_as_tIRNS0_17execution_contextEEENS2_8blocking7never_tILi0EEENS1_11prefer_onlyINSA_10possibly_tILi0EEEEENSD_INS2_16outstanding_work9tracked_tILi0EEEEENSD_INSH_11untracked_tILi0EEEEENSD_INS2_12relationship6fork_tILi0EEEEENSD_INSO_14continuation_tILi0EEEEEEEENS0_10io_context19basic_executor_typeISaIvELj0EEES9_EET_PKvS12_
libkea-dhcp_ddns.so.41:_ZN5boost4asio9execution6detail17any_executor_base10require_fnINS1_12any_executorIJNS1_12context_as_tIRNS0_17execution_contextEEENS2_8blocking7never_tILi0EEENS1_11prefer_onlyINSA_10possibly_tILi0EEEEENSD_INS2_16outstanding_work9tracked_tILi0EEEEENSD_INSH_11untracked_tILi0EEEEENSD_INS2_12relationship6fork_tILi0EEEEENSD_INSO_14continuation_tILi0EEEEEEEENS0_10io_context19basic_executor_typeISaIvELj0EEESC_EET_PKvS12_
libkea-dhcp_ddns.so.41:_ZN5boost4asio9execution6detail17any_executor_base10require_fnINS1_12any_executorIJNS1_12context_as_tIRNS0_17execution_contextEEENS2_8blocking7never_tILi0EEENS1_11prefer_onlyINSA_10possibly_tILi0EEEEENSD_INS2_16outstanding_work9tracked_tILi0EEEEENSD_INSH_11untracked_tILi0EEEEENSD_INS2_12relationship6fork_tILi0EEEEENSD_INSO_14continuation_tILi0EEEEEEEENS0_10io_context19basic_executor_typeISaIvELj0EEESG_EET_PKvS12_
libkea-dhcp_ddns.so.41:_ZN5boost4asio9execution6detail17any_executor_base10require_fnINS1_12any_executorIJNS1_12context_as_tIRNS0_17execution_contextEEENS2_8blocking7never_tILi0EEENS1_11prefer_onlyINSA_10possibly_tILi0EEEEENSD_INS2_16outstanding_work9tracked_tILi0EEEEENSD_INSH_11untracked_tILi0EEEEENSD_INS2_12relationship6fork_tILi0EEEEENSD_INSO_14continuation_tILi0EEEEEEEENS0_10io_context19basic_executor_typeISaIvELj0EEESK_EET_PKvS12_
libkea-dhcp_ddns.so.41:_ZN5boost4asio9execution6detail17any_executor_base10require_fnINS1_12any_executorIJNS1_12context_as_tIRNS0_17execution_contextEEENS2_8blocking7never_tILi0EEENS1_11prefer_onlyINSA_10possibly_tILi0EEEEENSD_INS2_16outstanding_work9tracked_tILi0EEEEENSD_INSH_11untracked_tILi0EEEEENSD_INS2_12relationship6fork_tILi0EEEEENSD_INSO_14continuation_tILi0EEEEEEEENS0_10io_context19basic_executor_typeISaIvELj0EEESN_EET_PKvS12_
libkea-dhcp_ddns.so.41:_ZN5boost4asio9execution6detail17any_executor_base10require_fnINS1_12any_executorIJNS1_12context_as_tIRNS0_17execution_contextEEENS2_8blocking7never_tILi0EEENS1_11prefer_onlyINSA_10possibly_tILi0EEEEENSD_INS2_16outstanding_work9tracked_tILi0EEEEENSD_INSH_11untracked_tILi0EEEEENSD_INS2_12relationship6fork_tILi0EEEEENSD_INSO_14continuation_tILi0EEEEEEEENS0_10io_context19basic_executor_typeISaIvELj0EEESR_EET_PKvS12_
libkea-dhcp_ddns.so.41:_ZN5boost4asio9execution6detail17any_executor_base10require_fnINS1_12any_executorIJNS1_12context_as_tIRNS0_17execution_contextEEENS2_8blocking7never_tILi0EEENS1_11prefer_onlyINSA_10possibly_tILi0EEEEENSD_INS2_16outstanding_work9tracked_tILi0EEEEENSD_INSH_11untracked_tILi0EEEEENSD_INS2_12relationship6fork_tILi0EEEEENSD_INSO_14continuation_tILi0EEEEEEEENS0_10io_context19basic_executor_typeISaIvELj0EEESU_EET_PKvS12_
libkea-dhcp_ddns.so.41:_ZN5boost4asio9execution6detail17any_executor_base10require_fnINS1_12any_executorIJNS1_12context_as_tIRNS0_17execution_contextEEENS2_8blocking7never_tILi0EEENS1_11prefer_onlyINSA_10possibly_tILi0EEEEENSD_INS2_16outstanding_work9tracked_tILi0EEEEENSD_INSH_11untracked_tILi0EEEEENSD_INS2_12relationship6fork_tILi0EEEEENSD_INSO_14continuation_tILi0EEEEEEEENS0_10io_context19basic_executor_typeISaIvELj4EEES9_EET_PKvS12_
libkea-dhcp_ddns.so.41:_ZN5boost4asio9execution6detail17any_executor_base10require_fnINS1_12any_executorIJNS1_12context_as_tIRNS0_17execution_contextEEENS2_8blocking7never_tILi0EEENS1_11prefer_onlyINSA_10possibly_tILi0EEEEENSD_INS2_16outstanding_work9tracked_tILi0EEEEENSD_INSH_11untracked_tILi0EEEEENSD_INS2_12relationship6fork_tILi0EEEEENSD_INSO_14continuation_tILi0EEEEEEEENS0_10io_context19basic_executor_typeISaIvELj4EEESC_EET_PKvS12_
libkea-dhcp_ddns.so.41:_ZN5boost4asio9execution6detail17any_executor_base10require_fnINS1_12any_executorIJNS1_12context_as_tIRNS0_17execution_contextEEENS2_8blocking7never_tILi0EEENS1_11prefer_onlyINSA_10possibly_tILi0EEEEENSD_INS2_16outstanding_work9tracked_tILi0EEEEENSD_INSH_11untracked_tILi0EEEEENSD_INS2_12relationship6fork_tILi0EEEEENSD_INSO_14continuation_tILi0EEEEEEEENS0_10io_context19basic_executor_typeISaIvELj4EEESG_EET_PKvS12_
libkea-dhcp_ddns.so.41:_ZN5boost4asio9execution6detail17any_executor_base10require_fnINS1_12any_executorIJNS1_12context_as_tIRNS0_17execution_contextEEENS2_8blocking7never_tILi0EEENS1_11prefer_onlyINSA_10possibly_tILi0EEEEENSD_INS2_16outstanding_work9tracked_tILi0EEEEENSD_INSH_11untracked_tILi0EEEEENSD_INS2_12relationship6fork_tILi0EEEEENSD_INSO_14continuation_tILi0EEEEEEEENS0_10io_context19basic_executor_typeISaIvELj4EEESK_EET_PKvS12_
libkea-dhcp_ddns.so.41:_ZN5boost4asio9execution6detail17any_executor_base10require_fnINS1_12any_executorIJNS1_12context_as_tIRNS0_17execution_contextEEENS2_8blocking7never_tILi0EEENS1_11prefer_onlyINSA_10possibly_tILi0EEEEENSD_INS2_16outstanding_work9tracked_tILi0EEEEENSD_INSH_11untracked_tILi0EEEEENSD_INS2_12relationship6fork_tILi0EEEEENSD_INSO_14continuation_tILi0EEEEEEEENS0_10io_context19basic_executor_typeISaIvELj4EEESN_EET_PKvS12_
libkea-dhcp_ddns.so.41:_ZN5boost4asio9execution6detail17any_executor_base10require_fnINS1_12any_executorIJNS1_12context_as_tIRNS0_17execution_contextEEENS2_8blocking7never_tILi0EEENS1_11prefer_onlyINSA_10possibly_tILi0EEEEENSD_INS2_16outstanding_work9tracked_tILi0EEEEENSD_INSH_11untracked_tILi0EEEEENSD_INS2_12relationship6fork_tILi0EEEEENSD_INSO_14continuation_tILi0EEEEEEEENS0_10io_context19basic_executor_typeISaIvELj4EEESR_EET_PKvS12_
libkea-dhcp_ddns.so.41:_ZN5boost4asio9execution6detail17any_executor_base10require_fnINS1_12any_executorIJNS1_12context_as_tIRNS0_17execution_contextEEENS2_8blocking7never_tILi0EEENS1_11prefer_onlyINSA_10possibly_tILi0EEEEENSD_INS2_16outstanding_work9tracked_tILi0EEEEENSD_INSH_11untracked_tILi0EEEEENSD_INS2_12relationship6fork_tILi0EEEEENSD_INSO_14continuation_tILi0EEEEEEEENS0_10io_context19basic_executor_typeISaIvELj4EEESU_EET_PKvS12_
libkea-dhcp_ddns.so.41:_ZN5boost4asio9execution6detail17any_executor_base10require_fnINS1_12any_executorIJNS1_12context_as_tIRNS0_17execution_contextEEENS2_8blocking7never_tILi0EEENS1_11prefer_onlyINSA_10possibly_tILi0EEEEENSD_INS2_16outstanding_work9tracked_tILi0EEEEENSD_INSH_11untracked_tILi0EEEEENSD_INS2_12relationship6fork_tILi0EEEEENSD_INSO_14continuation_tILi0EEEEEEEEvS9_EET_PKvSY_
libkea-dhcp_ddns.so.41:_ZN5boost4asio9execution6detail17any_executor_base10require_fnINS1_12any_executorIJNS1_12context_as_tIRNS0_17execution_contextEEENS2_8blocking7never_tILi0EEENS1_11prefer_onlyINSA_10possibly_tILi0EEEEENSD_INS2_16outstanding_work9tracked_tILi0EEEEENSD_INSH_11untracked_tILi0EEEEENSD_INS2_12relationship6fork_tILi0EEEEENSD_INSO_14continuation_tILi0EEEEEEEEvSC_EET_PKvSY_
libkea-dhcp_ddns.so.41:_ZN5boost4asio9execution6detail17any_executor_base10require_fnINS1_12any_executorIJNS1_12context_as_tIRNS0_17execution_contextEEENS2_8blocking7never_tILi0EEENS1_11prefer_onlyINSA_10possibly_tILi0EEEEENSD_INS2_16outstanding_work9tracked_tILi0EEEEENSD_INSH_11untracked_tILi0EEEEENSD_INS2_12relationship6fork_tILi0EEEEENSD_INSO_14continuation_tILi0EEEEEEEEvSG_EET_PKvSY_
libkea-dhcp_ddns.so.41:_ZN5boost4asio9execution6detail17any_executor_base10require_fnINS1_12any_executorIJNS1_12context_as_tIRNS0_17execution_contextEEENS2_8blocking7never_tILi0EEENS1_11prefer_onlyINSA_10possibly_tILi0EEEEENSD_INS2_16outstanding_work9tracked_tILi0EEEEENSD_INSH_11untracked_tILi0EEEEENSD_INS2_12relationship6fork_tILi0EEEEENSD_INSO_14continuation_tILi0EEEEEEEEvSK_EET_PKvSY_
libkea-dhcp_ddns.so.41:_ZN5boost4asio9execution6detail17any_executor_base10require_fnINS1_12any_executorIJNS1_12context_as_tIRNS0_17execution_contextEEENS2_8blocking7never_tILi0EEENS1_11prefer_onlyINSA_10possibly_tILi0EEEEENSD_INS2_16outstanding_work9tracked_tILi0EEEEENSD_INSH_11untracked_tILi0EEEEENSD_INS2_12relationship6fork_tILi0EEEEENSD_INSO_14continuation_tILi0EEEEEEEEvSN_EET_PKvSY_
libkea-dhcp_ddns.so.41:_ZN5boost4asio9execution6detail17any_executor_base10require_fnINS1_12any_executorIJNS1_12context_as_tIRNS0_17execution_contextEEENS2_8blocking7never_tILi0EEENS1_11prefer_onlyINSA_10possibly_tILi0EEEEENSD_INS2_16outstanding_work9tracked_tILi0EEEEENSD_INSH_11untracked_tILi0EEEEENSD_INS2_12relationship6fork_tILi0EEEEENSD_INSO_14continuation_tILi0EEEEEEEEvSR_EET_PKvSY_
libkea-dhcp_ddns.so.41:_ZN5boost4asio9execution6detail17any_executor_base10require_fnINS1_12any_executorIJNS1_12context_as_tIRNS0_17execution_contextEEENS2_8blocking7never_tILi0EEENS1_11prefer_onlyINSA_10possibly_tILi0EEEEENSD_INS2_16outstanding_work9tracked_tILi0EEEEENSD_INSH_11untracked_tILi0EEEEENSD_INS2_12relationship6fork_tILi0EEEEENSD_INSO_14continuation_tILi0EEEEEEEEvSU_EET_PKvSY_
libkea-dhcp_ddns.so.41:_ZN5boost4asio9execution6detail17any_executor_base11copy_objectINS0_10io_context19basic_executor_typeISaIvELj0EEEEEvRS3_RKS3_
libkea-dhcp_ddns.so.41:_ZN5boost4asio9execution6detail17any_executor_base11copy_objectINS0_10io_context19basic_executor_typeISaIvELj4EEEEEvRS3_RKS3_
libkea-dhcp_ddns.so.41:_ZN5boost4asio9execution6detail17any_executor_base11move_objectINS0_10io_context19basic_executor_typeISaIvELj0EEEEEvRS3_S9_
libkea-dhcp_ddns.so.41:_ZN5boost4asio9execution6detail17any_executor_base11move_objectINS0_10io_context19basic_executor_typeISaIvELj4EEEEEvRS3_S9_
libkea-dhcp_ddns.so.41:_ZN5boost4asio9execution6detail17any_executor_base11target_voidERKS3_
libkea-dhcp_ddns.so.41:_ZN5boost4asio9execution6detail17any_executor_base12destroy_voidERS3_
libkea-dhcp_ddns.so.41:_ZN5boost4asio9execution6detail17any_executor_base12execute_voidERKS3_ONS0_6detail17executor_functionE
libkea-dhcp_ddns.so.41:_ZN5boost4asio9execution6detail17any_executor_base13target_objectINS0_10io_context19basic_executor_typeISaIvELj0EEEEEPKvRKS3_
libkea-dhcp_ddns.so.41:_ZN5boost4asio9execution6detail17any_executor_base13target_objectINS0_10io_context19basic_executor_typeISaIvELj4EEEEEPKvRKS3_
libkea-dhcp_ddns.so.41:_ZN5boost4asio9execution6detail17any_executor_base14destroy_objectINS0_10io_context19basic_executor_typeISaIvELj0EEEEEvRS3_
libkea-dhcp_ddns.so.41:_ZN5boost4asio9execution6detail17any_executor_base14destroy_objectINS0_10io_context19basic_executor_typeISaIvELj4EEEEEvRS3_
libkea-dhcp_ddns.so.41:_ZN5boost4asio9execution6detail17any_executor_base14target_type_exINS0_10io_context19basic_executor_typeISaIvELj0EEEEERKSt9type_infov
libkea-dhcp_ddns.so.41:_ZN5boost4asio9execution6detail17any_executor_base14target_type_exINS0_10io_context19basic_executor_typeISaIvELj4EEEEERKSt9type_infov
libkea-dhcp_ddns.so.41:_ZN5boost4asio9execution6detail17any_executor_base16target_type_voidEv
libkea-dhcp_ddns.so.41:_ZN5boost4asio9execution6detail17any_executor_base21blocking_execute_voidERKS3_NS0_6detail22executor_function_viewE
libkea-dhcp_ddns.so.41:_ZN5boost4asio9execution6detail17any_executor_base8equal_exINS0_10io_context19basic_executor_typeISaIvELj0EEEEEbRKS3_SA_
libkea-dhcp_ddns.so.41:_ZN5boost4asio9execution6detail17any_executor_base8equal_exINS0_10io_context19basic_executor_typeISaIvELj4EEEEEbRKS3_SA_
libkea-dhcp_ddns.so.41:_ZN5boost4asio9execution6detail17any_executor_base8query_fnINS0_10io_context19basic_executor_typeISaIvELj0EEENS1_11prefer_onlyINS2_12relationship14continuation_tILi0EEEEEEEvPvPKvSG_
libkea-dhcp_ddns.so.41:_ZN5boost4asio9execution6detail17any_executor_base8query_fnINS0_10io_context19basic_executor_typeISaIvELj0EEENS1_11prefer_onlyINS2_12relationship6fork_tILi0EEEEEEEvPvPKvSG_
libkea-dhcp_ddns.so.41:_ZN5boost4asio9execution6detail17any_executor_base8query_fnINS0_10io_context19basic_executor_typeISaIvELj0EEENS1_11prefer_onlyINS2_16outstanding_work11untracked_tILi0EEEEEEEvPvPKvSG_
libkea-dhcp_ddns.so.41:_ZN5boost4asio9execution6detail17any_executor_base8query_fnINS0_10io_context19basic_executor_typeISaIvELj0EEENS1_11prefer_onlyINS2_16outstanding_work9tracked_tILi0EEEEEEEvPvPKvSG_
libkea-dhcp_ddns.so.41:_ZN5boost4asio9execution6detail17any_executor_base8query_fnINS0_10io_context19basic_executor_typeISaIvELj0EEENS1_11prefer_onlyINS2_8blocking10possibly_tILi0EEEEEEEvPvPKvSG_
libkea-dhcp_ddns.so.41:_ZN5boost4asio9execution6detail17any_executor_base8query_fnINS0_10io_context19basic_executor_typeISaIvELj0EEENS1_12context_as_tIRNS0_17execution_contextEEEEEvPvPKvSF_
libkea-dhcp_ddns.so.41:_ZN5boost4asio9execution6detail17any_executor_base8query_fnINS0_10io_context19basic_executor_typeISaIvELj0EEENS2_8blocking7never_tILi0EEEEEvPvPKvSE_
libkea-dhcp_ddns.so.41:_ZN5boost4asio9execution6detail17any_executor_base8query_fnINS0_10io_context19basic_executor_typeISaIvELj4EEENS1_11prefer_onlyINS2_12relationship14continuation_tILi0EEEEEEEvPvPKvSG_
libkea-dhcp_ddns.so.41:_ZN5boost4asio9execution6detail17any_executor_base8query_fnINS0_10io_context19basic_executor_typeISaIvELj4EEENS1_11prefer_onlyINS2_12relationship6fork_tILi0EEEEEEEvPvPKvSG_
libkea-dhcp_ddns.so.41:_ZN5boost4asio9execution6detail17any_executor_base8query_fnINS0_10io_context19basic_executor_typeISaIvELj4EEENS1_11prefer_onlyINS2_16outstanding_work11untracked_tILi0EEEEEEEvPvPKvSG_
libkea-dhcp_ddns.so.41:_ZN5boost4asio9execution6detail17any_executor_base8query_fnINS0_10io_context19basic_executor_typeISaIvELj4EEENS1_11prefer_onlyINS2_16outstanding_work9tracked_tILi0EEEEEEEvPvPKvSG_
libkea-dhcp_ddns.so.41:_ZN5boost4asio9execution6detail17any_executor_base8query_fnINS0_10io_context19basic_executor_typeISaIvELj4EEENS1_11prefer_onlyINS2_8blocking10possibly_tILi0EEEEEEEvPvPKvSG_
libkea-dhcp_ddns.so.41:_ZN5boost4asio9execution6detail17any_executor_base8query_fnINS0_10io_context19basic_executor_typeISaIvELj4EEENS1_12context_as_tIRNS0_17execution_contextEEEEEvPvPKvSF_
libkea-dhcp_ddns.so.41:_ZN5boost4asio9execution6detail17any_executor_base8query_fnINS0_10io_context19basic_executor_typeISaIvELj4EEENS2_8blocking7never_tILi0EEEEEvPvPKvSE_
libkea-dhcp_ddns.so.41:_ZN5boost4asio9execution6detail17any_executor_base8query_fnIvNS1_11prefer_onlyINS2_12relationship14continuation_tILi0EEEEEEEvPvPKvSC_
libkea-dhcp_ddns.so.41:_ZN5boost4asio9execution6detail17any_executor_base8query_fnIvNS1_11prefer_onlyINS2_12relationship6fork_tILi0EEEEEEEvPvPKvSC_
libkea-dhcp_ddns.so.41:_ZN5boost4asio9execution6detail17any_executor_base8query_fnIvNS1_11prefer_onlyINS2_16outstanding_work11untracked_tILi0EEEEEEEvPvPKvSC_
libkea-dhcp_ddns.so.41:_ZN5boost4asio9execution6detail17any_executor_base8query_fnIvNS1_11prefer_onlyINS2_16outstanding_work9tracked_tILi0EEEEEEEvPvPKvSC_
libkea-dhcp_ddns.so.41:_ZN5boost4asio9execution6detail17any_executor_base8query_fnIvNS1_11prefer_onlyINS2_8blocking10possibly_tILi0EEEEEEEvPvPKvSC_
libkea-dhcp_ddns.so.41:_ZN5boost4asio9execution6detail17any_executor_base8query_fnIvNS1_12context_as_tIRNS0_17execution_contextEEEEEvPvPKvSB_
libkea-dhcp_ddns.so.41:_ZN5boost4asio9execution6detail17any_executor_base8query_fnIvNS2_8blocking7never_tILi0EEEEEvPvPKvSA_
libkea-dhcp_ddns.so.41:_ZN5boost4asio9execution6detail17any_executor_base9copy_voidERS3_RKS3_
libkea-dhcp_ddns.so.41:_ZN5boost4asio9execution6detail17any_executor_base9move_voidERS3_S4_
libkea-dhcp_ddns.so.41:_ZN5boost4asio9execution6detail17any_executor_base9prefer_fnINS1_12any_executorIJNS1_12context_as_tIRNS0_17execution_contextEEENS2_8blocking7never_tILi0EEENS1_11prefer_onlyINSA_10possibly_tILi0EEEEENSD_INS2_16outstanding_work9tracked_tILi0EEEEENSD_INSH_11untracked_tILi0EEEEENSD_INS2_12relationship6fork_tILi0EEEEENSD_INSO_14continuation_tILi0EEEEEEEENS0_10io_context19basic_executor_typeISaIvELj0EEES9_EET_PKvS12_
libkea-dhcp_ddns.so.41:_ZN5boost4asio9execution6detail17any_executor_base9prefer_fnINS1_12any_executorIJNS1_12context_as_tIRNS0_17execution_contextEEENS2_8blocking7never_tILi0EEENS1_11prefer_onlyINSA_10possibly_tILi0EEEEENSD_INS2_16outstanding_work9tracked_tILi0EEEEENSD_INSH_11untracked_tILi0EEEEENSD_INS2_12relationship6fork_tILi0EEEEENSD_INSO_14continuation_tILi0EEEEEEEENS0_10io_context19basic_executor_typeISaIvELj0EEESC_EET_PKvS12_
libkea-dhcp_ddns.so.41:_ZN5boost4asio9execution6detail17any_executor_base9prefer_fnINS1_12any_executorIJNS1_12context_as_tIRNS0_17execution_contextEEENS2_8blocking7never_tILi0EEENS1_11prefer_onlyINSA_10possibly_tILi0EEEEENSD_INS2_16outstanding_work9tracked_tILi0EEEEENSD_INSH_11untracked_tILi0EEEEENSD_INS2_12relationship6fork_tILi0EEEEENSD_INSO_14continuation_tILi0EEEEEEEENS0_10io_context19basic_executor_typeISaIvELj0EEESG_EET_PKvS12_
libkea-dhcp_ddns.so.41:_ZN5boost4asio9execution6detail17any_executor_base9prefer_fnINS1_12any_executorIJNS1_12context_as_tIRNS0_17execution_contextEEENS2_8blocking7never_tILi0EEENS1_11prefer_onlyINSA_10possibly_tILi0EEEEENSD_INS2_16outstanding_work9tracked_tILi0EEEEENSD_INSH_11untracked_tILi0EEEEENSD_INS2_12relationship6fork_tILi0EEEEENSD_INSO_14continuation_tILi0EEEEEEEENS0_10io_context19basic_executor_typeISaIvELj0EEESK_EET_PKvS12_
libkea-dhcp_ddns.so.41:_ZN5boost4asio9execution6detail17any_executor_base9prefer_fnINS1_12any_executorIJNS1_12context_as_tIRNS0_17execution_contextEEENS2_8blocking7never_tILi0EEENS1_11prefer_onlyINSA_10possibly_tILi0EEEEENSD_INS2_16outstanding_work9tracked_tILi0EEEEENSD_INSH_11untracked_tILi0EEEEENSD_INS2_12relationship6fork_tILi0EEEEENSD_INSO_14continuation_tILi0EEEEEEEENS0_10io_context19basic_executor_typeISaIvELj0EEESN_EET_PKvS12_
libkea-dhcp_ddns.so.41:_ZN5boost4asio9execution6detail17any_executor_base9prefer_fnINS1_12any_executorIJNS1_12context_as_tIRNS0_17execution_contextEEENS2_8blocking7never_tILi0EEENS1_11prefer_onlyINSA_10possibly_tILi0EEEEENSD_INS2_16outstanding_work9tracked_tILi0EEEEENSD_INSH_11untracked_tILi0EEEEENSD_INS2_12relationship6fork_tILi0EEEEENSD_INSO_14continuation_tILi0EEEEEEEENS0_10io_context19basic_executor_typeISaIvELj0EEESR_EET_PKvS12_
libkea-dhcp_ddns.so.41:_ZN5boost4asio9execution6detail17any_executor_base9prefer_fnINS1_12any_executorIJNS1_12context_as_tIRNS0_17execution_contextEEENS2_8blocking7never_tILi0EEENS1_11prefer_onlyINSA_10possibly_tILi0EEEEENSD_INS2_16outstanding_work9tracked_tILi0EEEEENSD_INSH_11untracked_tILi0EEEEENSD_INS2_12relationship6fork_tILi0EEEEENSD_INSO_14continuation_tILi0EEEEEEEENS0_10io_context19basic_executor_typeISaIvELj0EEESU_EET_PKvS12_
libkea-dhcp_ddns.so.41:_ZN5boost4asio9execution6detail17any_executor_base9prefer_fnINS1_12any_executorIJNS1_12context_as_tIRNS0_17execution_contextEEENS2_8blocking7never_tILi0EEENS1_11prefer_onlyINSA_10possibly_tILi0EEEEENSD_INS2_16outstanding_work9tracked_tILi0EEEEENSD_INSH_11untracked_tILi0EEEEENSD_INS2_12relationship6fork_tILi0EEEEENSD_INSO_14continuation_tILi0EEEEEEEENS0_10io_context19basic_executor_typeISaIvELj4EEES9_EET_PKvS12_
libkea-dhcp_ddns.so.41:_ZN5boost4asio9execution6detail17any_executor_base9prefer_fnINS1_12any_executorIJNS1_12context_as_tIRNS0_17execution_contextEEENS2_8blocking7never_tILi0EEENS1_11prefer_onlyINSA_10possibly_tILi0EEEEENSD_INS2_16outstanding_work9tracked_tILi0EEEEENSD_INSH_11untracked_tILi0EEEEENSD_INS2_12relationship6fork_tILi0EEEEENSD_INSO_14continuation_tILi0EEEEEEEENS0_10io_context19basic_executor_typeISaIvELj4EEESC_EET_PKvS12_
libkea-dhcp_ddns.so.41:_ZN5boost4asio9execution6detail17any_executor_base9prefer_fnINS1_12any_executorIJNS1_12context_as_tIRNS0_17execution_contextEEENS2_8blocking7never_tILi0EEENS1_11prefer_onlyINSA_10possibly_tILi0EEEEENSD_INS2_16outstanding_work9tracked_tILi0EEEEENSD_INSH_11untracked_tILi0EEEEENSD_INS2_12relationship6fork_tILi0EEEEENSD_INSO_14continuation_tILi0EEEEEEEENS0_10io_context19basic_executor_typeISaIvELj4EEESG_EET_PKvS12_
libkea-dhcp_ddns.so.41:_ZN5boost4asio9execution6detail17any_executor_base9prefer_fnINS1_12any_executorIJNS1_12context_as_tIRNS0_17execution_contextEEENS2_8blocking7never_tILi0EEENS1_11prefer_onlyINSA_10possibly_tILi0EEEEENSD_INS2_16outstanding_work9tracked_tILi0EEEEENSD_INSH_11untracked_tILi0EEEEENSD_INS2_12relationship6fork_tILi0EEEEENSD_INSO_14continuation_tILi0EEEEEEEENS0_10io_context19basic_executor_typeISaIvELj4EEESK_EET_PKvS12_
libkea-dhcp_ddns.so.41:_ZN5boost4asio9execution6detail17any_executor_base9prefer_fnINS1_12any_executorIJNS1_12context_as_tIRNS0_17execution_contextEEENS2_8blocking7never_tILi0EEENS1_11prefer_onlyINSA_10possibly_tILi0EEEEENSD_INS2_16outstanding_work9tracked_tILi0EEEEENSD_INSH_11untracked_tILi0EEEEENSD_INS2_12relationship6fork_tILi0EEEEENSD_INSO_14continuation_tILi0EEEEEEEENS0_10io_context19basic_executor_typeISaIvELj4EEESN_EET_PKvS12_
libkea-dhcp_ddns.so.41:_ZN5boost4asio9execution6detail17any_executor_base9prefer_fnINS1_12any_executorIJNS1_12context_as_tIRNS0_17execution_contextEEENS2_8blocking7never_tILi0EEENS1_11prefer_onlyINSA_10possibly_tILi0EEEEENSD_INS2_16outstanding_work9tracked_tILi0EEEEENSD_INSH_11untracked_tILi0EEEEENSD_INS2_12relationship6fork_tILi0EEEEENSD_INSO_14continuation_tILi0EEEEEEEENS0_10io_context19basic_executor_typeISaIvELj4EEESR_EET_PKvS12_
libkea-dhcp_ddns.so.41:_ZN5boost4asio9execution6detail17any_executor_base9prefer_fnINS1_12any_executorIJNS1_12context_as_tIRNS0_17execution_contextEEENS2_8blocking7never_tILi0EEENS1_11prefer_onlyINSA_10possibly_tILi0EEEEENSD_INS2_16outstanding_work9tracked_tILi0EEEEENSD_INSH_11untracked_tILi0EEEEENSD_INS2_12relationship6fork_tILi0EEEEENSD_INSO_14continuation_tILi0EEEEEEEENS0_10io_context19basic_executor_typeISaIvELj4EEESU_EET_PKvS12_
libkea-dhcp_ddns.so.41:_ZN5boost4asio9execution6detail17any_executor_base9prefer_fnINS1_12any_executorIJNS1_12context_as_tIRNS0_17execution_contextEEENS2_8blocking7never_tILi0EEENS1_11prefer_onlyINSA_10possibly_tILi0EEEEENSD_INS2_16outstanding_work9tracked_tILi0EEEEENSD_INSH_11untracked_tILi0EEEEENSD_INS2_12relationship6fork_tILi0EEEEENSD_INSO_14continuation_tILi0EEEEEEEEvS9_EET_PKvSY_
libkea-dhcp_ddns.so.41:_ZN5boost4asio9execution6detail17any_executor_base9prefer_fnINS1_12any_executorIJNS1_12context_as_tIRNS0_17execution_contextEEENS2_8blocking7never_tILi0EEENS1_11prefer_onlyINSA_10possibly_tILi0EEEEENSD_INS2_16outstanding_work9tracked_tILi0EEEEENSD_INSH_11untracked_tILi0EEEEENSD_INS2_12relationship6fork_tILi0EEEEENSD_INSO_14continuation_tILi0EEEEEEEEvSC_EET_PKvSY_
libkea-dhcp_ddns.so.41:_ZN5boost4asio9execution6detail17any_executor_base9prefer_fnINS1_12any_executorIJNS1_12context_as_tIRNS0_17execution_contextEEENS2_8blocking7never_tILi0EEENS1_11prefer_onlyINSA_10possibly_tILi0EEEEENSD_INS2_16outstanding_work9tracked_tILi0EEEEENSD_INSH_11untracked_tILi0EEEEENSD_INS2_12relationship6fork_tILi0EEEEENSD_INSO_14continuation_tILi0EEEEEEEEvSG_EET_PKvSY_
libkea-dhcp_ddns.so.41:_ZN5boost4asio9execution6detail17any_executor_base9prefer_fnINS1_12any_executorIJNS1_12context_as_tIRNS0_17execution_contextEEENS2_8blocking7never_tILi0EEENS1_11prefer_onlyINSA_10possibly_tILi0EEEEENSD_INS2_16outstanding_work9tracked_tILi0EEEEENSD_INSH_11untracked_tILi0EEEEENSD_INS2_12relationship6fork_tILi0EEEEENSD_INSO_14continuation_tILi0EEEEEEEEvSK_EET_PKvSY_
libkea-dhcp_ddns.so.41:_ZN5boost4asio9execution6detail17any_executor_base9prefer_fnINS1_12any_executorIJNS1_12context_as_tIRNS0_17execution_contextEEENS2_8blocking7never_tILi0EEENS1_11prefer_onlyINSA_10possibly_tILi0EEEEENSD_INS2_16outstanding_work9tracked_tILi0EEEEENSD_INSH_11untracked_tILi0EEEEENSD_INS2_12relationship6fork_tILi0EEEEENSD_INSO_14continuation_tILi0EEEEEEEEvSN_EET_PKvSY_
libkea-dhcp_ddns.so.41:_ZN5boost4asio9execution6detail17any_executor_base9prefer_fnINS1_12any_executorIJNS1_12context_as_tIRNS0_17execution_contextEEENS2_8blocking7never_tILi0EEENS1_11prefer_onlyINSA_10possibly_tILi0EEEEENSD_INS2_16outstanding_work9tracked_tILi0EEEEENSD_INSH_11untracked_tILi0EEEEENSD_INS2_12relationship6fork_tILi0EEEEENSD_INSO_14continuation_tILi0EEEEEEEEvSR_EET_PKvSY_
libkea-dhcp_ddns.so.41:_ZN5boost4asio9execution6detail17any_executor_base9prefer_fnINS1_12any_executorIJNS1_12context_as_tIRNS0_17execution_contextEEENS2_8blocking7never_tILi0EEENS1_11prefer_onlyINSA_10possibly_tILi0EEEEENSD_INS2_16outstanding_work9tracked_tILi0EEEEENSD_INSH_11untracked_tILi0EEEEENSD_INS2_12relationship6fork_tILi0EEEEENSD_INSO_14continuation_tILi0EEEEEEEEvSU_EET_PKvSY_
libkea-dhcp_ddns.so.41:_ZNK3isc9dhcp_ddns16NameChangeSender12getQueueSizeEv
libkea-dhcp_ddns.so.41:_ZNK3isc9dhcp_ddns16NameChangeSender14peekAtInternalEm
libkea-dhcp_ddns.so.41:_ZNK3isc9dhcp_ddns16NameChangeSender16isSendInProgressEv
libkea-dhcp_ddns.so.41:_ZNK3isc9dhcp_ddns16NameChangeSender20getQueueSizeInternalEv
libkea-dhcp_ddns.so.41:_ZNK3isc9dhcp_ddns16NameChangeSender6peekAtEm
libkea-dhcp_ddns.so.41:_ZNK3isc9dhcp_ddns17NameChangeRequest10getElementERKNSt7__cxx1112basic_stringIcSt11char_traitsIcESaIcEEERKSt3mapIS7_N5boost10shared_ptrIKNS_4data7ElementEEESt4lessIS7_ESaISt4pairIS8_SG_EEE
libkea-dhcp_ddns.so.41:_ZNK3isc9dhcp_ddns17NameChangeRequest20getLeaseExpiresOnStrB5cxx11Ev
libkea-dhcp_ddns.so.41:_ZNK3isc9dhcp_ddns17NameChangeRequest6toJSONB5cxx11Ev
libkea-dhcp_ddns.so.41:_ZNK3isc9dhcp_ddns17NameChangeRequest6toTextB5cxx11Ev
libkea-dhcp_ddns.so.41:_ZNK3isc9dhcp_ddns17NameChangeRequest8toFormatENS0_16NameChangeFormatERNS_4util12OutputBufferE
libkea-dhcp_ddns.so.41:_ZNK3isc9dhcp_ddns17NameChangeRequesteqERKS1_
libkea-dhcp_ddns.so.41:_ZNK3isc9dhcp_ddns17NameChangeRequestneERKS1_
libkea-dhcp_ddns.so.41:_ZNK3isc9dhcp_ddns7D2Dhcid5toStrB5cxx11Ev
libkea-dhcp_ddns.so.41:_ZNSt15__exception_ptr12__dest_thunkIN5boost4asio19multiple_exceptionsEEEvPv
libkea-dhcp_ddns.so.41:_ZNSt17_Function_handlerIFvbPKN3isc9dhcp_ddns11UDPCallbackEESt5_BindIFMNS1_19NameChangeUDPSenderEFvbS4_EPS7_St12_PlaceholderILi1EESB_ILi2EEEEE10_M_managerERSt9_Any_dataRKSH_St18_Manager_operation
libkea-dhcp_ddns.so.41:_ZNSt17_Function_handlerIFvbPKN3isc9dhcp_ddns11UDPCallbackEESt5_BindIFMNS1_19NameChangeUDPSenderEFvbS4_EPS7_St12_PlaceholderILi1EESB_ILi2EEEEE9_M_invokeERKSt9_Any_dataObOS4_
libkea-dhcp_ddns.so.41:_ZNSt17_Function_handlerIFvbPKN3isc9dhcp_ddns11UDPCallbackEESt5_BindIFMNS1_21NameChangeUDPListenerEFvbS4_EPS7_St12_PlaceholderILi1EESB_ILi2EEEEE10_M_managerERSt9_Any_dataRKSH_St18_Manager_operation
libkea-dhcp_ddns.so.41:_ZNSt17_Function_handlerIFvbPKN3isc9dhcp_ddns11UDPCallbackEESt5_BindIFMNS1_21NameChangeUDPListenerEFvbS4_EPS7_St12_PlaceholderILi1EESB_ILi2EEEEE9_M_invokeERKSt9_Any_dataObOS4_
libkea-dhcp_ddns.so.41:boost_asio_detail_posix_thread_function
libkea-dhcpsrv.so.90:_ZN3isc4dhcp10CfgGlobals3setERKNSt7__cxx1112basic_stringIcSt11char_traitsIcESaIcEEEN5boost10shared_ptrIKNS_4data7ElementEEE
libkea-dhcpsrv.so.90:_ZN3isc4dhcp10CfgGlobals3setEiN5boost10shared_ptrIKNS_4data7ElementEEE
libkea-dhcpsrv.so.90:_ZN3isc4dhcp10CfgGlobals5clearEv
libkea-dhcpsrv.so.90:_ZN3isc4dhcp10CfgGlobalsC1Ev
libkea-dhcpsrv.so.90:_ZN3isc4dhcp10CfgGlobalsC2Ev
libkea-dhcpsrv.so.90:_ZN3isc4dhcp10PoolParser5parseEN5boost10shared_ptrISt6vectorINS3_INS0_4PoolEEESaIS6_EEEENS3_IKNS_4data7ElementEEEtb
libkea-dhcpsrv.so.90:_ZN3isc4dhcp11AllocEngine11getOfferLftERKNS1_14ClientContext4E
libkea-dhcpsrv.so.90:_ZN3isc4dhcp11AllocEngine11getValidLftERKNS1_14ClientContext4E
libkea-dhcpsrv.so.90:_ZN3isc4dhcp11AllocEngine11renewLease4ERKN5boost10shared_ptrINS0_6Lease4EEERNS1_14ClientContext4E
libkea-dhcpsrv.so.90:_ZN3isc4dhcp11AllocEngine12createLease4ERKNS1_14ClientContext4ERKNS_8asiolink9IOAddressERNS_5hooks13CalloutHandle15CalloutNextStepE
libkea-dhcpsrv.so.90:_ZN3isc4dhcp11AllocEngine12createLease6ERNS1_14ClientContext6ERKNS_8asiolink9IOAddressEhRNS_5hooks13CalloutHandle15CalloutNextStepE
libkea-dhcpsrv.so.90:_ZN3isc4dhcp11AllocEngine12extendLease6ERNS1_14ClientContext6EN5boost10shared_ptrINS0_6Lease6EEE
libkea-dhcpsrv.so.90:_ZN3isc4dhcp11AllocEngine12removeLeasesERSt6vectorIN5boost10shared_ptrINS0_6Lease6EEESaIS6_EERKNS_8asiolink9IOAddressE
libkea-dhcpsrv.so.90:_ZN3isc4dhcp11AllocEngine12renewLeases6ERNS1_14ClientContext6E
libkea-dhcpsrv.so.90:_ZN3isc4dhcp11AllocEngine13getLifetimes6ERNS1_14ClientContext6ERjS4_
libkea-dhcpsrv.so.90:_ZN3isc4dhcp11AllocEngine13requestLease4ERNS1_14ClientContext4E
libkea-dhcpsrv.so.90:_ZN3isc4dhcp11AllocEngine14ClientContext413getDdnsParamsEv
libkea-dhcpsrv.so.90:_ZN3isc4dhcp11AllocEngine14ClientContext4C1ERKN5boost10shared_ptrINS0_7Subnet4EEERKNS4_INS0_8ClientIdEEERKNS4_INS0_6HWAddrEEERKNS_8asiolink9IOAddressEbbRKNSt7__cxx1112basic_stringIcSt11char_traitsIcESaIcEEEbj
libkea-dhcpsrv.so.90:_ZN3isc4dhcp11AllocEngine14ClientContext4C1Ev
libkea-dhcpsrv.so.90:_ZN3isc4dhcp11AllocEngine14ClientContext4C2ERKN5boost10shared_ptrINS0_7Subnet4EEERKNS4_INS0_8ClientIdEEERKNS4_INS0_6HWAddrEEERKNS_8asiolink9IOAddressEbbRKNSt7__cxx1112basic_stringIcSt11char_traitsIcESaIcEEEbj
libkea-dhcpsrv.so.90:_ZN3isc4dhcp11AllocEngine14ClientContext4C2Ev
libkea-dhcpsrv.so.90:_ZN3isc4dhcp11AllocEngine14ClientContext613getDdnsParamsEv
libkea-dhcpsrv.so.90:_ZN3isc4dhcp11AllocEngine14ClientContext620addAllocatedResourceERKNS_8asiolink9IOAddressEh
libkea-dhcpsrv.so.90:_ZN3isc4dhcp11AllocEngine14ClientContext69IAContext14addNewResourceERKNS_8asiolink9IOAddressEh
libkea-dhcpsrv.so.90:_ZN3isc4dhcp11AllocEngine14ClientContext69IAContext7addHintERKN5boost10shared_ptrINS0_13Option6IAAddrEEE
libkea-dhcpsrv.so.90:_ZN3isc4dhcp11AllocEngine14ClientContext69IAContext7addHintERKN5boost10shared_ptrINS0_15Option6IAPrefixEEE
libkea-dhcpsrv.so.90:_ZN3isc4dhcp11AllocEngine14ClientContext69IAContext7addHintERKNS_8asiolink9IOAddressEhjj
libkea-dhcpsrv.so.90:_ZN3isc4dhcp11AllocEngine14ClientContext69IAContextC1Ev
libkea-dhcpsrv.so.90:_ZN3isc4dhcp11AllocEngine14ClientContext69IAContextC2Ev
libkea-dhcpsrv.so.90:_ZN3isc4dhcp11AllocEngine14ClientContext6C1ERKN5boost10shared_ptrINS0_7Subnet6EEERKNS4_INS0_4DUIDEEEbbRKNSt7__cxx1112basic_stringIcSt11char_traitsIcESaIcEEEbRKNS4_INS0_4Pkt6EEERKNS4_INS_5hooks13CalloutHandleEEE
libkea-dhcpsrv.so.90:_ZN3isc4dhcp11AllocEngine14ClientContext6C1Ev
libkea-dhcpsrv.so.90:_ZN3isc4dhcp11AllocEngine14ClientContext6C2ERKN5boost10shared_ptrINS0_7Subnet6EEERKNS4_INS0_4DUIDEEEbbRKNSt7__cxx1112basic_stringIcSt11char_traitsIcESaIcEEEbRKNS4_INS0_4Pkt6EEERKNS4_INS_5hooks13CalloutHandleEEE
libkea-dhcpsrv.so.90:_ZN3isc4dhcp11AllocEngine14ClientContext6C2Ev
libkea-dhcpsrv.so.90:_ZN3isc4dhcp11AllocEngine14allocateLease4ERNS1_14ClientContext4E
libkea-dhcpsrv.so.90:_ZN3isc4dhcp11AllocEngine14discoverLease4ERNS1_14ClientContext4E
libkea-dhcpsrv.so.90:_ZN3isc4dhcp11AllocEngine15allocateLeases6ERNS1_14ClientContext6E
libkea-dhcpsrv.so.90:_ZN3isc4dhcp11AllocEngine15findReservationERNS1_14ClientContext4E
libkea-dhcpsrv.so.90:_ZN3isc4dhcp11AllocEngine15findReservationERNS1_14ClientContext6E
libkea-dhcpsrv.so.90:_ZN3isc4dhcp11AllocEngine15reclaimDeclinedERKN5boost10shared_ptrINS0_6Lease4EEE
libkea-dhcpsrv.so.90:_ZN3isc4dhcp11AllocEngine15reclaimDeclinedERKN5boost10shared_ptrINS0_6Lease6EEE
libkea-dhcpsrv.so.90:_ZN3isc4dhcp11AllocEngine15updateLeaseDataERNS1_14ClientContext6ERKSt6vectorIN5boost10shared_ptrINS0_6Lease6EEESaIS8_EE
libkea-dhcpsrv.so.90:_ZN3isc4dhcp11AllocEngine17allocateBestMatchERNS1_14ClientContext6ERN5boost10shared_ptrINS0_6Lease6EEERbRKNS_8asiolink9IOAddressEhNS5_INS0_7Subnet6EEERNS5_INS0_14SharedNetwork6EEERmSJ_SJ_RNS_5hooks13CalloutHandle15CalloutNextStepENS0_9Allocator18PrefixLenMatchTypeE
libkea-dhcpsrv.so.90:_ZN3isc4dhcp11AllocEngine17reuseExpiredLeaseERN5boost10shared_ptrINS0_6Lease6EEERNS1_14ClientContext6EhRNS_5hooks13CalloutHandle15CalloutNextStepE
libkea-dhcpsrv.so.90:_ZN3isc4dhcp11AllocEngine18reuseExpiredLease4ERN5boost10shared_ptrINS0_6Lease4EEERNS1_14ClientContext4ERNS_5hooks13CalloutHandle15CalloutNextStepE
libkea-dhcpsrv.so.90:_ZN3isc4dhcp11AllocEngine19reclaimExpiredLeaseERKN5boost10shared_ptrINS0_6Lease4EEERKNS1_13DbReclaimModeERKNS3_INS_5hooks13CalloutHandleEEE
libkea-dhcpsrv.so.90:_ZN3isc4dhcp11AllocEngine19reclaimExpiredLeaseERKN5boost10shared_ptrINS0_6Lease6EEERKNS1_13DbReclaimModeERKNS3_INS_5hooks13CalloutHandleEEE
libkea-dhcpsrv.so.90:_ZN3isc4dhcp11AllocEngine20labelNetworkOrSubnetB5cxx11EN5boost10shared_ptrINS0_6SubnetEEE
libkea-dhcpsrv.so.90:_ZN3isc4dhcp11AllocEngine21allocateOrReuseLease4ERKNS_8asiolink9IOAddressERNS1_14ClientContext4ERNS_5hooks13CalloutHandle15CalloutNextStepE
libkea-dhcpsrv.so.90:_ZN3isc4dhcp11AllocEngine21findGlobalReservationERNS1_14ClientContext4E
libkea-dhcpsrv.so.90:_ZN3isc4dhcp11AllocEngine21findGlobalReservationERNS1_14ClientContext6E
libkea-dhcpsrv.so.90:_ZN3isc4dhcp11AllocEngine21reclaimExpiredLeases4Emtbt
libkea-dhcpsrv.so.90:_ZN3isc4dhcp11AllocEngine21reclaimExpiredLeases6Emtbt
libkea-dhcpsrv.so.90:_ZN3isc4dhcp11AllocEngine23allocateReservedLeases6ERNS1_14ClientContext6ERSt6vectorIN5boost10shared_ptrINS0_6Lease6EEESaIS8_EE
libkea-dhcpsrv.so.90:_ZN3isc4dhcp11AllocEngine24allocateUnreservedLease4ERNS1_14ClientContext4E
libkea-dhcpsrv.so.90:_ZN3isc4dhcp11AllocEngine24removeNonreservedLeases6ERNS1_14ClientContext6ERSt6vectorIN5boost10shared_ptrINS0_6Lease6EEESaIS8_EE
libkea-dhcpsrv.so.90:_ZN3isc4dhcp11AllocEngine25allocateUnreservedLeases6ERNS1_14ClientContext6E
libkea-dhcpsrv.so.90:_ZN3isc4dhcp11AllocEngine29allocateGlobalReservedLeases6ERNS1_14ClientContext6ERSt6vectorIN5boost10shared_ptrINS0_6Lease6EEESaIS8_EE
libkea-dhcpsrv.so.90:_ZN3isc4dhcp11AllocEngine29deleteExpiredReclaimedLeases4Ej
libkea-dhcpsrv.so.90:_ZN3isc4dhcp11AllocEngine29deleteExpiredReclaimedLeases6Ej
libkea-dhcpsrv.so.90:_ZN3isc4dhcp11AllocEngine29reclaimExpiredLeases4InternalEmtbt
libkea-dhcpsrv.so.90:_ZN3isc4dhcp11AllocEngine29reclaimExpiredLeases6InternalEmtbt
libkea-dhcpsrv.so.90:_ZN3isc4dhcp11AllocEngine32removeNonmatchingReservedLeases6ERNS1_14ClientContext6ERSt6vectorIN5boost10shared_ptrINS0_6Lease6EEESaIS8_EE
libkea-dhcpsrv.so.90:_ZN3isc4dhcp11AllocEngine38removeNonmatchingReservedNoHostLeases6ERNS1_14ClientContext6ERSt6vectorIN5boost10shared_ptrINS0_6Lease6EEESaIS8_EE
libkea-dhcpsrv.so.90:_ZN3isc4dhcp11AllocEngineC1ERKN5boost14multiprecision6numberINS3_8backends15cpp_int_backendILj128ELj128ELNS3_16cpp_integer_typeE0ELNS3_18cpp_int_check_typeE0EvEELNS3_26expression_template_optionE0EEE
libkea-dhcpsrv.so.90:_ZN3isc4dhcp11AllocEngineC2ERKN5boost14multiprecision6numberINS3_8backends15cpp_int_backendILj128ELj128ELNS3_16cpp_integer_typeE0ELNS3_18cpp_int_check_typeE0EvEELNS3_26expression_template_optionE0EEE
libkea-dhcpsrv.so.90:_ZN3isc4dhcp11CfgDbAccessC1Ev
libkea-dhcpsrv.so.90:_ZN3isc4dhcp11CfgDbAccessC2Ev
libkea-dhcpsrv.so.90:_ZN3isc4dhcp11CfgSubnets412initSelectorERKN5boost10shared_ptrINS0_4Pkt4EEE
libkea-dhcpsrv.so.90:_ZN3isc4dhcp11CfgSubnets416removeStatisticsEv
libkea-dhcpsrv.so.90:_ZN3isc4dhcp11CfgSubnets416updateStatisticsEv
libkea-dhcpsrv.so.90:_ZN3isc4dhcp11CfgSubnets428initAllocatorsAfterConfigureEv
libkea-dhcpsrv.so.90:_ZN3isc4dhcp11CfgSubnets43addERKN5boost10shared_ptrINS0_7Subnet4EEE
libkea-dhcpsrv.so.90:_ZN3isc4dhcp11CfgSubnets43delERKN5boost10shared_ptrIKNS0_7Subnet4EEE
libkea-dhcpsrv.so.90:_ZN3isc4dhcp11CfgSubnets43delERKj
libkea-dhcpsrv.so.90:_ZN3isc4dhcp11CfgSubnets45clearEv
libkea-dhcpsrv.so.90:_ZN3isc4dhcp11CfgSubnets45mergeEN5boost10shared_ptrINS0_12CfgOptionDefEEENS3_INS0_18CfgSharedNetworks4EEERS1_
libkea-dhcpsrv.so.90:_ZN3isc4dhcp11CfgSubnets47replaceERKN5boost10shared_ptrINS0_7Subnet4EEE
libkea-dhcpsrv.so.90:_ZN3isc4dhcp11CfgSubnets612initSelectorERKN5boost10shared_ptrINS0_4Pkt6EEE
libkea-dhcpsrv.so.90:_ZN3isc4dhcp11CfgSubnets616removeStatisticsEv
libkea-dhcpsrv.so.90:_ZN3isc4dhcp11CfgSubnets616updateStatisticsEv
libkea-dhcpsrv.so.90:_ZN3isc4dhcp11CfgSubnets628initAllocatorsAfterConfigureEv
libkea-dhcpsrv.so.90:_ZN3isc4dhcp11CfgSubnets63addERKN5boost10shared_ptrINS0_7Subnet6EEE
libkea-dhcpsrv.so.90:_ZN3isc4dhcp11CfgSubnets63delERKN5boost10shared_ptrIKNS0_7Subnet6EEE
libkea-dhcpsrv.so.90:_ZN3isc4dhcp11CfgSubnets63delERKj
libkea-dhcpsrv.so.90:_ZN3isc4dhcp11CfgSubnets65clearEv
libkea-dhcpsrv.so.90:_ZN3isc4dhcp11CfgSubnets65mergeEN5boost10shared_ptrINS0_12CfgOptionDefEEENS3_INS0_18CfgSharedNetworks6EEERS1_
libkea-dhcpsrv.so.90:_ZN3isc4dhcp11CfgSubnets67replaceERKN5boost10shared_ptrINS0_7Subnet6EEE
libkea-dhcpsrv.so.90:_ZN3isc4dhcp11D2ClientMgr10clearQueueEv
libkea-dhcpsrv.so.90:_ZN3isc4dhcp11D2ClientMgr10runReadyIOEv
libkea-dhcpsrv.so.90:_ZN3isc4dhcp11D2ClientMgr10stopSenderEv
libkea-dhcpsrv.so.90:_ZN3isc4dhcp11D2ClientMgr11ddnsEnabledEv
libkea-dhcpsrv.so.90:_ZN3isc4dhcp11D2ClientMgr11getSelectFdEv
libkea-dhcpsrv.so.90:_ZN3isc4dhcp11D2ClientMgr11sendRequestERN5boost10shared_ptrINS_9dhcp_ddns17NameChangeRequestEEE
libkea-dhcpsrv.so.90:_ZN3isc4dhcp11D2ClientMgr11startSenderESt8functionIFvNS_9dhcp_ddns16NameChangeSender6ResultERN5boost10shared_ptrINS3_17NameChangeRequestEEEEE
libkea-dhcpsrv.so.90:_ZN3isc4dhcp11D2ClientMgr11startSenderESt8functionIFvNS_9dhcp_ddns16NameChangeSender6ResultERN5boost10shared_ptrINS3_17NameChangeRequestEEEEERNS_8asiolink9IOServiceE
libkea-dhcpsrv.so.90:_ZN3isc4dhcp11D2ClientMgr14suspendUpdatesEv
libkea-dhcpsrv.so.90:_ZN3isc4dhcp11D2ClientMgr17setD2ClientConfigERN5boost10shared_ptrINS0_14D2ClientConfigEEE
libkea-dhcpsrv.so.90:_ZN3isc4dhcp11D2ClientMgr24invokeClientErrorHandlerENS_9dhcp_ddns16NameChangeSender6ResultERN5boost10shared_ptrINS2_17NameChangeRequestEEE
libkea-dhcpsrv.so.90:_ZN3isc4dhcp11D2ClientMgrC1Ev
libkea-dhcpsrv.so.90:_ZN3isc4dhcp11D2ClientMgrC2Ev
libkea-dhcpsrv.so.90:_ZN3isc4dhcp11D2ClientMgrD0Ev
libkea-dhcpsrv.so.90:_ZN3isc4dhcp11D2ClientMgrD1Ev
libkea-dhcpsrv.so.90:_ZN3isc4dhcp11D2ClientMgrD2Ev
libkea-dhcpsrv.so.90:_ZN3isc4dhcp11D2ClientMgrclENS_9dhcp_ddns16NameChangeSender6ResultERN5boost10shared_ptrINS2_17NameChangeRequestEEE
libkea-dhcpsrv.so.90:_ZN3isc4dhcp11Pool4Parser9poolMakerERNS_8asiolink9IOAddressES4_i
libkea-dhcpsrv.so.90:_ZN3isc4dhcp11Pool4Parser9poolMakerERNS_8asiolink9IOAddressEji
libkea-dhcpsrv.so.90:_ZN3isc4dhcp11Pool6Parser9poolMakerERNS_8asiolink9IOAddressES4_i
libkea-dhcpsrv.so.90:_ZN3isc4dhcp11Pool6Parser9poolMakerERNS_8asiolink9IOAddressEji
libkea-dhcpsrv.so.90:_ZN3isc4dhcp11PrefixRangeC1ERKNS_8asiolink9IOAddressES5_h
libkea-dhcpsrv.so.90:_ZN3isc4dhcp11PrefixRangeC1ERKNS_8asiolink9IOAddressEhh
libkea-dhcpsrv.so.90:_ZN3isc4dhcp11PrefixRangeC2ERKNS_8asiolink9IOAddressES5_h
libkea-dhcpsrv.so.90:_ZN3isc4dhcp11PrefixRangeC2ERKNS_8asiolink9IOAddressEhh
libkea-dhcpsrv.so.90:_ZN3isc4dhcp12AddressRangeC1ERKNS_8asiolink9IOAddressES5_
libkea-dhcpsrv.so.90:_ZN3isc4dhcp12AddressRangeC2ERKNS_8asiolink9IOAddressES5_
libkea-dhcpsrv.so.90:_ZN3isc4dhcp12CfgHostsList11internalizeEN5boost10shared_ptrIKNS_4data7ElementEEE
libkea-dhcpsrv.so.90:_ZN3isc4dhcp12CfgHostsList3addEjN5boost10shared_ptrINS_4data7ElementEEE
libkea-dhcpsrv.so.90:_ZN3isc4dhcp12CfgMACSource17MACSourceFromTextERKNSt7__cxx1112basic_stringIcSt11char_traitsIcESaIcEEE
libkea-dhcpsrv.so.90:_ZN3isc4dhcp12CfgMACSource3addEj
libkea-dhcpsrv.so.90:_ZN3isc4dhcp12CfgMACSourceC1Ev
libkea-dhcpsrv.so.90:_ZN3isc4dhcp12CfgMACSourceC2Ev
libkea-dhcpsrv.so.90:_ZN3isc4dhcp12CfgOptionDef3addERKN5boost10shared_ptrINS0_16OptionDefinitionEEE
libkea-dhcpsrv.so.90:_ZN3isc4dhcp12CfgOptionDef3delEm
libkea-dhcpsrv.so.90:_ZN3isc4dhcp12CfgOptionDef5mergeERS1_
libkea-dhcpsrv.so.90:_ZN3isc4dhcp12NetworkState13enableServiceERKNS1_6OriginE
libkea-dhcpsrv.so.90:_ZN3isc4dhcp12NetworkState14disableServiceERKNS1_6OriginE
libkea-dhcpsrv.so.90:_ZN3isc4dhcp12NetworkState15selectiveEnableERKSt3setINSt7__cxx1112basic_stringIcSt11char_traitsIcESaIcEEESt4lessIS8_ESaIS8_EE
libkea-dhcpsrv.so.90:_ZN3isc4dhcp12NetworkState15selectiveEnableERKSt3setIjSt4lessIjESaIjEE
libkea-dhcpsrv.so.90:_ZN3isc4dhcp12NetworkState16delayedEnableAllEjRKNS1_6OriginE
libkea-dhcpsrv.so.90:_ZN3isc4dhcp12NetworkState16selectiveDisableERKSt3setINSt7__cxx1112basic_stringIcSt11char_traitsIcESaIcEEESt4lessIS8_ESaIS8_EE
libkea-dhcpsrv.so.90:_ZN3isc4dhcp12NetworkState16selectiveDisableERKSt3setIjSt4lessIjESaIjEE
libkea-dhcpsrv.so.90:_ZN3isc4dhcp12NetworkState5resetERKNS1_6OriginE
libkea-dhcpsrv.so.90:_ZN3isc4dhcp12NetworkState9enableAllERKNS1_6OriginE
libkea-dhcpsrv.so.90:_ZN3isc4dhcp12NetworkStateC1ERKNS1_10ServerTypeE
libkea-dhcpsrv.so.90:_ZN3isc4dhcp12NetworkStateC2ERKNS1_10ServerTypeE
libkea-dhcpsrv.so.90:_ZN3isc4dhcp12PdPoolParser5parseEN5boost10shared_ptrISt6vectorINS3_INS0_4PoolEEESaIS6_EEEENS3_IKNS_4data7ElementEEEb
libkea-dhcpsrv.so.90:_ZN3isc4dhcp12PdPoolParserC1Ev
libkea-dhcpsrv.so.90:_ZN3isc4dhcp12PdPoolParserC2Ev
libkea-dhcpsrv.so.90:_ZN3isc4dhcp12TimerMgrImpl12setIOServiceERKN5boost10shared_ptrINS_8asiolink9IOServiceEEE
libkea-dhcpsrv.so.90:_ZN3isc4dhcp12TimerMgrImpl13registerTimerERKNSt7__cxx1112basic_stringIcSt11char_traitsIcESaIcEEERKSt8functionIFvvEElRKNS_8asiolink13IntervalTimer4ModeE
libkea-dhcpsrv.so.90:_ZN3isc4dhcp12TimerMgrImpl13setupInternalERKNSt7__cxx1112basic_stringIcSt11char_traitsIcESaIcEEE
libkea-dhcpsrv.so.90:_ZN3isc4dhcp12TimerMgrImpl13timerCallbackERKNSt7__cxx1112basic_stringIcSt11char_traitsIcESaIcEEE
libkea-dhcpsrv.so.90:_ZN3isc4dhcp12TimerMgrImpl14cancelInternalERKNSt7__cxx1112basic_stringIcSt11char_traitsIcESaIcEEE
libkea-dhcpsrv.so.90:_ZN3isc4dhcp12TimerMgrImpl15unregisterTimerERKNSt7__cxx1112basic_stringIcSt11char_traitsIcESaIcEEE
libkea-dhcpsrv.so.90:_ZN3isc4dhcp12TimerMgrImpl16unregisterTimersEv
libkea-dhcpsrv.so.90:_ZN3isc4dhcp12TimerMgrImpl17isTimerRegisteredERKNSt7__cxx1112basic_stringIcSt11char_traitsIcESaIcEEE
libkea-dhcpsrv.so.90:_ZN3isc4dhcp12TimerMgrImpl21registerTimerInternalERKNSt7__cxx1112basic_stringIcSt11char_traitsIcESaIcEEERKSt8functionIFvvEElRKNS_8asiolink13IntervalTimer4ModeE
libkea-dhcpsrv.so.90:_ZN3isc4dhcp12TimerMgrImpl23unregisterTimerInternalERKNSt7__cxx1112basic_stringIcSt11char_traitsIcESaIcEEE
libkea-dhcpsrv.so.90:_ZN3isc4dhcp12TimerMgrImpl24unregisterTimersInternalEv
libkea-dhcpsrv.so.90:_ZN3isc4dhcp12TimerMgrImpl5setupERKNSt7__cxx1112basic_stringIcSt11char_traitsIcESaIcEEE
libkea-dhcpsrv.so.90:_ZN3isc4dhcp12TimerMgrImpl6cancelERKNSt7__cxx1112basic_stringIcSt11char_traitsIcESaIcEEE
libkea-dhcpsrv.so.90:_ZN3isc4dhcp12TimerMgrImplC1Ev
libkea-dhcpsrv.so.90:_ZN3isc4dhcp12TimerMgrImplC2Ev
libkea-dhcpsrv.so.90:_ZN3isc4dhcp13CSVLeaseFile410readHWAddrERKNS_4util6CSVRowE
libkea-dhcpsrv.so.90:_ZN3isc4dhcp13CSVLeaseFile410readPoolIDERKNS_4util6CSVRowE
libkea-dhcpsrv.so.90:_ZN3isc4dhcp13CSVLeaseFile411initColumnsEv
libkea-dhcpsrv.so.90:_ZN3isc4dhcp13CSVLeaseFile411readAddressERKNS_4util6CSVRowE
libkea-dhcpsrv.so.90:_ZN3isc4dhcp13CSVLeaseFile411readContextERKNS_4util6CSVRowE
libkea-dhcpsrv.so.90:_ZN3isc4dhcp13CSVLeaseFile411readFqdnFwdERKNS_4util6CSVRowE
libkea-dhcpsrv.so.90:_ZN3isc4dhcp13CSVLeaseFile411readFqdnRevERKNS_4util6CSVRowE
libkea-dhcpsrv.so.90:_ZN3isc4dhcp13CSVLeaseFile412readClientIdERKNS_4util6CSVRowE
libkea-dhcpsrv.so.90:_ZN3isc4dhcp13CSVLeaseFile412readHostnameB5cxx11ERKNS_4util6CSVRowE
libkea-dhcpsrv.so.90:_ZN3isc4dhcp13CSVLeaseFile412readSubnetIDERKNS_4util6CSVRowE
libkea-dhcpsrv.so.90:_ZN3isc4dhcp13CSVLeaseFile44nextERN5boost10shared_ptrINS0_6Lease4EEE
libkea-dhcpsrv.so.90:_ZN3isc4dhcp13CSVLeaseFile44openEb
libkea-dhcpsrv.so.90:_ZN3isc4dhcp13CSVLeaseFile46appendERKNS0_6Lease4E
libkea-dhcpsrv.so.90:_ZN3isc4dhcp13CSVLeaseFile48readClttERKNS_4util6CSVRowE
libkea-dhcpsrv.so.90:_ZN3isc4dhcp13CSVLeaseFile49readStateERKNS_4util6CSVRowE
libkea-dhcpsrv.so.90:_ZN3isc4dhcp13CSVLeaseFile49readValidERKNS_4util6CSVRowE
libkea-dhcpsrv.so.90:_ZN3isc4dhcp13CSVLeaseFile4C1ERKNSt7__cxx1112basic_stringIcSt11char_traitsIcESaIcEEE
libkea-dhcpsrv.so.90:_ZN3isc4dhcp13CSVLeaseFile4C2ERKNSt7__cxx1112basic_stringIcSt11char_traitsIcESaIcEEE
libkea-dhcpsrv.so.90:_ZN3isc4dhcp13CSVLeaseFile610readHWAddrERKNS_4util6CSVRowE
libkea-dhcpsrv.so.90:_ZN3isc4dhcp13CSVLeaseFile610readHWTypeERKNS_4util6CSVRowE
libkea-dhcpsrv.so.90:_ZN3isc4dhcp13CSVLeaseFile610readPoolIDERKNS_4util6CSVRowE
libkea-dhcpsrv.so.90:_ZN3isc4dhcp13CSVLeaseFile611initColumnsEv
libkea-dhcpsrv.so.90:_ZN3isc4dhcp13CSVLeaseFile611readAddressERKNS_4util6CSVRowE
libkea-dhcpsrv.so.90:_ZN3isc4dhcp13CSVLeaseFile611readContextERKNS_4util6CSVRowE
libkea-dhcpsrv.so.90:_ZN3isc4dhcp13CSVLeaseFile611readFqdnFwdERKNS_4util6CSVRowE
libkea-dhcpsrv.so.90:_ZN3isc4dhcp13CSVLeaseFile611readFqdnRevERKNS_4util6CSVRowE
libkea-dhcpsrv.so.90:_ZN3isc4dhcp13CSVLeaseFile612readHostnameB5cxx11ERKNS_4util6CSVRowE
libkea-dhcpsrv.so.90:_ZN3isc4dhcp13CSVLeaseFile612readSubnetIDERKNS_4util6CSVRowE
libkea-dhcpsrv.so.90:_ZN3isc4dhcp13CSVLeaseFile613readPreferredERKNS_4util6CSVRowE
libkea-dhcpsrv.so.90:_ZN3isc4dhcp13CSVLeaseFile613readPrefixLenERKNS_4util6CSVRowE
libkea-dhcpsrv.so.90:_ZN3isc4dhcp13CSVLeaseFile616readHWAddrSourceERKNS_4util6CSVRowE
libkea-dhcpsrv.so.90:_ZN3isc4dhcp13CSVLeaseFile64nextERN5boost10shared_ptrINS0_6Lease6EEE
libkea-dhcpsrv.so.90:_ZN3isc4dhcp13CSVLeaseFile64openEb
libkea-dhcpsrv.so.90:_ZN3isc4dhcp13CSVLeaseFile66appendERKNS0_6Lease6E
libkea-dhcpsrv.so.90:_ZN3isc4dhcp13CSVLeaseFile68readClttERKNS_4util6CSVRowE
libkea-dhcpsrv.so.90:_ZN3isc4dhcp13CSVLeaseFile68readDUIDERKNS_4util6CSVRowE
libkea-dhcpsrv.so.90:_ZN3isc4dhcp13CSVLeaseFile68readIAIDERKNS_4util6CSVRowE
libkea-dhcpsrv.so.90:_ZN3isc4dhcp13CSVLeaseFile68readTypeERKNS_4util6CSVRowE
libkea-dhcpsrv.so.90:_ZN3isc4dhcp13CSVLeaseFile69readStateERKNS_4util6CSVRowE
libkea-dhcpsrv.so.90:_ZN3isc4dhcp13CSVLeaseFile69readValidERKNS_4util6CSVRowE
libkea-dhcpsrv.so.90:_ZN3isc4dhcp13CSVLeaseFile6C1ERKNSt7__cxx1112basic_stringIcSt11char_traitsIcESaIcEEE
libkea-dhcpsrv.so.90:_ZN3isc4dhcp13CSVLeaseFile6C2ERKNSt7__cxx1112basic_stringIcSt11char_traitsIcESaIcEEE
libkea-dhcpsrv.so.90:_ZN3isc4dhcp13CfgExpiration17setMaxReclaimTimeEl
libkea-dhcpsrv.so.90:_ZN3isc4dhcp13CfgExpiration19setMaxReclaimLeasesEl
libkea-dhcpsrv.so.90:_ZN3isc4dhcp13CfgExpiration20setHoldReclaimedTimeEl
libkea-dhcpsrv.so.90:_ZN3isc4dhcp13CfgExpiration23setReclaimTimerWaitTimeEl
libkea-dhcpsrv.so.90:_ZN3isc4dhcp13CfgExpiration24setUnwarnedReclaimCyclesEl
libkea-dhcpsrv.so.90:_ZN3isc4dhcp13CfgExpiration30setFlushReclaimedTimerWaitTimeEl
libkea-dhcpsrv.so.90:_ZN3isc4dhcp13CfgExpirationC1Eb
libkea-dhcpsrv.so.90:_ZN3isc4dhcp13CfgExpirationC2Eb
libkea-dhcpsrv.so.90:_ZN3isc4dhcp13LeasePageSizeC1Em
libkea-dhcpsrv.so.90:_ZN3isc4dhcp13LeasePageSizeC2Em
libkea-dhcpsrv.so.90:_ZN3isc4dhcp13SanityChecker10checkLeaseERN5boost10shared_ptrINS0_6Lease4EEEb
libkea-dhcpsrv.so.90:_ZN3isc4dhcp13SanityChecker10checkLeaseERN5boost10shared_ptrINS0_6Lease6EEEb
libkea-dhcpsrv.so.90:_ZN3isc4dhcp13SanityChecker20leaseCheckingEnabledEb
libkea-dhcpsrv.so.90:_ZN3isc4dhcp13SimpleParser414setAllDefaultsEN5boost10shared_ptrINS_4data7ElementEEE
libkea-dhcpsrv.so.90:_ZN3isc4dhcp13SimpleParser416deriveParametersEN5boost10shared_ptrINS_4data7ElementEEE
libkea-dhcpsrv.so.90:_ZN3isc4dhcp13SimpleParser614setAllDefaultsEN5boost10shared_ptrINS_4data7ElementEEE
libkea-dhcpsrv.so.90:_ZN3isc4dhcp13SimpleParser616deriveParametersEN5boost10shared_ptrINS_4data7ElementEEE
libkea-dhcpsrv.so.90:_ZN3isc4dhcp14CfgConsistency17sanityCheckToTextB5cxx11ENS1_11LeaseSanityE
libkea-dhcpsrv.so.90:_ZN3isc4dhcp14CfgConsistency17sanityCheckToTextB5cxx11ENS1_18ExtendedInfoSanityE
libkea-dhcpsrv.so.90:_ZN3isc4dhcp14ClientClassDef11setRequiredEb
libkea-dhcpsrv.so.90:_ZN3isc4dhcp14ClientClassDef12setCfgOptionERKN5boost10shared_ptrINS0_9CfgOptionEEE
libkea-dhcpsrv.so.90:_ZN3isc4dhcp14ClientClassDef12setMatchExprERKN5boost10shared_ptrISt6vectorINS3_INS0_5TokenEEESaIS6_EEEE
libkea-dhcpsrv.so.90:_ZN3isc4dhcp14ClientClassDef15setCfgOptionDefERKN5boost10shared_ptrINS0_12CfgOptionDefEEE
libkea-dhcpsrv.so.90:_ZN3isc4dhcp14ClientClassDef16setDependOnKnownEb
libkea-dhcpsrv.so.90:_ZN3isc4dhcp14ClientClassDef4testEN5boost10shared_ptrINS0_3PktEEERKNS3_ISt6vectorINS3_INS0_5TokenEEESaIS8_EEEE
libkea-dhcpsrv.so.90:_ZN3isc4dhcp14ClientClassDef7setNameERKNSt7__cxx1112basic_stringIcSt11char_traitsIcESaIcEEE
libkea-dhcpsrv.so.90:_ZN3isc4dhcp14ClientClassDef7setTestERKNSt7__cxx1112basic_stringIcSt11char_traitsIcESaIcEEE
libkea-dhcpsrv.so.90:_ZN3isc4dhcp14ClientClassDefC1ERKNSt7__cxx1112basic_stringIcSt11char_traitsIcESaIcEEERKN5boost10shared_ptrISt6vectorINSB_INS0_5TokenEEESaISE_EEEERKNSB_INS0_9CfgOptionEEE
libkea-dhcpsrv.so.90:_ZN3isc4dhcp14ClientClassDefC1ERKS1_
libkea-dhcpsrv.so.90:_ZN3isc4dhcp14ClientClassDefC2ERKNSt7__cxx1112basic_stringIcSt11char_traitsIcESaIcEEERKN5boost10shared_ptrISt6vectorINSB_INS0_5TokenEEESaISE_EEEERKNSB_INS0_9CfgOptionEEE
libkea-dhcpsrv.so.90:_ZN3isc4dhcp14ClientClassDefC2ERKS1_
libkea-dhcpsrv.so.90:_ZN3isc4dhcp14ClientClassDefD0Ev
libkea-dhcpsrv.so.90:_ZN3isc4dhcp14ClientClassDefD1Ev
libkea-dhcpsrv.so.90:_ZN3isc4dhcp14ClientClassDefD2Ev
libkea-dhcpsrv.so.90:_ZN3isc4dhcp14D2ClientConfig13enableUpdatesEb
libkea-dhcpsrv.so.90:_ZN3isc4dhcp14D2ClientConfig16validateContentsEv
libkea-dhcpsrv.so.90:_ZN3isc4dhcp14D2ClientConfig29replaceClientNameModeToStringB5cxx11ERKNS1_21ReplaceClientNameModeE
libkea-dhcpsrv.so.90:_ZN3isc4dhcp14D2ClientConfig29stringToReplaceClientNameModeERKNSt7__cxx1112basic_stringIcSt11char_traitsIcESaIcEEE
libkea-dhcpsrv.so.90:_ZN3isc4dhcp14D2ClientConfigC1EbRKNS_8asiolink9IOAddressEmS5_mmRKNS_9dhcp_ddns18NameChangeProtocolERKNS6_16NameChangeFormatE
libkea-dhcpsrv.so.90:_ZN3isc4dhcp14D2ClientConfigC1Ev
libkea-dhcpsrv.so.90:_ZN3isc4dhcp14D2ClientConfigC2EbRKNS_8asiolink9IOAddressEmS5_mmRKNS_9dhcp_ddns18NameChangeProtocolERKNS6_16NameChangeFormatE
libkea-dhcpsrv.so.90:_ZN3isc4dhcp14D2ClientConfigC2Ev
libkea-dhcpsrv.so.90:_ZN3isc4dhcp14D2ClientConfigD0Ev
libkea-dhcpsrv.so.90:_ZN3isc4dhcp14D2ClientConfigD1Ev
libkea-dhcpsrv.so.90:_ZN3isc4dhcp14D2ClientConfigD2Ev
libkea-dhcpsrv.so.90:_ZN3isc4dhcp14Dhcp4o6IpcBase4openEtNS1_12EndpointTypeE
libkea-dhcpsrv.so.90:_ZN3isc4dhcp14Dhcp4o6IpcBase4sendERKN5boost10shared_ptrINS0_4Pkt6EEE
libkea-dhcpsrv.so.90:_ZN3isc4dhcp14Dhcp4o6IpcBase5closeEv
libkea-dhcpsrv.so.90:_ZN3isc4dhcp14Dhcp4o6IpcBase7receiveEv
libkea-dhcpsrv.so.90:_ZN3isc4dhcp14Dhcp4o6IpcBaseC1Ev
libkea-dhcpsrv.so.90:_ZN3isc4dhcp14Dhcp4o6IpcBaseC2Ev
libkea-dhcpsrv.so.90:_ZN3isc4dhcp14Dhcp4o6IpcBaseD0Ev
libkea-dhcpsrv.so.90:_ZN3isc4dhcp14Dhcp4o6IpcBaseD1Ev
libkea-dhcpsrv.so.90:_ZN3isc4dhcp14Dhcp4o6IpcBaseD2Ev
libkea-dhcpsrv.so.90:_ZN3isc4dhcp14SharedNetwork427subnetsIncludeMatchClientIdERKN5boost10shared_ptrINS0_7Subnet4EEERKNS0_13ClientClassesE
libkea-dhcpsrv.so.90:_ZN3isc4dhcp14SharedNetwork43addERKN5boost10shared_ptrINS0_7Subnet4EEE
libkea-dhcpsrv.so.90:_ZN3isc4dhcp14SharedNetwork43delERKj
libkea-dhcpsrv.so.90:_ZN3isc4dhcp14SharedNetwork46createERKNSt7__cxx1112basic_stringIcSt11char_traitsIcESaIcEEE
libkea-dhcpsrv.so.90:_ZN3isc4dhcp14SharedNetwork46delAllEv
libkea-dhcpsrv.so.90:_ZN3isc4dhcp14SharedNetwork47replaceERKN5boost10shared_ptrINS0_7Subnet4EEE
libkea-dhcpsrv.so.90:_ZN3isc4dhcp14SharedNetwork63addERKN5boost10shared_ptrINS0_7Subnet6EEE
libkea-dhcpsrv.so.90:_ZN3isc4dhcp14SharedNetwork63delERKj
libkea-dhcpsrv.so.90:_ZN3isc4dhcp14SharedNetwork66createERKNSt7__cxx1112basic_stringIcSt11char_traitsIcESaIcEEE
libkea-dhcpsrv.so.90:_ZN3isc4dhcp14SharedNetwork66delAllEv
libkea-dhcpsrv.so.90:_ZN3isc4dhcp14SharedNetwork67replaceERKN5boost10shared_ptrINS0_7Subnet6EEE
libkea-dhcpsrv.so.90:_ZN3isc4dhcp15CBControlDHCPv419databaseConfigApplyERKNS_2db15BackendSelectorERKNS2_14ServerSelectorERKN5boost10posix_time5ptimeERKNS9_11multi_index21multi_index_containerINS9_10shared_ptrINS2_10AuditEntryEEENSE_10indexed_byINSE_18ordered_non_uniqueINSE_3tagINS2_23AuditEntryObjectTypeTagEN4mpl_2naESO_SO_SO_SO_SO_SO_SO_SO_SO_SO_SO_SO_SO_SO_SO_SO_SO_SO_EENSE_13composite_keyISH_NSE_13const_mem_funISH_NSt7__cxx1112basic_stringIcSt11char_traitsIcESaIcEEEXadL_ZNKSH_13getObjectTypeB5cxx11EvEEEENSR_ISH_NSH_16ModificationTypeEXadL_ZNKSH_19getModificationTypeEvEEEENS9_6tuples9null_typeES12_S12_S12_S12_S12_S12_S12_EESO_EENSK_INSL_INS2_31AuditEntryModificationTimeIdTagESO_SO_SO_SO_SO_SO_SO_SO_SO_SO_SO_SO_SO_SO_SO_SO_SO_SO_SO_EENSQ_ISH_NSR_ISH_SB_XadL_ZNKSH_19getModificationTimeEvEEEENSR_ISH_mXadL_ZNKSH_13getRevisionIdEvEEEES12_S12_S12_S12_S12_S12_S12_S12_EESO_EENSE_17hashed_non_uniqueINSL_INS2_21AuditEntryObjectIdTagESO_SO_SO_SO_SO_SO_SO_SO_SO_SO_SO_SO_SO_SO_SO_SO_SO_SO_SO_EENSR_ISH_mXadL_ZNKSH_11getObjectIdEvEEEESO_SO_EESO_SO_SO_SO_SO_SO_SO_SO_SO_SO_SO_SO_SO_SO_SO_SO_SO_EESaISI_EEE
libkea-dhcpsrv.so.90:_ZN3isc4dhcp15CBControlDHCPv619databaseConfigApplyERKNS_2db15BackendSelectorERKNS2_14ServerSelectorERKN5boost10posix_time5ptimeERKNS9_11multi_index21multi_index_containerINS9_10shared_ptrINS2_10AuditEntryEEENSE_10indexed_byINSE_18ordered_non_uniqueINSE_3tagINS2_23AuditEntryObjectTypeTagEN4mpl_2naESO_SO_SO_SO_SO_SO_SO_SO_SO_SO_SO_SO_SO_SO_SO_SO_SO_SO_EENSE_13composite_keyISH_NSE_13const_mem_funISH_NSt7__cxx1112basic_stringIcSt11char_traitsIcESaIcEEEXadL_ZNKSH_13getObjectTypeB5cxx11EvEEEENSR_ISH_NSH_16ModificationTypeEXadL_ZNKSH_19getModificationTypeEvEEEENS9_6tuples9null_typeES12_S12_S12_S12_S12_S12_S12_EESO_EENSK_INSL_INS2_31AuditEntryModificationTimeIdTagESO_SO_SO_SO_SO_SO_SO_SO_SO_SO_SO_SO_SO_SO_SO_SO_SO_SO_SO_EENSQ_ISH_NSR_ISH_SB_XadL_ZNKSH_19getModificationTimeEvEEEENSR_ISH_mXadL_ZNKSH_13getRevisionIdEvEEEES12_S12_S12_S12_S12_S12_S12_S12_EESO_EENSE_17hashed_non_uniqueINSL_INS2_21AuditEntryObjectIdTagESO_SO_SO_SO_SO_SO_SO_SO_SO_SO_SO_SO_SO_SO_SO_SO_SO_SO_SO_EENSR_ISH_mXadL_ZNKSH_11getObjectIdEvEEEESO_SO_EESO_SO_SO_SO_SO_SO_SO_SO_SO_SO_SO_SO_SO_SO_SO_SO_SO_EESaISI_EEE
libkea-dhcpsrv.so.90:_ZN3isc4dhcp15LeaseMgrFactory12haveInstanceEv
libkea-dhcpsrv.so.90:_ZN3isc4dhcp15LeaseMgrFactory14getLeaseMgrPtrEv
libkea-dhcpsrv.so.90:_ZN3isc4dhcp15LeaseMgrFactory6createERKNSt7__cxx1112basic_stringIcSt11char_traitsIcESaIcEEE
libkea-dhcpsrv.so.90:_ZN3isc4dhcp15LeaseMgrFactory7destroyEv
libkea-dhcpsrv.so.90:_ZN3isc4dhcp15LeaseMgrFactory8instanceEv
libkea-dhcpsrv.so.90:_ZN3isc4dhcp15LeaseMgrFactory8recreateERKNSt7__cxx1112basic_stringIcSt11char_traitsIcESaIcEEEb
libkea-dhcpsrv.so.90:_ZN3isc4dhcp15LeaseStatsQuery10getNextRowERNS0_13LeaseStatsRowE
libkea-dhcpsrv.so.90:_ZN3isc4dhcp15LeaseStatsQueryC1ERKNS1_10SelectModeE
libkea-dhcpsrv.so.90:_ZN3isc4dhcp15LeaseStatsQueryC1ERKj
libkea-dhcpsrv.so.90:_ZN3isc4dhcp15LeaseStatsQueryC1ERKjS3_
libkea-dhcpsrv.so.90:_ZN3isc4dhcp15LeaseStatsQueryC2ERKNS1_10SelectModeE
libkea-dhcpsrv.so.90:_ZN3isc4dhcp15LeaseStatsQueryC2ERKj
libkea-dhcpsrv.so.90:_ZN3isc4dhcp15LeaseStatsQueryC2ERKjS3_
libkea-dhcpsrv.so.90:_ZN3isc4dhcp15OptionDefParser5parseEN5boost10shared_ptrIKNS_4data7ElementEEE
libkea-dhcpsrv.so.90:_ZN3isc4dhcp15OptionDefParserC1Et
libkea-dhcpsrv.so.90:_ZN3isc4dhcp15OptionDefParserC2Et
libkea-dhcpsrv.so.90:_ZN3isc4dhcp15RandomAllocator15getRandomNumberEm
libkea-dhcpsrv.so.90:_ZN3isc4dhcp15RandomAllocator18pickPrefixInternalERKNS0_13ClientClassesERN5boost10shared_ptrINS0_5Pool6EEERKNS6_INS0_18IdentifierBaseTypeEEENS0_9Allocator18PrefixLenMatchTypeERKNS_8asiolink9IOAddressEh
libkea-dhcpsrv.so.90:_ZN3isc4dhcp15RandomAllocator19pickAddressInternalERKNS0_13ClientClassesERKN5boost10shared_ptrINS0_18IdentifierBaseTypeEEERKNS_8asiolink9IOAddressE
libkea-dhcpsrv.so.90:_ZN3isc4dhcp15RandomAllocatorC1ENS0_5Lease4TypeERKN5boost8weak_ptrINS0_6SubnetEEE
libkea-dhcpsrv.so.90:_ZN3isc4dhcp15RandomAllocatorC2ENS0_5Lease4TypeERKN5boost8weak_ptrINS0_6SubnetEEE
libkea-dhcpsrv.so.90:_ZN3isc4dhcp15RelayInfoParser10addAddressERKNSt7__cxx1112basic_stringIcSt11char_traitsIcESaIcEEES9_N5boost10shared_ptrIKNS_4data7ElementEEERKNSB_INS0_7Network9RelayInfoEEE
libkea-dhcpsrv.so.90:_ZN3isc4dhcp15RelayInfoParser5parseERKN5boost10shared_ptrINS0_7Network9RelayInfoEEENS3_IKNS_4data7ElementEEE
libkea-dhcpsrv.so.90:_ZN3isc4dhcp15RelayInfoParserC1ERKNS0_6Option8UniverseE
libkea-dhcpsrv.so.90:_ZN3isc4dhcp15RelayInfoParserC2ERKNS0_6Option8UniverseE
libkea-dhcpsrv.so.90:_ZN3isc4dhcp15ResourceHandler14unLockInternalENS0_5Lease4TypeERKNS_8asiolink9IOAddressE
libkea-dhcpsrv.so.90:_ZN3isc4dhcp15ResourceHandler4lockENS0_5Lease4TypeERKNS_8asiolink9IOAddressE
libkea-dhcpsrv.so.90:_ZN3isc4dhcp15ResourceHandler6lookupENS0_5Lease4TypeERKNS_8asiolink9IOAddressE
libkea-dhcpsrv.so.90:_ZN3isc4dhcp15ResourceHandler6unLockENS0_5Lease4TypeERKNS_8asiolink9IOAddressE
libkea-dhcpsrv.so.90:_ZN3isc4dhcp15ResourceHandler7tryLockENS0_5Lease4TypeERKNS_8asiolink9IOAddressE
libkea-dhcpsrv.so.90:_ZN3isc4dhcp15ResourceHandler8isLockedENS0_5Lease4TypeERKNS_8asiolink9IOAddressE
libkea-dhcpsrv.so.90:_ZN3isc4dhcp15ResourceHandlerC1Ev
libkea-dhcpsrv.so.90:_ZN3isc4dhcp15ResourceHandlerC2Ev
libkea-dhcpsrv.so.90:_ZN3isc4dhcp15ResourceHandlerD0Ev
libkea-dhcpsrv.so.90:_ZN3isc4dhcp15ResourceHandlerD1Ev
libkea-dhcpsrv.so.90:_ZN3isc4dhcp15ResourceHandlerD2Ev
libkea-dhcpsrv.so.90:_ZN3isc4dhcp16DUIDConfigParser5parseERKN5boost10shared_ptrINS0_7CfgDUIDEEENS3_IKNS_4data7ElementEEE
libkea-dhcpsrv.so.90:_ZN3isc4dhcp16ExpressionParser5parseERN5boost10shared_ptrISt6vectorINS3_INS0_5TokenEEESaIS6_EEEENS3_IKNS_4data7ElementEEEtSt8functionIFbRKNSt7__cxx1112basic_stringIcSt11char_traitsIcESaIcEEEEENS_4eval11EvalContext10ParserTypeE
libkea-dhcpsrv.so.90:_ZN3isc4dhcp16Memfile_LeaseMgr11addRelayId6ERKNS_8asiolink9IOAddressERKSt6vectorIhSaIhEE
libkea-dhcpsrv.so.90:_ZN3isc4dhcp16Memfile_LeaseMgr11deleteLeaseERKN5boost10shared_ptrINS0_6Lease4EEE
libkea-dhcpsrv.so.90:_ZN3isc4dhcp16Memfile_LeaseMgr11deleteLeaseERKN5boost10shared_ptrINS0_6Lease6EEE
libkea-dhcpsrv.so.90:_ZN3isc4dhcp16Memfile_LeaseMgr11lfcCallbackEv
libkea-dhcpsrv.so.90:_ZN3isc4dhcp16Memfile_LeaseMgr11wipeLeases4ERKj
libkea-dhcpsrv.so.90:_ZN3isc4dhcp16Memfile_LeaseMgr11wipeLeases6ERKj
libkea-dhcpsrv.so.90:_ZN3isc4dhcp16Memfile_LeaseMgr12addRemoteId6ERKNS_8asiolink9IOAddressERKSt6vectorIhSaIhEE
libkea-dhcpsrv.so.90:_ZN3isc4dhcp16Memfile_LeaseMgr12appendSuffixERKNSt7__cxx1112basic_stringIcSt11char_traitsIcESaIcEEERKNS1_11LFCFileTypeE
libkea-dhcpsrv.so.90:_ZN3isc4dhcp16Memfile_LeaseMgr12getDBVersionB5cxx11ERKNS1_8UniverseE
libkea-dhcpsrv.so.90:_ZN3isc4dhcp16Memfile_LeaseMgr12updateLease4ERKN5boost10shared_ptrINS0_6Lease4EEE
libkea-dhcpsrv.so.90:_ZN3isc4dhcp16Memfile_LeaseMgr12updateLease6ERKN5boost10shared_ptrINS0_6Lease6EEE
libkea-dhcpsrv.so.90:_ZN3isc4dhcp16Memfile_LeaseMgr12writeLeases4ERKNSt7__cxx1112basic_stringIcSt11char_traitsIcESaIcEEE
libkea-dhcpsrv.so.90:_ZN3isc4dhcp16Memfile_LeaseMgr12writeLeases6ERKNSt7__cxx1112basic_stringIcSt11char_traitsIcESaIcEEE
libkea-dhcpsrv.so.90:_ZN3isc4dhcp16Memfile_LeaseMgr16addLeaseInternalERKN5boost10shared_ptrINS0_6Lease4EEE
libkea-dhcpsrv.so.90:_ZN3isc4dhcp16Memfile_LeaseMgr16addLeaseInternalERKN5boost10shared_ptrINS0_6Lease6EEE
libkea-dhcpsrv.so.90:_ZN3isc4dhcp16Memfile_LeaseMgr16getLeases6ByLinkERKNS_8asiolink9IOAddressEhS5_RKNS0_13LeasePageSizeE
libkea-dhcpsrv.so.90:_ZN3isc4dhcp16Memfile_LeaseMgr17initLeaseFilePathB5cxx11ENS1_8UniverseE
libkea-dhcpsrv.so.90:_ZN3isc4dhcp16Memfile_LeaseMgr19deleteExtendedInfo6ERKNS_8asiolink9IOAddressE
libkea-dhcpsrv.so.90:_ZN3isc4dhcp16Memfile_LeaseMgr19deleteLeaseInternalERKN5boost10shared_ptrINS0_6Lease4EEE
libkea-dhcpsrv.so.90:_ZN3isc4dhcp16Memfile_LeaseMgr19deleteLeaseInternalERKN5boost10shared_ptrINS0_6Lease6EEE
libkea-dhcpsrv.so.90:_ZN3isc4dhcp16Memfile_LeaseMgr19getLeases4ByRelayIdERKSt6vectorIhSaIhEERKNS_8asiolink9IOAddressERKNS0_13LeasePageSizeERKlSF_
libkea-dhcpsrv.so.90:_ZN3isc4dhcp16Memfile_LeaseMgr19getLeases6ByRelayIdERKNS0_4DUIDERKNS_8asiolink9IOAddressEhS8_RKNS0_13LeasePageSizeE
libkea-dhcpsrv.so.90:_ZN3isc4dhcp16Memfile_LeaseMgr19recountClassLeases4Ev
libkea-dhcpsrv.so.90:_ZN3isc4dhcp16Memfile_LeaseMgr19recountClassLeases6Ev
libkea-dhcpsrv.so.90:_ZN3isc4dhcp16Memfile_LeaseMgr20extractExtendedInfo4Ebb
libkea-dhcpsrv.so.90:_ZN3isc4dhcp16Memfile_LeaseMgr20getLeases4ByRemoteIdERKSt6vectorIhSaIhEERKNS_8asiolink9IOAddressERKNS0_13LeasePageSizeERKlSF_
libkea-dhcpsrv.so.90:_ZN3isc4dhcp16Memfile_LeaseMgr20getLeases6ByRemoteIdERKSt6vectorIhSaIhEERKNS_8asiolink9IOAddressEhSA_RKNS0_13LeasePageSizeE
libkea-dhcpsrv.so.90:_ZN3isc4dhcp16Memfile_LeaseMgr20updateLease4InternalERKN5boost10shared_ptrINS0_6Lease4EEE
libkea-dhcpsrv.so.90:_ZN3isc4dhcp16Memfile_LeaseMgr20updateLease6InternalERKN5boost10shared_ptrINS0_6Lease6EEE
libkea-dhcpsrv.so.90:_ZN3isc4dhcp16Memfile_LeaseMgr20upgradeExtendedInfo4ERKNS0_13LeasePageSizeE
libkea-dhcpsrv.so.90:_ZN3isc4dhcp16Memfile_LeaseMgr20writeLeases4InternalERKNSt7__cxx1112basic_stringIcSt11char_traitsIcESaIcEEE
libkea-dhcpsrv.so.90:_ZN3isc4dhcp16Memfile_LeaseMgr20writeLeases6InternalERKNSt7__cxx1112basic_stringIcSt11char_traitsIcESaIcEEE
libkea-dhcpsrv.so.90:_ZN3isc4dhcp16Memfile_LeaseMgr21clearClassLeaseCountsEv
libkea-dhcpsrv.so.90:_ZN3isc4dhcp16Memfile_LeaseMgr21startLeaseStatsQuery4Ev
libkea-dhcpsrv.so.90:_ZN3isc4dhcp16Memfile_LeaseMgr21startLeaseStatsQuery6Ev
libkea-dhcpsrv.so.90:_ZN3isc4dhcp16Memfile_LeaseMgr24buildExtendedInfoTables6Ebb
libkea-dhcpsrv.so.90:_ZN3isc4dhcp16Memfile_LeaseMgr24getLeases6ByLinkInternalERKNS_8asiolink9IOAddressEhS5_RKNS0_13LeasePageSizeE
libkea-dhcpsrv.so.90:_ZN3isc4dhcp16Memfile_LeaseMgr25startPoolLeaseStatsQuery4Ev
libkea-dhcpsrv.so.90:_ZN3isc4dhcp16Memfile_LeaseMgr25startPoolLeaseStatsQuery6Ev
libkea-dhcpsrv.so.90:_ZN3isc4dhcp16Memfile_LeaseMgr27getLeases4ByRelayIdInternalERKSt6vectorIhSaIhEERKNS_8asiolink9IOAddressERKNS0_13LeasePageSizeERKlSF_
libkea-dhcpsrv.so.90:_ZN3isc4dhcp16Memfile_LeaseMgr27getLeases6ByRelayIdInternalERKNS0_4DUIDERKNS_8asiolink9IOAddressEhS8_RKNS0_13LeasePageSizeE
libkea-dhcpsrv.so.90:_ZN3isc4dhcp16Memfile_LeaseMgr27startSubnetLeaseStatsQuery4ERKj
libkea-dhcpsrv.so.90:_ZN3isc4dhcp16Memfile_LeaseMgr27startSubnetLeaseStatsQuery6ERKj
libkea-dhcpsrv.so.90:_ZN3isc4dhcp16Memfile_LeaseMgr28getLeases4ByRemoteIdInternalERKSt6vectorIhSaIhEERKNS_8asiolink9IOAddressERKNS0_13LeasePageSizeERKlSF_
libkea-dhcpsrv.so.90:_ZN3isc4dhcp16Memfile_LeaseMgr28getLeases6ByRemoteIdInternalERKSt6vectorIhSaIhEERKNS_8asiolink9IOAddressEhSA_RKNS0_13LeasePageSizeE
libkea-dhcpsrv.so.90:_ZN3isc4dhcp16Memfile_LeaseMgr29deleteExpiredReclaimedLeases4Ej
libkea-dhcpsrv.so.90:_ZN3isc4dhcp16Memfile_LeaseMgr29deleteExpiredReclaimedLeases6Ej
libkea-dhcpsrv.so.90:_ZN3isc4dhcp16Memfile_LeaseMgr32buildExtendedInfoTables6InternalEbb
libkea-dhcpsrv.so.90:_ZN3isc4dhcp16Memfile_LeaseMgr32startSubnetRangeLeaseStatsQuery4ERKjS3_
libkea-dhcpsrv.so.90:_ZN3isc4dhcp16Memfile_LeaseMgr32startSubnetRangeLeaseStatsQuery6ERKjS3_
libkea-dhcpsrv.so.90:_ZN3isc4dhcp16Memfile_LeaseMgr6commitEv
libkea-dhcpsrv.so.90:_ZN3isc4dhcp16Memfile_LeaseMgr8addLeaseERKN5boost10shared_ptrINS0_6Lease4EEE
libkea-dhcpsrv.so.90:_ZN3isc4dhcp16Memfile_LeaseMgr8addLeaseERKN5boost10shared_ptrINS0_6Lease6EEE
libkea-dhcpsrv.so.90:_ZN3isc4dhcp16Memfile_LeaseMgr8lfcSetupEb
libkea-dhcpsrv.so.90:_ZN3isc4dhcp16Memfile_LeaseMgr8rollbackEv
libkea-dhcpsrv.so.90:_ZN3isc4dhcp16Memfile_LeaseMgrC1ERKSt3mapINSt7__cxx1112basic_stringIcSt11char_traitsIcESaIcEEES8_St4lessIS8_ESaISt4pairIKS8_S8_EEE
libkea-dhcpsrv.so.90:_ZN3isc4dhcp16Memfile_LeaseMgrC2ERKSt3mapINSt7__cxx1112basic_stringIcSt11char_traitsIcESaIcEEES8_St4lessIS8_ESaISt4pairIKS8_S8_EEE
libkea-dhcpsrv.so.90:_ZN3isc4dhcp16Memfile_LeaseMgrD0Ev
libkea-dhcpsrv.so.90:_ZN3isc4dhcp16Memfile_LeaseMgrD1Ev
libkea-dhcpsrv.so.90:_ZN3isc4dhcp16Memfile_LeaseMgrD2Ev
libkea-dhcpsrv.so.90:_ZN3isc4dhcp16NetworkStateImpl9enableAllERKNS0_12NetworkState6OriginE
libkea-dhcpsrv.so.90:_ZN3isc4dhcp16OptionDataParser12createOptionB5cxx11EN5boost10shared_ptrIKNS_4data7ElementEEE
libkea-dhcpsrv.so.90:_ZN3isc4dhcp16OptionDataParser5parseB5cxx11EN5boost10shared_ptrIKNS_4data7ElementEEE
libkea-dhcpsrv.so.90:_ZN3isc4dhcp16OptionDataParserC1EtN5boost10shared_ptrINS0_12CfgOptionDefEEE
libkea-dhcpsrv.so.90:_ZN3isc4dhcp16OptionDataParserC2EtN5boost10shared_ptrINS0_12CfgOptionDefEEE
libkea-dhcpsrv.so.90:_ZN3isc4dhcp16OptionDescriptor6createERKN5boost10shared_ptrINS0_6OptionEEEbbRKNSt7__cxx1112basic_stringIcSt11char_traitsIcESaIcEEENS3_IKNS_4data7ElementEEE
libkea-dhcpsrv.so.90:_ZN3isc4dhcp16OptionDescriptor6createERKS1_
libkea-dhcpsrv.so.90:_ZN3isc4dhcp16OptionDescriptor6createEbb
libkea-dhcpsrv.so.90:_ZN3isc4dhcp16Pools4ListParser5parseEN5boost10shared_ptrISt6vectorINS3_INS0_4PoolEEESaIS6_EEEENS3_IKNS_4data7ElementEEEb
libkea-dhcpsrv.so.90:_ZN3isc4dhcp16Pools6ListParser5parseEN5boost10shared_ptrISt6vectorINS3_INS0_4PoolEEESaIS6_EEEENS3_IKNS_4data7ElementEEEb
libkea-dhcpsrv.so.90:_ZN3isc4dhcp16TrackingLeaseMgr12runCallbacksENS1_12CallbackTypeERKN5boost10shared_ptrINS0_5LeaseEEE
libkea-dhcpsrv.so.90:_ZN3isc4dhcp16TrackingLeaseMgr13trackAddLeaseERKN5boost10shared_ptrINS0_5LeaseEEE
libkea-dhcpsrv.so.90:_ZN3isc4dhcp16TrackingLeaseMgr16registerCallbackENS1_12CallbackTypeENSt7__cxx1112basic_stringIcSt11char_traitsIcESaIcEEENS0_5Lease4TypeESt8functionIFvN5boost10shared_ptrIS9_EEEE
libkea-dhcpsrv.so.90:_ZN3isc4dhcp16TrackingLeaseMgr16registerCallbackENS1_12CallbackTypeENSt7__cxx1112basic_stringIcSt11char_traitsIcESaIcEEEjNS0_5Lease4TypeESt8functionIFvN5boost10shared_ptrIS9_EEEE
libkea-dhcpsrv.so.90:_ZN3isc4dhcp16TrackingLeaseMgr16trackDeleteLeaseERKN5boost10shared_ptrINS0_5LeaseEEE
libkea-dhcpsrv.so.90:_ZN3isc4dhcp16TrackingLeaseMgr16trackUpdateLeaseERKN5boost10shared_ptrINS0_5LeaseEEE
libkea-dhcpsrv.so.90:_ZN3isc4dhcp16TrackingLeaseMgr19unregisterCallbacksEjNS0_5Lease4TypeE
libkea-dhcpsrv.so.90:_ZN3isc4dhcp16TrackingLeaseMgr20callbackTypeToStringB5cxx11ENS1_12CallbackTypeE
libkea-dhcpsrv.so.90:_ZN3isc4dhcp16TrackingLeaseMgr22unregisterAllCallbacksEv
libkea-dhcpsrv.so.90:_ZN3isc4dhcp16TrackingLeaseMgr23runCallbacksForSubnetIDENS1_12CallbackTypeEjRKN5boost10shared_ptrINS0_5LeaseEEE
libkea-dhcpsrv.so.90:_ZN3isc4dhcp16TrackingLeaseMgr6unlockERKN5boost10shared_ptrINS0_5LeaseEEE
libkea-dhcpsrv.so.90:_ZN3isc4dhcp16TrackingLeaseMgr7tryLockERKN5boost10shared_ptrINS0_5LeaseEEE
libkea-dhcpsrv.so.90:_ZN3isc4dhcp16TrackingLeaseMgr8isLockedERKN5boost10shared_ptrINS0_5LeaseEEE
libkea-dhcpsrv.so.90:_ZN3isc4dhcp16TrackingLeaseMgrC1Ev
libkea-dhcpsrv.so.90:_ZN3isc4dhcp16TrackingLeaseMgrC2Ev
libkea-dhcpsrv.so.90:_ZN3isc4dhcp16calculateDdnsTtlEjRKNS_4util8OptionalIdEE
libkea-dhcpsrv.so.90:_ZN3isc4dhcp17BaseNetworkParser11parseCommonERKN5boost10shared_ptrIKNS_4data7ElementEEERNS3_INS0_7NetworkEEE
libkea-dhcpsrv.so.90:_ZN3isc4dhcp17BaseNetworkParser13parseOfferLftERKN5boost10shared_ptrIKNS_4data7ElementEEERNS3_INS0_8Network4EEE
libkea-dhcpsrv.so.90:_ZN3isc4dhcp17BaseNetworkParser15parseDdnsParamsERKN5boost10shared_ptrIKNS_4data7ElementEEERNS3_INS0_7NetworkEEE
libkea-dhcpsrv.so.90:_ZN3isc4dhcp17BaseNetworkParser16parseCacheParamsERKN5boost10shared_ptrIKNS_4data7ElementEEERNS3_INS0_7NetworkEEE
libkea-dhcpsrv.so.90:_ZN3isc4dhcp17BaseNetworkParser16parseTeePercentsERKN5boost10shared_ptrIKNS_4data7ElementEEERNS3_INS0_7NetworkEEE
libkea-dhcpsrv.so.90:_ZN3isc4dhcp17BaseNetworkParser19moveReservationModeEN5boost10shared_ptrINS0_10CfgGlobalsEEE
libkea-dhcpsrv.so.90:_ZN3isc4dhcp17BaseNetworkParser19moveReservationModeEN5boost10shared_ptrINS_4data7ElementEEE
libkea-dhcpsrv.so.90:_ZN3isc4dhcp17BaseNetworkParser20parseAllocatorParamsERKN5boost10shared_ptrIKNS_4data7ElementEEERNS3_INS0_7NetworkEEE
libkea-dhcpsrv.so.90:_ZN3isc4dhcp17BaseNetworkParser22parsePdAllocatorParamsERKN5boost10shared_ptrIKNS_4data7ElementEEERNS3_INS0_8Network6EEE
libkea-dhcpsrv.so.90:_ZN3isc4dhcp17CfgHostOperations13createConfig4Ev
libkea-dhcpsrv.so.90:_ZN3isc4dhcp17CfgHostOperations13createConfig6Ev
libkea-dhcpsrv.so.90:_ZN3isc4dhcp17CfgHostOperations17addIdentifierTypeERKNSt7__cxx1112basic_stringIcSt11char_traitsIcESaIcEEE
libkea-dhcpsrv.so.90:_ZN3isc4dhcp17CfgHostOperations20clearIdentifierTypesEv
libkea-dhcpsrv.so.90:_ZN3isc4dhcp17CfgHostOperationsC1Ev
libkea-dhcpsrv.so.90:_ZN3isc4dhcp17CfgHostOperationsC2Ev
libkea-dhcpsrv.so.90:_ZN3isc4dhcp17CfgMultiThreading5applyEN5boost10shared_ptrIKNS_4data7ElementEEE
libkea-dhcpsrv.so.90:_ZN3isc4dhcp17CfgMultiThreading7extractEN5boost10shared_ptrIKNS_4data7ElementEEERbRjS9_
libkea-dhcpsrv.so.90:_ZN3isc4dhcp17ClassLeaseCounter11removeLeaseEN5boost10shared_ptrINS0_5LeaseEEE
libkea-dhcpsrv.so.90:_ZN3isc4dhcp17ClassLeaseCounter11updateLeaseEN5boost10shared_ptrINS0_5LeaseEEES5_
libkea-dhcpsrv.so.90:_ZN3isc4dhcp17ClassLeaseCounter13setClassCountERKNSt7__cxx1112basic_stringIcSt11char_traitsIcESaIcEEEmRKNS0_5Lease4TypeE
libkea-dhcpsrv.so.90:_ZN3isc4dhcp17ClassLeaseCounter16adjustClassCountERKNSt7__cxx1112basic_stringIcSt11char_traitsIcESaIcEEEiRKNS0_5Lease4TypeE
libkea-dhcpsrv.so.90:_ZN3isc4dhcp17ClassLeaseCounter17adjustClassCountsEN5boost10shared_ptrIKNS_4data7ElementEEEiRKNS0_5Lease4TypeE
libkea-dhcpsrv.so.90:_ZN3isc4dhcp17ClassLeaseCounter21getLeaseClientClassesEN5boost10shared_ptrINS0_5LeaseEEE
libkea-dhcpsrv.so.90:_ZN3isc4dhcp17ClassLeaseCounter8addLeaseEN5boost10shared_ptrINS0_5LeaseEEE
libkea-dhcpsrv.so.90:_ZN3isc4dhcp17PdPoolsListParser5parseEN5boost10shared_ptrISt6vectorINS3_INS0_4PoolEEESaIS6_EEEENS3_IKNS_4data7ElementEEE
libkea-dhcpsrv.so.90:_ZN3isc4dhcp18IPRangePermutation4nextERb
libkea-dhcpsrv.so.90:_ZN3isc4dhcp18IPRangePermutation5resetEv
libkea-dhcpsrv.so.90:_ZN3isc4dhcp18IPRangePermutationC1ERKNS0_11PrefixRangeE
libkea-dhcpsrv.so.90:_ZN3isc4dhcp18IPRangePermutationC1ERKNS0_12AddressRangeE
libkea-dhcpsrv.so.90:_ZN3isc4dhcp18IPRangePermutationC2ERKNS0_11PrefixRangeE
libkea-dhcpsrv.so.90:_ZN3isc4dhcp18IPRangePermutationC2ERKNS0_12AddressRangeE
libkea-dhcpsrv.so.90:_ZN3isc4dhcp18IfacesConfigParser19parseInterfacesListERKN5boost10shared_ptrINS0_8CfgIfaceEEENS3_IKNS_4data7ElementEEE
libkea-dhcpsrv.so.90:_ZN3isc4dhcp18IfacesConfigParser5parseERKN5boost10shared_ptrINS0_8CfgIfaceEEERKNS3_IKNS_4data7ElementEEE
libkea-dhcpsrv.so.90:_ZN3isc4dhcp18IfacesConfigParserC1Etb
libkea-dhcpsrv.so.90:_ZN3isc4dhcp18IfacesConfigParserC2Etb
libkea-dhcpsrv.so.90:_ZN3isc4dhcp18IterativeAllocator14increasePrefixERKNS_8asiolink9IOAddressEh
libkea-dhcpsrv.so.90:_ZN3isc4dhcp18IterativeAllocator15increaseAddressERKNS_8asiolink9IOAddressEbh
libkea-dhcpsrv.so.90:_ZN3isc4dhcp18IterativeAllocator18pickPrefixInternalERKNS0_13ClientClassesERN5boost10shared_ptrINS0_5Pool6EEERKNS6_INS0_18IdentifierBaseTypeEEENS0_9Allocator18PrefixLenMatchTypeERKNS_8asiolink9IOAddressEh
libkea-dhcpsrv.so.90:_ZN3isc4dhcp18IterativeAllocator19pickAddressInternalERKNS0_13ClientClassesERKN5boost10shared_ptrINS0_18IdentifierBaseTypeEEERKNS_8asiolink9IOAddressE
libkea-dhcpsrv.so.90:_ZN3isc4dhcp18IterativeAllocatorC1ENS0_5Lease4TypeERKN5boost8weak_ptrINS0_6SubnetEEE
libkea-dhcpsrv.so.90:_ZN3isc4dhcp18IterativeAllocatorC2ENS0_5Lease4TypeERKN5boost8weak_ptrINS0_6SubnetEEE
libkea-dhcpsrv.so.90:_ZN3isc4dhcp18SanityChecksParser5parseERNS0_9SrvConfigERKN5boost10shared_ptrIKNS_4data7ElementEEE
libkea-dhcpsrv.so.90:_ZN3isc4dhcp18SubnetConfigParser12createSubnetEN5boost10shared_ptrIKNS_4data7ElementEEE
libkea-dhcpsrv.so.90:_ZN3isc4dhcp18SubnetConfigParser5parseEN5boost10shared_ptrIKNS_4data7ElementEEEb
libkea-dhcpsrv.so.90:_ZN3isc4dhcp18SubnetConfigParserC1Etb
libkea-dhcpsrv.so.90:_ZN3isc4dhcp18SubnetConfigParserC2Etb
libkea-dhcpsrv.so.90:_ZN3isc4dhcp19ControlSocketParser5parseERNS0_9SrvConfigEN5boost10shared_ptrIKNS_4data7ElementEEE
libkea-dhcpsrv.so.90:_ZN3isc4dhcp19OptionDefListParser5parseEN5boost10shared_ptrINS0_12CfgOptionDefEEENS3_IKNS_4data7ElementEEE
libkea-dhcpsrv.so.90:_ZN3isc4dhcp19OptionDefListParserC1Et
libkea-dhcpsrv.so.90:_ZN3isc4dhcp19OptionDefListParserC2Et
libkea-dhcpsrv.so.90:_ZN3isc4dhcp19Subnet4ConfigParser10initSubnetEN5boost10shared_ptrIKNS_4data7ElementEEENS_8asiolink9IOAddressEh
libkea-dhcpsrv.so.90:_ZN3isc4dhcp19Subnet4ConfigParser12validateResvERKN5boost10shared_ptrINS0_7Subnet4EEENS3_IKNS0_4HostEEE
libkea-dhcpsrv.so.90:_ZN3isc4dhcp19Subnet4ConfigParser5parseEN5boost10shared_ptrIKNS_4data7ElementEEEb
libkea-dhcpsrv.so.90:_ZN3isc4dhcp19Subnet4ConfigParserC1Eb
libkea-dhcpsrv.so.90:_ZN3isc4dhcp19Subnet4ConfigParserC2Eb
libkea-dhcpsrv.so.90:_ZN3isc4dhcp19Subnet6ConfigParser10initSubnetEN5boost10shared_ptrIKNS_4data7ElementEEENS_8asiolink9IOAddressEh
libkea-dhcpsrv.so.90:_ZN3isc4dhcp19Subnet6ConfigParser13validateResvsERKN5boost10shared_ptrINS0_7Subnet6EEENS3_IKNS0_4HostEEE
libkea-dhcpsrv.so.90:_ZN3isc4dhcp19Subnet6ConfigParser22duplicateOptionWarningEjRNS_8asiolink9IOAddressE
libkea-dhcpsrv.so.90:_ZN3isc4dhcp19Subnet6ConfigParser5parseEN5boost10shared_ptrIKNS_4data7ElementEEEb
libkea-dhcpsrv.so.90:_ZN3isc4dhcp19Subnet6ConfigParserC1Eb
libkea-dhcpsrv.so.90:_ZN3isc4dhcp19Subnet6ConfigParserC2Eb
libkea-dhcpsrv.so.90:_ZN3isc4dhcp20ClientClassDefParser24checkParametersSupportedERKN5boost10shared_ptrIKNS_4data7ElementEEEt
libkea-dhcpsrv.so.90:_ZN3isc4dhcp20ClientClassDefParser5parseERN5boost10shared_ptrINS0_21ClientClassDictionaryEEENS3_IKNS_4data7ElementEEEtbb
libkea-dhcpsrv.so.90:_ZN3isc4dhcp20D2ClientConfigParser11getProtocolEN5boost10shared_ptrIKNS_4data7ElementEEERKNSt7__cxx1112basic_stringIcSt11char_traitsIcESaIcEEE
libkea-dhcpsrv.so.90:_ZN3isc4dhcp20D2ClientConfigParser14setAllDefaultsEN5boost10shared_ptrIKNS_4data7ElementEEE
libkea-dhcpsrv.so.90:_ZN3isc4dhcp20D2ClientConfigParser5parseEN5boost10shared_ptrIKNS_4data7ElementEEE
libkea-dhcpsrv.so.90:_ZN3isc4dhcp20D2ClientConfigParser7getModeEN5boost10shared_ptrIKNS_4data7ElementEEERKNSt7__cxx1112basic_stringIcSt11char_traitsIcESaIcEEE
libkea-dhcpsrv.so.90:_ZN3isc4dhcp20D2ClientConfigParser9getFormatEN5boost10shared_ptrIKNS_4data7ElementEEERKNSt7__cxx1112basic_stringIcSt11char_traitsIcESaIcEEE
libkea-dhcpsrv.so.90:_ZN3isc4dhcp20OptionDataListParser5parseERKN5boost10shared_ptrINS0_9CfgOptionEEENS3_IKNS_4data7ElementEEEb
libkea-dhcpsrv.so.90:_ZN3isc4dhcp20OptionDataListParserC1EtN5boost10shared_ptrINS0_12CfgOptionDefEEE
libkea-dhcpsrv.so.90:_ZN3isc4dhcp20OptionDataListParserC2EtN5boost10shared_ptrINS0_12CfgOptionDefEEE
libkea-dhcpsrv.so.90:_ZN3isc4dhcp20SharedNetwork4Parser5parseERKN5boost10shared_ptrIKNS_4data7ElementEEEb
libkea-dhcpsrv.so.90:_ZN3isc4dhcp20SharedNetwork4ParserC1Eb
libkea-dhcpsrv.so.90:_ZN3isc4dhcp20SharedNetwork4ParserC2Eb
libkea-dhcpsrv.so.90:_ZN3isc4dhcp20SharedNetwork6Parser5parseERKN5boost10shared_ptrIKNS_4data7ElementEEEb
libkea-dhcpsrv.so.90:_ZN3isc4dhcp20SharedNetwork6ParserC1Eb
libkea-dhcpsrv.so.90:_ZN3isc4dhcp20SharedNetwork6ParserC2Eb
libkea-dhcpsrv.so.90:_ZN3isc4dhcp20isClientClassBuiltInERKNSt7__cxx1112basic_stringIcSt11char_traitsIcESaIcEEE
libkea-dhcpsrv.so.90:_ZN3isc4dhcp20isClientClassDefinedERN5boost10shared_ptrINS0_21ClientClassDictionaryEEERbRKNSt7__cxx1112basic_stringIcSt11char_traitsIcESaIcEEE
libkea-dhcpsrv.so.90:_ZN3isc4dhcp21ClientClassDictionary11removeClassERKNSt7__cxx1112basic_stringIcSt11char_traitsIcESaIcEEE
libkea-dhcpsrv.so.90:_ZN3isc4dhcp21ClientClassDictionary11removeClassEm
libkea-dhcpsrv.so.90:_ZN3isc4dhcp21ClientClassDictionary13createOptionsERKN5boost10shared_ptrINS0_12CfgOptionDefEEE
libkea-dhcpsrv.so.90:_ZN3isc4dhcp21ClientClassDictionary13initMatchExprEt
libkea-dhcpsrv.so.90:_ZN3isc4dhcp21ClientClassDictionary8addClassERKNSt7__cxx1112basic_stringIcSt11char_traitsIcESaIcEEERKN5boost10shared_ptrISt6vectorINSB_INS0_5TokenEEESaISE_EEEES9_bbRKNSB_INS0_9CfgOptionEEENSB_INS0_12CfgOptionDefEEENSB_IKNS_4data7ElementEEENS_8asiolink9IOAddressES9_S9_RKNS_4util7TripletIjEES10_bRKNSW_8OptionalIjEE
libkea-dhcpsrv.so.90:_ZN3isc4dhcp21ClientClassDictionary8addClassERN5boost10shared_ptrINS0_14ClientClassDefEEE
libkea-dhcpsrv.so.90:_ZN3isc4dhcp21ClientClassDictionaryC1ERKS1_
libkea-dhcpsrv.so.90:_ZN3isc4dhcp21ClientClassDictionaryC1Ev
libkea-dhcpsrv.so.90:_ZN3isc4dhcp21ClientClassDictionaryC2ERKS1_
libkea-dhcpsrv.so.90:_ZN3isc4dhcp21ClientClassDictionaryC2Ev
libkea-dhcpsrv.so.90:_ZN3isc4dhcp21ClientClassDictionaryD0Ev
libkea-dhcpsrv.so.90:_ZN3isc4dhcp21ClientClassDictionaryD1Ev
libkea-dhcpsrv.so.90:_ZN3isc4dhcp21ClientClassDictionaryD2Ev
libkea-dhcpsrv.so.90:_ZN3isc4dhcp21ClientClassDictionaryaSERKS1_
libkea-dhcpsrv.so.90:_ZN3isc4dhcp21HostDataSourceFactory15printRegisteredEv
libkea-dhcpsrv.so.90:_ZN3isc4dhcp21HostDataSourceFactory15registerFactoryERKNSt7__cxx1112basic_stringIcSt11char_traitsIcESaIcEEERKSt8functionIFN5boost10shared_ptrINS0_18BaseHostDataSourceEEERKSt3mapIS7_S7_St4lessIS7_ESaISt4pairIS8_S7_EEEEEb
libkea-dhcpsrv.so.90:_ZN3isc4dhcp21HostDataSourceFactory17deregisterFactoryERKNSt7__cxx1112basic_stringIcSt11char_traitsIcESaIcEEEb
libkea-dhcpsrv.so.90:_ZN3isc4dhcp21HostDataSourceFactory17registeredFactoryERKNSt7__cxx1112basic_stringIcSt11char_traitsIcESaIcEEE
libkea-dhcpsrv.so.90:_ZN3isc4dhcp21HostDataSourceFactory3addERSt6vectorIN5boost10shared_ptrINS0_18BaseHostDataSourceEEESaIS6_EERKNSt7__cxx1112basic_stringIcSt11char_traitsIcESaIcEEE
libkea-dhcpsrv.so.90:_ZN3isc4dhcp21HostDataSourceFactory3delERSt6vectorIN5boost10shared_ptrINS0_18BaseHostDataSourceEEESaIS6_EERKNSt7__cxx1112basic_stringIcSt11char_traitsIcESaIcEEE
libkea-dhcpsrv.so.90:_ZN3isc4dhcp21HostDataSourceFactory3delERSt6vectorIN5boost10shared_ptrINS0_18BaseHostDataSourceEEESaIS6_EERKNSt7__cxx1112basic_stringIcSt11char_traitsIcESaIcEEESH_b
libkea-dhcpsrv.so.90:_ZN3isc4dhcp21HostReservationParser13parseInternalERKjN5boost10shared_ptrIKNS_4data7ElementEEEb
libkea-dhcpsrv.so.90:_ZN3isc4dhcp21HostReservationParser5parseERKjN5boost10shared_ptrIKNS_4data7ElementEEEb
libkea-dhcpsrv.so.90:_ZN3isc4dhcp21SubnetAllocationState31setCurrentAllocatedTimeInternalEv
libkea-dhcpsrv.so.90:_ZN3isc4dhcp21SubnetAllocationStateC1Ev
libkea-dhcpsrv.so.90:_ZN3isc4dhcp21SubnetAllocationStateC2Ev
libkea-dhcpsrv.so.90:_ZN3isc4dhcp22ConfigBackendDHCPv4Mgr28getConfigBackendDHCPv4MgrPtrEv
libkea-dhcpsrv.so.90:_ZN3isc4dhcp22ConfigBackendDHCPv4Mgr6createEv
libkea-dhcpsrv.so.90:_ZN3isc4dhcp22ConfigBackendDHCPv4Mgr7destroyEv
libkea-dhcpsrv.so.90:_ZN3isc4dhcp22ConfigBackendDHCPv4Mgr8instanceEv
libkea-dhcpsrv.so.90:_ZN3isc4dhcp22ConfigBackendDHCPv6Mgr28getConfigBackendDHCPv6MgrPtrEv
libkea-dhcpsrv.so.90:_ZN3isc4dhcp22ConfigBackendDHCPv6Mgr6createEv
libkea-dhcpsrv.so.90:_ZN3isc4dhcp22ConfigBackendDHCPv6Mgr7destroyEv
libkea-dhcpsrv.so.90:_ZN3isc4dhcp22ConfigBackendDHCPv6Mgr8instanceEv
libkea-dhcpsrv.so.90:_ZN3isc4dhcp22DHCPQueueControlParser5parseERKN5boost10shared_ptrIKNS_4data7ElementEEEb
libkea-dhcpsrv.so.90:_ZN3isc4dhcp22ExpirationConfigParser5parseEN5boost10shared_ptrIKNS_4data7ElementEEE
libkea-dhcpsrv.so.90:_ZN3isc4dhcp22HostReservationParser413parseInternalERKjN5boost10shared_ptrIKNS_4data7ElementEEEb
libkea-dhcpsrv.so.90:_ZN3isc4dhcp22HostReservationParser613parseInternalERKjN5boost10shared_ptrIKNS_4data7ElementEEEb
libkea-dhcpsrv.so.90:_ZN3isc4dhcp22TemplateClientClassDef4testEN5boost10shared_ptrINS0_3PktEEERKNS3_ISt6vectorINS3_INS0_5TokenEEESaIS8_EEEE
libkea-dhcpsrv.so.90:_ZN3isc4dhcp22TemplateClientClassDefC1ERKNSt7__cxx1112basic_stringIcSt11char_traitsIcESaIcEEERKN5boost10shared_ptrISt6vectorINSB_INS0_5TokenEEESaISE_EEEERKNSB_INS0_9CfgOptionEEE
libkea-dhcpsrv.so.90:_ZN3isc4dhcp22TemplateClientClassDefC2ERKNSt7__cxx1112basic_stringIcSt11char_traitsIcESaIcEEERKN5boost10shared_ptrISt6vectorINSB_INS0_5TokenEEESaISE_EEEERKNSB_INS0_9CfgOptionEEE
libkea-dhcpsrv.so.90:_ZN3isc4dhcp23ConfigBackendPoolDHCPv413deleteOption4ERKNS_2db15BackendSelectorERKNS2_14ServerSelectorERKNS_8asiolink9IOAddressESC_tRKNSt7__cxx1112basic_stringIcSt11char_traitsIcESaIcEEE
libkea-dhcpsrv.so.90:_ZN3isc4dhcp23ConfigBackendPoolDHCPv413deleteOption4ERKNS_2db15BackendSelectorERKNS2_14ServerSelectorERKNSt7__cxx1112basic_stringIcSt11char_traitsIcESaIcEEEtSG_
libkea-dhcpsrv.so.90:_ZN3isc4dhcp23ConfigBackendPoolDHCPv413deleteOption4ERKNS_2db15BackendSelectorERKNS2_14ServerSelectorERKjtRKNSt7__cxx1112basic_stringIcSt11char_traitsIcESaIcEEE
libkea-dhcpsrv.so.90:_ZN3isc4dhcp23ConfigBackendPoolDHCPv413deleteOption4ERKNS_2db15BackendSelectorERKNS2_14ServerSelectorEtRKNSt7__cxx1112basic_stringIcSt11char_traitsIcESaIcEEE
libkea-dhcpsrv.so.90:_ZN3isc4dhcp23ConfigBackendPoolDHCPv413deleteServer4ERKNS_2db15BackendSelectorERKNS_4data9ServerTagE
libkea-dhcpsrv.so.90:_ZN3isc4dhcp23ConfigBackendPoolDHCPv413deleteSubnet4ERKNS_2db15BackendSelectorERKNS2_14ServerSelectorERKNSt7__cxx1112basic_stringIcSt11char_traitsIcESaIcEEE
libkea-dhcpsrv.so.90:_ZN3isc4dhcp23ConfigBackendPoolDHCPv413deleteSubnet4ERKNS_2db15BackendSelectorERKNS2_14ServerSelectorERKj
libkea-dhcpsrv.so.90:_ZN3isc4dhcp23ConfigBackendPoolDHCPv416deleteOptionDef4ERKNS_2db15BackendSelectorERKNS2_14ServerSelectorEtRKNSt7__cxx1112basic_stringIcSt11char_traitsIcESaIcEEE
libkea-dhcpsrv.so.90:_ZN3isc4dhcp23ConfigBackendPoolDHCPv417deleteAllServers4ERKNS_2db15BackendSelectorE
libkea-dhcpsrv.so.90:_ZN3isc4dhcp23ConfigBackendPoolDHCPv417deleteAllSubnets4ERKNS_2db15BackendSelectorERKNS2_14ServerSelectorE
libkea-dhcpsrv.so.90:_ZN3isc4dhcp23ConfigBackendPoolDHCPv418deleteClientClass4ERKNS_2db15BackendSelectorERKNS2_14ServerSelectorERKNSt7__cxx1112basic_stringIcSt11char_traitsIcESaIcEEE
libkea-dhcpsrv.so.90:_ZN3isc4dhcp23ConfigBackendPoolDHCPv419createUpdateOption4ERKNS_2db15BackendSelectorERKNS2_14ServerSelectorERKN5boost10shared_ptrINS0_16OptionDescriptorEEE
libkea-dhcpsrv.so.90:_ZN3isc4dhcp23ConfigBackendPoolDHCPv419createUpdateOption4ERKNS_2db15BackendSelectorERKNS2_14ServerSelectorERKNS_8asiolink9IOAddressESC_RKN5boost10shared_ptrINS0_16OptionDescriptorEEE
libkea-dhcpsrv.so.90:_ZN3isc4dhcp23ConfigBackendPoolDHCPv419createUpdateOption4ERKNS_2db15BackendSelectorERKNS2_14ServerSelectorERKNSt7__cxx1112basic_stringIcSt11char_traitsIcESaIcEEERKN5boost10shared_ptrINS0_16OptionDescriptorEEE
libkea-dhcpsrv.so.90:_ZN3isc4dhcp23ConfigBackendPoolDHCPv419createUpdateOption4ERKNS_2db15BackendSelectorERKNS2_14ServerSelectorERKjRKN5boost10shared_ptrINS0_16OptionDescriptorEEE
libkea-dhcpsrv.so.90:_ZN3isc4dhcp23ConfigBackendPoolDHCPv419createUpdateServer4ERKNS_2db15BackendSelectorERKN5boost10shared_ptrINS2_6ServerEEE
libkea-dhcpsrv.so.90:_ZN3isc4dhcp23ConfigBackendPoolDHCPv419createUpdateSubnet4ERKNS_2db15BackendSelectorERKNS2_14ServerSelectorERKN5boost10shared_ptrINS0_7Subnet4EEE
libkea-dhcpsrv.so.90:_ZN3isc4dhcp23ConfigBackendPoolDHCPv420deleteAllOptionDefs4ERKNS_2db15BackendSelectorERKNS2_14ServerSelectorE
libkea-dhcpsrv.so.90:_ZN3isc4dhcp23ConfigBackendPoolDHCPv420deleteSharedNetwork4ERKNS_2db15BackendSelectorERKNS2_14ServerSelectorERKNSt7__cxx1112basic_stringIcSt11char_traitsIcESaIcEEE
libkea-dhcpsrv.so.90:_ZN3isc4dhcp23ConfigBackendPoolDHCPv422createUpdateOptionDef4ERKNS_2db15BackendSelectorERKNS2_14ServerSelectorERKN5boost10shared_ptrINS0_16OptionDefinitionEEE
libkea-dhcpsrv.so.90:_ZN3isc4dhcp23ConfigBackendPoolDHCPv422deleteGlobalParameter4ERKNS_2db15BackendSelectorERKNS2_14ServerSelectorERKNSt7__cxx1112basic_stringIcSt11char_traitsIcESaIcEEE
libkea-dhcpsrv.so.90:_ZN3isc4dhcp23ConfigBackendPoolDHCPv423deleteAllClientClasses4ERKNS_2db15BackendSelectorERKNS2_14ServerSelectorE
libkea-dhcpsrv.so.90:_ZN3isc4dhcp23ConfigBackendPoolDHCPv424createUpdateClientClass4ERKNS_2db15BackendSelectorERKNS2_14ServerSelectorERKN5boost10shared_ptrINS0_14ClientClassDefEEERKNSt7__cxx1112basic_stringIcSt11char_traitsIcESaIcEEE
libkea-dhcpsrv.so.90:_ZN3isc4dhcp23ConfigBackendPoolDHCPv424deleteAllSharedNetworks4ERKNS_2db15BackendSelectorERKNS2_14ServerSelectorE
libkea-dhcpsrv.so.90:_ZN3isc4dhcp23ConfigBackendPoolDHCPv426createUpdateSharedNetwork4ERKNS_2db15BackendSelectorERKNS2_14ServerSelectorERKN5boost10shared_ptrINS0_14SharedNetwork4EEE
libkea-dhcpsrv.so.90:_ZN3isc4dhcp23ConfigBackendPoolDHCPv426deleteAllGlobalParameters4ERKNS_2db15BackendSelectorERKNS2_14ServerSelectorE
libkea-dhcpsrv.so.90:_ZN3isc4dhcp23ConfigBackendPoolDHCPv427deleteSharedNetworkSubnets4ERKNS_2db15BackendSelectorERKNS2_14ServerSelectorERKNSt7__cxx1112basic_stringIcSt11char_traitsIcESaIcEEE
libkea-dhcpsrv.so.90:_ZN3isc4dhcp23ConfigBackendPoolDHCPv428createUpdateGlobalParameter4ERKNS_2db15BackendSelectorERKNS2_14ServerSelectorERKN5boost10shared_ptrINS_4data12StampedValueEEE
libkea-dhcpsrv.so.90:_ZN3isc4dhcp23ConfigBackendPoolDHCPv613deleteOption6ERKNS_2db15BackendSelectorERKNS2_14ServerSelectorERKNS_8asiolink9IOAddressESC_tRKNSt7__cxx1112basic_stringIcSt11char_traitsIcESaIcEEE
libkea-dhcpsrv.so.90:_ZN3isc4dhcp23ConfigBackendPoolDHCPv613deleteOption6ERKNS_2db15BackendSelectorERKNS2_14ServerSelectorERKNS_8asiolink9IOAddressEhtRKNSt7__cxx1112basic_stringIcSt11char_traitsIcESaIcEEE
libkea-dhcpsrv.so.90:_ZN3isc4dhcp23ConfigBackendPoolDHCPv613deleteOption6ERKNS_2db15BackendSelectorERKNS2_14ServerSelectorERKNSt7__cxx1112basic_stringIcSt11char_traitsIcESaIcEEEtSG_
libkea-dhcpsrv.so.90:_ZN3isc4dhcp23ConfigBackendPoolDHCPv613deleteOption6ERKNS_2db15BackendSelectorERKNS2_14ServerSelectorERKjtRKNSt7__cxx1112basic_stringIcSt11char_traitsIcESaIcEEE
libkea-dhcpsrv.so.90:_ZN3isc4dhcp23ConfigBackendPoolDHCPv613deleteOption6ERKNS_2db15BackendSelectorERKNS2_14ServerSelectorEtRKNSt7__cxx1112basic_stringIcSt11char_traitsIcESaIcEEE
libkea-dhcpsrv.so.90:_ZN3isc4dhcp23ConfigBackendPoolDHCPv613deleteServer6ERKNS_2db15BackendSelectorERKNS_4data9ServerTagE
libkea-dhcpsrv.so.90:_ZN3isc4dhcp23ConfigBackendPoolDHCPv613deleteSubnet6ERKNS_2db15BackendSelectorERKNS2_14ServerSelectorERKNSt7__cxx1112basic_stringIcSt11char_traitsIcESaIcEEE
libkea-dhcpsrv.so.90:_ZN3isc4dhcp23ConfigBackendPoolDHCPv613deleteSubnet6ERKNS_2db15BackendSelectorERKNS2_14ServerSelectorERKj
libkea-dhcpsrv.so.90:_ZN3isc4dhcp23ConfigBackendPoolDHCPv616deleteOptionDef6ERKNS_2db15BackendSelectorERKNS2_14ServerSelectorEtRKNSt7__cxx1112basic_stringIcSt11char_traitsIcESaIcEEE
libkea-dhcpsrv.so.90:_ZN3isc4dhcp23ConfigBackendPoolDHCPv617deleteAllServers6ERKNS_2db15BackendSelectorE
libkea-dhcpsrv.so.90:_ZN3isc4dhcp23ConfigBackendPoolDHCPv617deleteAllSubnets6ERKNS_2db15BackendSelectorERKNS2_14ServerSelectorE
libkea-dhcpsrv.so.90:_ZN3isc4dhcp23ConfigBackendPoolDHCPv618deleteClientClass6ERKNS_2db15BackendSelectorERKNS2_14ServerSelectorERKNSt7__cxx1112basic_stringIcSt11char_traitsIcESaIcEEE
libkea-dhcpsrv.so.90:_ZN3isc4dhcp23ConfigBackendPoolDHCPv619createUpdateOption6ERKNS_2db15BackendSelectorERKNS2_14ServerSelectorERKN5boost10shared_ptrINS0_16OptionDescriptorEEE
libkea-dhcpsrv.so.90:_ZN3isc4dhcp23ConfigBackendPoolDHCPv619createUpdateOption6ERKNS_2db15BackendSelectorERKNS2_14ServerSelectorERKNS_8asiolink9IOAddressESC_RKN5boost10shared_ptrINS0_16OptionDescriptorEEE
libkea-dhcpsrv.so.90:_ZN3isc4dhcp23ConfigBackendPoolDHCPv619createUpdateOption6ERKNS_2db15BackendSelectorERKNS2_14ServerSelectorERKNS_8asiolink9IOAddressEhRKN5boost10shared_ptrINS0_16OptionDescriptorEEE
libkea-dhcpsrv.so.90:_ZN3isc4dhcp23ConfigBackendPoolDHCPv619createUpdateOption6ERKNS_2db15BackendSelectorERKNS2_14ServerSelectorERKNSt7__cxx1112basic_stringIcSt11char_traitsIcESaIcEEERKN5boost10shared_ptrINS0_16OptionDescriptorEEE
libkea-dhcpsrv.so.90:_ZN3isc4dhcp23ConfigBackendPoolDHCPv619createUpdateOption6ERKNS_2db15BackendSelectorERKNS2_14ServerSelectorERKjRKN5boost10shared_ptrINS0_16OptionDescriptorEEE
libkea-dhcpsrv.so.90:_ZN3isc4dhcp23ConfigBackendPoolDHCPv619createUpdateServer6ERKNS_2db15BackendSelectorERKN5boost10shared_ptrINS2_6ServerEEE
libkea-dhcpsrv.so.90:_ZN3isc4dhcp23ConfigBackendPoolDHCPv619createUpdateSubnet6ERKNS_2db15BackendSelectorERKNS2_14ServerSelectorERKN5boost10shared_ptrINS0_7Subnet6EEE
libkea-dhcpsrv.so.90:_ZN3isc4dhcp23ConfigBackendPoolDHCPv620deleteAllOptionDefs6ERKNS_2db15BackendSelectorERKNS2_14ServerSelectorE
libkea-dhcpsrv.so.90:_ZN3isc4dhcp23ConfigBackendPoolDHCPv620deleteSharedNetwork6ERKNS_2db15BackendSelectorERKNS2_14ServerSelectorERKNSt7__cxx1112basic_stringIcSt11char_traitsIcESaIcEEE
libkea-dhcpsrv.so.90:_ZN3isc4dhcp23ConfigBackendPoolDHCPv622createUpdateOptionDef6ERKNS_2db15BackendSelectorERKNS2_14ServerSelectorERKN5boost10shared_ptrINS0_16OptionDefinitionEEE
libkea-dhcpsrv.so.90:_ZN3isc4dhcp23ConfigBackendPoolDHCPv622deleteGlobalParameter6ERKNS_2db15BackendSelectorERKNS2_14ServerSelectorERKNSt7__cxx1112basic_stringIcSt11char_traitsIcESaIcEEE
libkea-dhcpsrv.so.90:_ZN3isc4dhcp23ConfigBackendPoolDHCPv623deleteAllClientClasses6ERKNS_2db15BackendSelectorERKNS2_14ServerSelectorE
libkea-dhcpsrv.so.90:_ZN3isc4dhcp23ConfigBackendPoolDHCPv624createUpdateClientClass6ERKNS_2db15BackendSelectorERKNS2_14ServerSelectorERKN5boost10shared_ptrINS0_14ClientClassDefEEERKNSt7__cxx1112basic_stringIcSt11char_traitsIcESaIcEEE
libkea-dhcpsrv.so.90:_ZN3isc4dhcp23ConfigBackendPoolDHCPv624deleteAllSharedNetworks6ERKNS_2db15BackendSelectorERKNS2_14ServerSelectorE
libkea-dhcpsrv.so.90:_ZN3isc4dhcp23ConfigBackendPoolDHCPv626createUpdateSharedNetwork6ERKNS_2db15BackendSelectorERKNS2_14ServerSelectorERKN5boost10shared_ptrINS0_14SharedNetwork6EEE
libkea-dhcpsrv.so.90:_ZN3isc4dhcp23ConfigBackendPoolDHCPv626deleteAllGlobalParameters6ERKNS_2db15BackendSelectorERKNS2_14ServerSelectorE
libkea-dhcpsrv.so.90:_ZN3isc4dhcp23ConfigBackendPoolDHCPv627deleteSharedNetworkSubnets6ERKNS_2db15BackendSelectorERKNS2_14ServerSelectorERKNSt7__cxx1112basic_stringIcSt11char_traitsIcESaIcEEE
libkea-dhcpsrv.so.90:_ZN3isc4dhcp23ConfigBackendPoolDHCPv628createUpdateGlobalParameter6ERKNS_2db15BackendSelectorERKNS2_14ServerSelectorERKN5boost10shared_ptrINS_4data12StampedValueEEE
libkea-dhcpsrv.so.90:_ZN3isc4dhcp23FreeLeaseQueueAllocator15getRandomNumberEm
libkea-dhcpsrv.so.90:_ZN3isc4dhcp23FreeLeaseQueueAllocator16addLeaseCallbackEN5boost10shared_ptrINS0_5LeaseEEE
libkea-dhcpsrv.so.90:_ZN3isc4dhcp23FreeLeaseQueueAllocator18pickPrefixInternalERKNS0_13ClientClassesERN5boost10shared_ptrINS0_5Pool6EEERKNS6_INS0_18IdentifierBaseTypeEEENS0_9Allocator18PrefixLenMatchTypeERKNS_8asiolink9IOAddressEh
libkea-dhcpsrv.so.90:_ZN3isc4dhcp23FreeLeaseQueueAllocator19deleteLeaseCallbackEN5boost10shared_ptrINS0_5LeaseEEE
libkea-dhcpsrv.so.90:_ZN3isc4dhcp23FreeLeaseQueueAllocator19pickAddressInternalERKNS0_13ClientClassesERKN5boost10shared_ptrINS0_18IdentifierBaseTypeEEERKNS_8asiolink9IOAddressE
libkea-dhcpsrv.so.90:_ZN3isc4dhcp23FreeLeaseQueueAllocator19updateLeaseCallbackEN5boost10shared_ptrINS0_5LeaseEEE
libkea-dhcpsrv.so.90:_ZN3isc4dhcp23FreeLeaseQueueAllocator24addLeaseCallbackInternalEN5boost10shared_ptrINS0_5LeaseEEE
libkea-dhcpsrv.so.90:_ZN3isc4dhcp23FreeLeaseQueueAllocator26initAfterConfigureInternalEv
libkea-dhcpsrv.so.90:_ZN3isc4dhcp23FreeLeaseQueueAllocator27deleteLeaseCallbackInternalEN5boost10shared_ptrINS0_5LeaseEEE
libkea-dhcpsrv.so.90:_ZN3isc4dhcp23FreeLeaseQueueAllocator27updateLeaseCallbackInternalEN5boost10shared_ptrINS0_5LeaseEEE
libkea-dhcpsrv.so.90:_ZN3isc4dhcp23FreeLeaseQueueAllocator34populateFreePrefixDelegationLeasesERKSt6vectorIN5boost10shared_ptrINS0_6Lease6EEESaIS6_EERKS2_INS4_INS0_4PoolEEESaISC_EE
libkea-dhcpsrv.so.90:_ZN3isc4dhcp23FreeLeaseQueueAllocatorC1ENS0_5Lease4TypeERKN5boost8weak_ptrINS0_6SubnetEEE
libkea-dhcpsrv.so.90:_ZN3isc4dhcp23FreeLeaseQueueAllocatorC2ENS0_5Lease4TypeERKN5boost8weak_ptrINS0_6SubnetEEE
libkea-dhcpsrv.so.90:_ZN3isc4dhcp24ClientClassDefListParser5parseEN5boost10shared_ptrIKNS_4data7ElementEEEtb
libkea-dhcpsrv.so.90:_ZN3isc4dhcp24HostReservationIdsParser13parseInternalEN5boost10shared_ptrIKNS_4data7ElementEEE
libkea-dhcpsrv.so.90:_ZN3isc4dhcp24HostReservationIdsParser5parseEN5boost10shared_ptrIKNS_4data7ElementEEE
libkea-dhcpsrv.so.90:_ZN3isc4dhcp24HostReservationIdsParserC1Ev
libkea-dhcpsrv.so.90:_ZN3isc4dhcp24HostReservationIdsParserC2Ev
libkea-dhcpsrv.so.90:_ZN3isc4dhcp24Subnets4ListConfigParser5parseEN5boost10shared_ptrINS0_9SrvConfigEEENS3_IKNS_4data7ElementEEEb
libkea-dhcpsrv.so.90:_ZN3isc4dhcp24Subnets4ListConfigParser5parseERN5boost11multi_index21multi_index_containerINS2_10shared_ptrINS0_7Subnet4EEENS3_10indexed_byINS3_14ordered_uniqueINS3_3tagINS0_22SubnetSubnetIdIndexTagEN4mpl_2naESD_SD_SD_SD_SD_SD_SD_SD_SD_SD_SD_SD_SD_SD_SD_SD_SD_SD_EENS3_13const_mem_funINS0_6SubnetEjXadL_ZNKSG_5getIDEvEEEESD_EENS9_INSA_INS0_20SubnetPrefixIndexTagESD_SD_SD_SD_SD_SD_SD_SD_SD_SD_SD_SD_SD_SD_SD_SD_SD_SD_SD_EENSF_ISG_NSt7__cxx1112basic_stringIcSt11char_traitsIcESaIcEEEXadL_ZNKSG_6toTextB5cxx11EvEEEESD_EENS3_18ordered_non_uniqueINSA_INS0_22SubnetServerIdIndexTagESD_SD_SD_SD_SD_SD_SD_SD_SD_SD_SD_SD_SD_SD_SD_SD_SD_SD_SD_EENSF_INS0_8Network4ENS_8asiolink9IOAddressEXadL_ZNKSW_11getServerIdEvEEEESD_EENST_INSA_INS0_30SubnetModificationTimeIndexTagESD_SD_SD_SD_SD_SD_SD_SD_SD_SD_SD_SD_SD_SD_SD_SD_SD_SD_SD_EENSF_INS_4data18BaseStampedElementENS2_10posix_time5ptimeEXadL_ZNKS14_19getModificationTimeEvEEEESD_EESD_SD_SD_SD_SD_SD_SD_SD_SD_SD_SD_SD_SD_SD_SD_SD_EESaIS7_EEENS5_IKNS13_7ElementEEEb
libkea-dhcpsrv.so.90:_ZN3isc4dhcp24Subnets4ListConfigParserC1Eb
libkea-dhcpsrv.so.90:_ZN3isc4dhcp24Subnets4ListConfigParserC2Eb
libkea-dhcpsrv.so.90:_ZN3isc4dhcp24Subnets6ListConfigParser5parseEN5boost10shared_ptrINS0_9SrvConfigEEENS3_IKNS_4data7ElementEEEb
libkea-dhcpsrv.so.90:_ZN3isc4dhcp24Subnets6ListConfigParser5parseERN5boost11multi_index21multi_index_containerINS2_10shared_ptrINS0_7Subnet6EEENS3_10indexed_byINS3_14ordered_uniqueINS3_3tagINS0_22SubnetSubnetIdIndexTagEN4mpl_2naESD_SD_SD_SD_SD_SD_SD_SD_SD_SD_SD_SD_SD_SD_SD_SD_SD_SD_EENS3_13const_mem_funINS0_6SubnetEjXadL_ZNKSG_5getIDEvEEEESD_EENS9_INSA_INS0_20SubnetPrefixIndexTagESD_SD_SD_SD_SD_SD_SD_SD_SD_SD_SD_SD_SD_SD_SD_SD_SD_SD_SD_EENSF_ISG_NSt7__cxx1112basic_stringIcSt11char_traitsIcESaIcEEEXadL_ZNKSG_6toTextB5cxx11EvEEEESD_EENS3_18ordered_non_uniqueINSA_INS0_30SubnetModificationTimeIndexTagESD_SD_SD_SD_SD_SD_SD_SD_SD_SD_SD_SD_SD_SD_SD_SD_SD_SD_SD_EENSF_INS_4data18BaseStampedElementENS2_10posix_time5ptimeEXadL_ZNKSX_19getModificationTimeEvEEEESD_EESD_SD_SD_SD_SD_SD_SD_SD_SD_SD_SD_SD_SD_SD_SD_SD_SD_EESaIS7_EEENS5_IKNSW_7ElementEEEb
libkea-dhcpsrv.so.90:_ZN3isc4dhcp24Subnets6ListConfigParserC1Eb
libkea-dhcpsrv.so.90:_ZN3isc4dhcp24Subnets6ListConfigParserC2Eb
libkea-dhcpsrv.so.90:_ZN3isc4dhcp25HostReservationIdsParser4C1Ev
libkea-dhcpsrv.so.90:_ZN3isc4dhcp25HostReservationIdsParser4C2Ev
libkea-dhcpsrv.so.90:_ZN3isc4dhcp25HostReservationIdsParser6C1Ev
libkea-dhcpsrv.so.90:_ZN3isc4dhcp25HostReservationIdsParser6C2Ev
libkea-dhcpsrv.so.90:_ZN3isc4dhcp25PoolRandomAllocationState6createERKN5boost10shared_ptrINS0_4PoolEEE
libkea-dhcpsrv.so.90:_ZN3isc4dhcp25PoolRandomAllocationStateC1ERKNS_8asiolink9IOAddressES5_
libkea-dhcpsrv.so.90:_ZN3isc4dhcp25PoolRandomAllocationStateC1ERKNS_8asiolink9IOAddressES5_h
libkea-dhcpsrv.so.90:_ZN3isc4dhcp25PoolRandomAllocationStateC2ERKNS_8asiolink9IOAddressES5_
libkea-dhcpsrv.so.90:_ZN3isc4dhcp25PoolRandomAllocationStateC2ERKNS_8asiolink9IOAddressES5_h
libkea-dhcpsrv.so.90:_ZN3isc4dhcp26MACSourcesListConfigParser5parseERNS0_12CfgMACSourceEN5boost10shared_ptrIKNS_4data7ElementEEE
libkea-dhcpsrv.so.90:_ZN3isc4dhcp26MultiThreadingConfigParser5parseERNS0_9SrvConfigERKN5boost10shared_ptrIKNS_4data7ElementEEE
libkea-dhcpsrv.so.90:_ZN3isc4dhcp28PoolIterativeAllocationState6createERKN5boost10shared_ptrINS0_4PoolEEE
libkea-dhcpsrv.so.90:_ZN3isc4dhcp28PoolIterativeAllocationStateC1ERKNS_8asiolink9IOAddressE
libkea-dhcpsrv.so.90:_ZN3isc4dhcp28PoolIterativeAllocationStateC2ERKNS_8asiolink9IOAddressE
libkea-dhcpsrv.so.90:_ZN3isc4dhcp30SubnetIterativeAllocationState16setLastAllocatedERKNS_8asiolink9IOAddressE
libkea-dhcpsrv.so.90:_ZN3isc4dhcp30SubnetIterativeAllocationState6createERKN5boost10shared_ptrINS0_6SubnetEEE
libkea-dhcpsrv.so.90:_ZN3isc4dhcp30SubnetIterativeAllocationStateC1ERKNS_8asiolink9IOAddressEh
libkea-dhcpsrv.so.90:_ZN3isc4dhcp30SubnetIterativeAllocationStateC2ERKNS_8asiolink9IOAddressEh
libkea-dhcpsrv.so.90:_ZN3isc4dhcp33PoolFreeLeaseQueueAllocationState12addFreeLeaseERKNS_8asiolink9IOAddressE
libkea-dhcpsrv.so.90:_ZN3isc4dhcp33PoolFreeLeaseQueueAllocationState14offerFreeLeaseEv
libkea-dhcpsrv.so.90:_ZN3isc4dhcp33PoolFreeLeaseQueueAllocationState15deleteFreeLeaseERKNS_8asiolink9IOAddressE
libkea-dhcpsrv.so.90:_ZN3isc4dhcp33PoolFreeLeaseQueueAllocationState6createERKN5boost10shared_ptrINS0_4PoolEEE
libkea-dhcpsrv.so.90:_ZN3isc4dhcp33PoolFreeLeaseQueueAllocationStateC1ENS0_5Lease4TypeE
libkea-dhcpsrv.so.90:_ZN3isc4dhcp33PoolFreeLeaseQueueAllocationStateC2ENS0_5Lease4TypeE
libkea-dhcpsrv.so.90:_ZN3isc4dhcp4Host13setIdentifierEPKhmRKNS1_14IdentifierTypeE
libkea-dhcpsrv.so.90:_ZN3isc4dhcp4Host13setIdentifierERKNSt7__cxx1112basic_stringIcSt11char_traitsIcESaIcEEES9_
libkea-dhcpsrv.so.90:_ZN3isc4dhcp4Host13setNextServerERKNS_8asiolink9IOAddressE
libkea-dhcpsrv.so.90:_ZN3isc4dhcp4Host14addReservationERKNS0_9IPv6ResrvE
libkea-dhcpsrv.so.90:_ZN3isc4dhcp4Host15addClientClass4ERKNSt7__cxx1112basic_stringIcSt11char_traitsIcESaIcEEE
libkea-dhcpsrv.so.90:_ZN3isc4dhcp4Host15addClientClass6ERKNSt7__cxx1112basic_stringIcSt11char_traitsIcESaIcEEE
libkea-dhcpsrv.so.90:_ZN3isc4dhcp4Host15setBootFileNameERKNSt7__cxx1112basic_stringIcSt11char_traitsIcESaIcEEE
libkea-dhcpsrv.so.90:_ZN3isc4dhcp4Host17getIdentifierNameB5cxx11ERKNS1_14IdentifierTypeE
libkea-dhcpsrv.so.90:_ZN3isc4dhcp4Host17getIdentifierTypeERKNSt7__cxx1112basic_stringIcSt11char_traitsIcESaIcEEE
libkea-dhcpsrv.so.90:_ZN3isc4dhcp4Host17setIdentifierTypeERKNS1_14IdentifierTypeE
libkea-dhcpsrv.so.90:_ZN3isc4dhcp4Host17setServerHostnameERKNSt7__cxx1112basic_stringIcSt11char_traitsIcESaIcEEE
libkea-dhcpsrv.so.90:_ZN3isc4dhcp4Host18setIPv4ReservationERKNS_8asiolink9IOAddressE
libkea-dhcpsrv.so.90:_ZN3isc4dhcp4Host19getIdentifierAsTextB5cxx11ERKNS1_14IdentifierTypeEPKhm
libkea-dhcpsrv.so.90:_ZN3isc4dhcp4Host21removeIPv4ReservationEv
libkea-dhcpsrv.so.90:_ZN3isc4dhcp4Host22addClientClassInternalERNS0_13ClientClassesERKNSt7__cxx1112basic_stringIcSt11char_traitsIcESaIcEEE
libkea-dhcpsrv.so.90:_ZN3isc4dhcp4Host22getIdentifierMaxLengthERKNS1_14IdentifierTypeE
libkea-dhcpsrv.so.90:_ZN3isc4dhcp4HostC1EPKhmRKNS1_14IdentifierTypeEjjRKNS_8asiolink9IOAddressERKNSt7__cxx1112basic_stringIcSt11char_traitsIcESaIcEEESI_SI_SA_SI_SI_RKNS0_7AuthKeyE
libkea-dhcpsrv.so.90:_ZN3isc4dhcp4HostC1ERKNSt7__cxx1112basic_stringIcSt11char_traitsIcESaIcEEES9_jjRKNS_8asiolink9IOAddressES9_S9_S9_SD_S9_S9_RKNS0_7AuthKeyE
libkea-dhcpsrv.so.90:_ZN3isc4dhcp4HostC2EPKhmRKNS1_14IdentifierTypeEjjRKNS_8asiolink9IOAddressERKNSt7__cxx1112basic_stringIcSt11char_traitsIcESaIcEEESI_SI_SA_SI_SI_RKNS0_7AuthKeyE
libkea-dhcpsrv.so.90:_ZN3isc4dhcp4HostC2ERKNSt7__cxx1112basic_stringIcSt11char_traitsIcESaIcEEES9_jjRKNS_8asiolink9IOAddressES9_S9_S9_SD_S9_S9_RKNS0_7AuthKeyE
libkea-dhcpsrv.so.90:_ZN3isc4dhcp4Pool16allowClientClassERKNSt7__cxx1112basic_stringIcSt11char_traitsIcESaIcEEE
libkea-dhcpsrv.so.90:_ZN3isc4dhcp4PoolC1ENS0_5Lease4TypeERKNS_8asiolink9IOAddressES7_
libkea-dhcpsrv.so.90:_ZN3isc4dhcp4PoolC2ENS0_5Lease4TypeERKNS_8asiolink9IOAddressES7_
libkea-dhcpsrv.so.90:_ZN3isc4dhcp5Lease10textToTypeERKNSt7__cxx1112basic_stringIcSt11char_traitsIcESaIcEEE
libkea-dhcpsrv.so.90:_ZN3isc4dhcp5Lease10typeToTextB5cxx11ENS1_4TypeE
libkea-dhcpsrv.so.90:_ZN3isc4dhcp5Lease14lifetimeToTextB5cxx11Ej
libkea-dhcpsrv.so.90:_ZN3isc4dhcp5Lease17basicStatesToTextB5cxx11Ej
libkea-dhcpsrv.so.90:_ZN3isc4dhcp5Lease17fromElementCommonERKN5boost10shared_ptrIS1_EERKNS3_IKNS_4data7ElementEEE
libkea-dhcpsrv.so.90:_ZN3isc4dhcp5Lease25syncCurrentExpirationTimeERKS1_RS1_
libkea-dhcpsrv.so.90:_ZN3isc4dhcp5Lease27updateCurrentExpirationTimeEv
libkea-dhcpsrv.so.90:_ZN3isc4dhcp5LeaseC1ERKNS_8asiolink9IOAddressEjjlbbRKNSt7__cxx1112basic_stringIcSt11char_traitsIcESaIcEEERKN5boost10shared_ptrINS0_6HWAddrEEE
libkea-dhcpsrv.so.90:_ZN3isc4dhcp5LeaseC2ERKNS_8asiolink9IOAddressEjjlbbRKNSt7__cxx1112basic_stringIcSt11char_traitsIcESaIcEEERKN5boost10shared_ptrINS0_6HWAddrEEE
libkea-dhcpsrv.so.90:_ZN3isc4dhcp5Pool46createERKNS_8asiolink9IOAddressES5_
libkea-dhcpsrv.so.90:_ZN3isc4dhcp5Pool46createERKNS_8asiolink9IOAddressEh
libkea-dhcpsrv.so.90:_ZN3isc4dhcp5Pool4C1ERKNS_8asiolink9IOAddressES5_
libkea-dhcpsrv.so.90:_ZN3isc4dhcp5Pool4C1ERKNS_8asiolink9IOAddressEh
libkea-dhcpsrv.so.90:_ZN3isc4dhcp5Pool4C2ERKNS_8asiolink9IOAddressES5_
libkea-dhcpsrv.so.90:_ZN3isc4dhcp5Pool4C2ERKNS_8asiolink9IOAddressEh
libkea-dhcpsrv.so.90:_ZN3isc4dhcp5Pool64initERKNS0_5Lease4TypeERKNS_8asiolink9IOAddressEhhS9_h
libkea-dhcpsrv.so.90:_ZN3isc4dhcp5Pool66createENS0_5Lease4TypeERKNS_8asiolink9IOAddressES7_
libkea-dhcpsrv.so.90:_ZN3isc4dhcp5Pool66createENS0_5Lease4TypeERKNS_8asiolink9IOAddressEhh
libkea-dhcpsrv.so.90:_ZN3isc4dhcp5Pool66createERKNS_8asiolink9IOAddressEhhS5_h
libkea-dhcpsrv.so.90:_ZN3isc4dhcp5Pool6C1ENS0_5Lease4TypeERKNS_8asiolink9IOAddressES7_
libkea-dhcpsrv.so.90:_ZN3isc4dhcp5Pool6C1ENS0_5Lease4TypeERKNS_8asiolink9IOAddressEhh
libkea-dhcpsrv.so.90:_ZN3isc4dhcp5Pool6C1ERKNS_8asiolink9IOAddressEhhS5_h
libkea-dhcpsrv.so.90:_ZN3isc4dhcp5Pool6C2ENS0_5Lease4TypeERKNS_8asiolink9IOAddressES7_
libkea-dhcpsrv.so.90:_ZN3isc4dhcp5Pool6C2ENS0_5Lease4TypeERKNS_8asiolink9IOAddressEhh
libkea-dhcpsrv.so.90:_ZN3isc4dhcp5Pool6C2ERKNS_8asiolink9IOAddressEhhS5_h
libkea-dhcpsrv.so.90:_ZN3isc4dhcp6CfgMgr10setDataDirERKNSt7__cxx1112basic_stringIcSt11char_traitsIcESaIcEEEb
libkea-dhcpsrv.so.90:_ZN3isc4dhcp6CfgMgr11ddnsEnabledEv
libkea-dhcpsrv.so.90:_ZN3isc4dhcp6CfgMgr12mergeIntoCfgERKN5boost10shared_ptrINS0_9SrvConfigEEEj
libkea-dhcpsrv.so.90:_ZN3isc4dhcp6CfgMgr13getCurrentCfgEv
libkea-dhcpsrv.so.90:_ZN3isc4dhcp6CfgMgr13getStagingCfgEv
libkea-dhcpsrv.so.90:_ZN3isc4dhcp6CfgMgr14getD2ClientMgrEv
libkea-dhcpsrv.so.90:_ZN3isc4dhcp6CfgMgr17createExternalCfgEv
libkea-dhcpsrv.so.90:_ZN3isc4dhcp6CfgMgr17setD2ClientConfigERN5boost10shared_ptrINS0_14D2ClientConfigEEE
libkea-dhcpsrv.so.90:_ZN3isc4dhcp6CfgMgr19mergeIntoCurrentCfgEj
libkea-dhcpsrv.so.90:_ZN3isc4dhcp6CfgMgr19mergeIntoStagingCfgEj
libkea-dhcpsrv.so.90:_ZN3isc4dhcp6CfgMgr22ensureCurrentAllocatedEv
libkea-dhcpsrv.so.90:_ZN3isc4dhcp6CfgMgr5clearEv
libkea-dhcpsrv.so.90:_ZN3isc4dhcp6CfgMgr6commitEv
libkea-dhcpsrv.so.90:_ZN3isc4dhcp6CfgMgr6revertEm
libkea-dhcpsrv.so.90:_ZN3isc4dhcp6CfgMgr8instanceEv
libkea-dhcpsrv.so.90:_ZN3isc4dhcp6CfgMgr8rollbackEv
libkea-dhcpsrv.so.90:_ZN3isc4dhcp6CfgMgrC1Ev
libkea-dhcpsrv.so.90:_ZN3isc4dhcp6CfgMgrC2Ev
libkea-dhcpsrv.so.90:_ZN3isc4dhcp6CfgMgrD0Ev
libkea-dhcpsrv.so.90:_ZN3isc4dhcp6CfgMgrD1Ev
libkea-dhcpsrv.so.90:_ZN3isc4dhcp6CfgMgrD2Ev
libkea-dhcpsrv.so.90:_ZN3isc4dhcp6Lease411fromElementERKN5boost10shared_ptrIKNS_4data7ElementEEE
libkea-dhcpsrv.so.90:_ZN3isc4dhcp6Lease412statesToTextB5cxx11Ej
libkea-dhcpsrv.so.90:_ZN3isc4dhcp6Lease47declineEj
libkea-dhcpsrv.so.90:_ZN3isc4dhcp6Lease4C1ERKNS_8asiolink9IOAddressERKN5boost10shared_ptrINS0_6HWAddrEEERKNS7_INS0_8ClientIdEEEjljbbRKNSt7__cxx1112basic_stringIcSt11char_traitsIcESaIcEEE
libkea-dhcpsrv.so.90:_ZN3isc4dhcp6Lease4C1Ev
libkea-dhcpsrv.so.90:_ZN3isc4dhcp6Lease4C2ERKNS_8asiolink9IOAddressERKN5boost10shared_ptrINS0_6HWAddrEEERKNS7_INS0_8ClientIdEEEjljbbRKNSt7__cxx1112basic_stringIcSt11char_traitsIcESaIcEEE
libkea-dhcpsrv.so.90:_ZN3isc4dhcp6Lease4C2Ev
libkea-dhcpsrv.so.90:_ZN3isc4dhcp6Lease611fromElementERKN5boost10shared_ptrIKNS_4data7ElementEEE
libkea-dhcpsrv.so.90:_ZN3isc4dhcp6Lease612statesToTextB5cxx11Ej
libkea-dhcpsrv.so.90:_ZN3isc4dhcp6Lease67declineEj
libkea-dhcpsrv.so.90:_ZN3isc4dhcp6Lease6C1ENS0_5Lease4TypeERKNS_8asiolink9IOAddressEN5boost10shared_ptrINS0_4DUIDEEEjjjjRKNS9_INS0_6HWAddrEEEh
libkea-dhcpsrv.so.90:_ZN3isc4dhcp6Lease6C1ENS0_5Lease4TypeERKNS_8asiolink9IOAddressEN5boost10shared_ptrINS0_4DUIDEEEjjjjbbRKNSt7__cxx1112basic_stringIcSt11char_traitsIcESaIcEEERKNS9_INS0_6HWAddrEEEh
libkea-dhcpsrv.so.90:_ZN3isc4dhcp6Lease6C1Ev
libkea-dhcpsrv.so.90:_ZN3isc4dhcp6Lease6C2ENS0_5Lease4TypeERKNS_8asiolink9IOAddressEN5boost10shared_ptrINS0_4DUIDEEEjjjjRKNS9_INS0_6HWAddrEEEh
libkea-dhcpsrv.so.90:_ZN3isc4dhcp6Lease6C2ENS0_5Lease4TypeERKNS_8asiolink9IOAddressEN5boost10shared_ptrINS0_4DUIDEEEjjjjbbRKNSt7__cxx1112basic_stringIcSt11char_traitsIcESaIcEEERKNS9_INS0_6HWAddrEEEh
libkea-dhcpsrv.so.90:_ZN3isc4dhcp6Lease6C2Ev
libkea-dhcpsrv.so.90:_ZN3isc4dhcp6Subnet12setAllocatorENS0_5Lease4TypeERKN5boost10shared_ptrINS0_9AllocatorEEE
libkea-dhcpsrv.so.90:_ZN3isc4dhcp6Subnet16getPoolsWritableENS0_5Lease4TypeE
libkea-dhcpsrv.so.90:_ZN3isc4dhcp6Subnet17parsePrefixCommonERKNSt7__cxx1112basic_stringIcSt11char_traitsIcESaIcEEE
libkea-dhcpsrv.so.90:_ZN3isc4dhcp6Subnet18setAllocationStateENS0_5Lease4TypeERKN5boost10shared_ptrINS0_21SubnetAllocationStateEEE
libkea-dhcpsrv.so.90:_ZN3isc4dhcp6Subnet28initAllocatorsAfterConfigureEv
libkea-dhcpsrv.so.90:_ZN3isc4dhcp6Subnet7addPoolERKN5boost10shared_ptrINS0_4PoolEEE
libkea-dhcpsrv.so.90:_ZN3isc4dhcp6Subnet8delPoolsENS0_5Lease4TypeE
libkea-dhcpsrv.so.90:_ZN3isc4dhcp6SubnetC1ERKNS_8asiolink9IOAddressEhj
libkea-dhcpsrv.so.90:_ZN3isc4dhcp6SubnetC2ERKNS_8asiolink9IOAddressEhj
libkea-dhcpsrv.so.90:_ZN3isc4dhcp7AuthKey10setAuthKeyERKNSt7__cxx1112basic_stringIcSt11char_traitsIcESaIcEEE
libkea-dhcpsrv.so.90:_ZN3isc4dhcp7AuthKey10setAuthKeyERKSt6vectorIhSaIhEE
libkea-dhcpsrv.so.90:_ZN3isc4dhcp7AuthKey18getRandomKeyStringEv
libkea-dhcpsrv.so.90:_ZN3isc4dhcp7AuthKeyC1ERKNSt7__cxx1112basic_stringIcSt11char_traitsIcESaIcEEE
libkea-dhcpsrv.so.90:_ZN3isc4dhcp7AuthKeyC1ERKSt6vectorIhSaIhEE
libkea-dhcpsrv.so.90:_ZN3isc4dhcp7AuthKeyC1Ev
libkea-dhcpsrv.so.90:_ZN3isc4dhcp7AuthKeyC2ERKNSt7__cxx1112basic_stringIcSt11char_traitsIcESaIcEEE
libkea-dhcpsrv.so.90:_ZN3isc4dhcp7AuthKeyC2ERKSt6vectorIhSaIhEE
libkea-dhcpsrv.so.90:_ZN3isc4dhcp7AuthKeyC2Ev
libkea-dhcpsrv.so.90:_ZN3isc4dhcp7CfgDUID13setIdentifierERKNSt7__cxx1112basic_stringIcSt11char_traitsIcESaIcEEE
libkea-dhcpsrv.so.90:_ZN3isc4dhcp7CfgDUID6createERKNSt7__cxx1112basic_stringIcSt11char_traitsIcESaIcEEE
libkea-dhcpsrv.so.90:_ZN3isc4dhcp7CfgDUIDC1Ev
libkea-dhcpsrv.so.90:_ZN3isc4dhcp7CfgDUIDC2Ev
libkea-dhcpsrv.so.90:_ZN3isc4dhcp7CfgRSOO5clearEv
libkea-dhcpsrv.so.90:_ZN3isc4dhcp7CfgRSOO6enableEt
libkea-dhcpsrv.so.90:_ZN3isc4dhcp7CfgRSOOC1Ev
libkea-dhcpsrv.so.90:_ZN3isc4dhcp7CfgRSOOC2Ev
libkea-dhcpsrv.so.90:_ZN3isc4dhcp7HostMgr10addBackendERKNSt7__cxx1112basic_stringIcSt11char_traitsIcESaIcEEE
libkea-dhcpsrv.so.90:_ZN3isc4dhcp7HostMgr10delBackendERKNSt7__cxx1112basic_stringIcSt11char_traitsIcESaIcEEE
libkea-dhcpsrv.so.90:_ZN3isc4dhcp7HostMgr10delBackendERKNSt7__cxx1112basic_stringIcSt11char_traitsIcESaIcEEES9_b
libkea-dhcpsrv.so.90:_ZN3isc4dhcp7HostMgr13getHostMgrPtrEv
libkea-dhcpsrv.so.90:_ZN3isc4dhcp7HostMgr14delAllBackendsEv
libkea-dhcpsrv.so.90:_ZN3isc4dhcp7HostMgr17checkCacheBackendEb
libkea-dhcpsrv.so.90:_ZN3isc4dhcp7HostMgr23setIPReservationsUniqueEb
libkea-dhcpsrv.so.90:_ZN3isc4dhcp7HostMgr3addERKN5boost10shared_ptrINS0_4HostEEE
libkea-dhcpsrv.so.90:_ZN3isc4dhcp7HostMgr3addERKN5boost10shared_ptrINS0_4HostEEENS0_22HostMgrOperationTargetE
libkea-dhcpsrv.so.90:_ZN3isc4dhcp7HostMgr3delERKjRKNS_8asiolink9IOAddressE
libkea-dhcpsrv.so.90:_ZN3isc4dhcp7HostMgr3delERKjRKNS_8asiolink9IOAddressENS0_22HostMgrOperationTargetE
libkea-dhcpsrv.so.90:_ZN3isc4dhcp7HostMgr4del4ERKjRKNS0_4Host14IdentifierTypeEPKhm
libkea-dhcpsrv.so.90:_ZN3isc4dhcp7HostMgr4del4ERKjRKNS0_4Host14IdentifierTypeEPKhmNS0_22HostMgrOperationTargetE
libkea-dhcpsrv.so.90:_ZN3isc4dhcp7HostMgr4del6ERKjRKNS0_4Host14IdentifierTypeEPKhm
libkea-dhcpsrv.so.90:_ZN3isc4dhcp7HostMgr4del6ERKjRKNS0_4Host14IdentifierTypeEPKhmNS0_22HostMgrOperationTargetE
libkea-dhcpsrv.so.90:_ZN3isc4dhcp7HostMgr6createEv
libkea-dhcpsrv.so.90:_ZN3isc4dhcp7HostMgr6updateERKN5boost10shared_ptrINS0_4HostEEE
libkea-dhcpsrv.so.90:_ZN3isc4dhcp7HostMgr6updateERKN5boost10shared_ptrINS0_4HostEEENS0_22HostMgrOperationTargetE
libkea-dhcpsrv.so.90:_ZN3isc4dhcp7HostMgr8instanceEv
libkea-dhcpsrv.so.90:_ZN3isc4dhcp7Network15addRelayAddressERKNS_8asiolink9IOAddressE
libkea-dhcpsrv.so.90:_ZN3isc4dhcp7Network16allowClientClassERKNSt7__cxx1112basic_stringIcSt11char_traitsIcESaIcEEE
libkea-dhcpsrv.so.90:_ZN3isc4dhcp7Network18requireClientClassERKNSt7__cxx1112basic_stringIcSt11char_traitsIcESaIcEEE
libkea-dhcpsrv.so.90:_ZN3isc4dhcp7Network9RelayInfo10addAddressERKNS_8asiolink9IOAddressE
libkea-dhcpsrv.so.90:_ZN3isc4dhcp7Subnet411parsePrefixERKNSt7__cxx1112basic_stringIcSt11char_traitsIcESaIcEEE
libkea-dhcpsrv.so.90:_ZN3isc4dhcp7Subnet416createAllocatorsEv
libkea-dhcpsrv.so.90:_ZN3isc4dhcp7Subnet46createERKNS_8asiolink9IOAddressEhRKNS_4util7TripletIjEESA_SA_j
libkea-dhcpsrv.so.90:_ZN3isc4dhcp7Subnet4C1ERKNS_8asiolink9IOAddressEhRKNS_4util7TripletIjEESA_SA_j
libkea-dhcpsrv.so.90:_ZN3isc4dhcp7Subnet4C2ERKNS_8asiolink9IOAddressEhRKNS_4util7TripletIjEESA_SA_j
libkea-dhcpsrv.so.90:_ZN3isc4dhcp7Subnet611parsePrefixERKNSt7__cxx1112basic_stringIcSt11char_traitsIcESaIcEEE
libkea-dhcpsrv.so.90:_ZN3isc4dhcp7Subnet616createAllocatorsEv
libkea-dhcpsrv.so.90:_ZN3isc4dhcp7Subnet66createERKNS_8asiolink9IOAddressEhRKNS_4util7TripletIjEESA_SA_SA_j
libkea-dhcpsrv.so.90:_ZN3isc4dhcp7Subnet6C1ERKNS_8asiolink9IOAddressEhRKNS_4util7TripletIjEESA_SA_SA_j
libkea-dhcpsrv.so.90:_ZN3isc4dhcp7Subnet6C2ERKNS_8asiolink9IOAddressEhRKNS_4util7TripletIjEESA_SA_SA_j
libkea-dhcpsrv.so.90:_ZN3isc4dhcp8CfgHosts16getAllbyHostnameERKNSt7__cxx1112basic_stringIcSt11char_traitsIcESaIcEEE
libkea-dhcpsrv.so.90:_ZN3isc4dhcp8CfgHosts17getAllbyHostname4ERKNSt7__cxx1112basic_stringIcSt11char_traitsIcESaIcEEERKj
libkea-dhcpsrv.so.90:_ZN3isc4dhcp8CfgHosts17getAllbyHostname6ERKNSt7__cxx1112basic_stringIcSt11char_traitsIcESaIcEEERKj
libkea-dhcpsrv.so.90:_ZN3isc4dhcp8CfgHosts23setIPReservationsUniqueEb
libkea-dhcpsrv.so.90:_ZN3isc4dhcp8CfgHosts3addERKN5boost10shared_ptrINS0_4HostEEE
libkea-dhcpsrv.so.90:_ZN3isc4dhcp8CfgHosts3delERKjRKNS_8asiolink9IOAddressE
libkea-dhcpsrv.so.90:_ZN3isc4dhcp8CfgHosts4add4ERKN5boost10shared_ptrINS0_4HostEEE
libkea-dhcpsrv.so.90:_ZN3isc4dhcp8CfgHosts4add6ERKN5boost10shared_ptrINS0_4HostEEE
libkea-dhcpsrv.so.90:_ZN3isc4dhcp8CfgHosts4del4ERKjRKNS0_4Host14IdentifierTypeEPKhm
libkea-dhcpsrv.so.90:_ZN3isc4dhcp8CfgHosts4del6ERKjRKNS0_4Host14IdentifierTypeEPKhm
libkea-dhcpsrv.so.90:_ZN3isc4dhcp8CfgHosts4get4ERKjRKNS0_4Host14IdentifierTypeEPKhm
libkea-dhcpsrv.so.90:_ZN3isc4dhcp8CfgHosts4get6ERKNS_8asiolink9IOAddressEh
libkea-dhcpsrv.so.90:_ZN3isc4dhcp8CfgHosts4get6ERKjRKNS0_4Host14IdentifierTypeEPKhm
libkea-dhcpsrv.so.90:_ZN3isc4dhcp8CfgHosts4get6ERKjRKNS_8asiolink9IOAddressE
libkea-dhcpsrv.so.90:_ZN3isc4dhcp8CfgHosts6getAllERKNS0_4Host14IdentifierTypeEPKhm
libkea-dhcpsrv.so.90:_ZN3isc4dhcp8CfgHosts7delAll4ERKj
libkea-dhcpsrv.so.90:_ZN3isc4dhcp8CfgHosts7delAll6ERKj
libkea-dhcpsrv.so.90:_ZN3isc4dhcp8CfgHosts7getAll4ERKNS_8asiolink9IOAddressE
libkea-dhcpsrv.so.90:_ZN3isc4dhcp8CfgHosts7getAll4ERKj
libkea-dhcpsrv.so.90:_ZN3isc4dhcp8CfgHosts7getAll6ERKNS_8asiolink9IOAddressE
libkea-dhcpsrv.so.90:_ZN3isc4dhcp8CfgHosts7getAll6ERKj
libkea-dhcpsrv.so.90:_ZN3isc4dhcp8CfgHosts8getPage4ERKjRmmRKNS0_12HostPageSizeE
libkea-dhcpsrv.so.90:_ZN3isc4dhcp8CfgHosts8getPage4ERmmRKNS0_12HostPageSizeE
libkea-dhcpsrv.so.90:_ZN3isc4dhcp8CfgHosts8getPage6ERKjRmmRKNS0_12HostPageSizeE
libkea-dhcpsrv.so.90:_ZN3isc4dhcp8CfgHosts8getPage6ERmmRKNS0_12HostPageSizeE
libkea-dhcpsrv.so.90:_ZN3isc4dhcp8CfgIface11openSocketsEttb
libkea-dhcpsrv.so.90:_ZN3isc4dhcp8CfgIface13useSocketTypeEtRKNS1_10SocketTypeE
libkea-dhcpsrv.so.90:_ZN3isc4dhcp8CfgIface13useSocketTypeEtRKNSt7__cxx1112basic_stringIcSt11char_traitsIcESaIcEEE
libkea-dhcpsrv.so.90:_ZN3isc4dhcp8CfgIface16setOutboundIfaceERKNS1_13OutboundIfaceE
libkea-dhcpsrv.so.90:_ZN3isc4dhcp8CfgIface19textToOutboundIfaceERKNSt7__cxx1112basic_stringIcSt11char_traitsIcESaIcEEE
libkea-dhcpsrv.so.90:_ZN3isc4dhcp8CfgIface20openSocketsForFamilyEttbb
libkea-dhcpsrv.so.90:_ZN3isc4dhcp8CfgIface20openSocketsWithRetryEN5boost10shared_ptrINS_4util12ReconnectCtlEEEttb
libkea-dhcpsrv.so.90:_ZN3isc4dhcp8CfgIface22socketOpenErrorHandlerERKNSt7__cxx1112basic_stringIcSt11char_traitsIcESaIcEEE
libkea-dhcpsrv.so.90:_ZN3isc4dhcp8CfgIface35multipleAddressesPerInterfaceActiveEv
libkea-dhcpsrv.so.90:_ZN3isc4dhcp8CfgIface3useEtRKNSt7__cxx1112basic_stringIcSt11char_traitsIcESaIcEEE
libkea-dhcpsrv.so.90:_ZN3isc4dhcp8CfgIface5resetEv
libkea-dhcpsrv.so.90:_ZN3isc4dhcp8CfgIfaceC1Ev
libkea-dhcpsrv.so.90:_ZN3isc4dhcp8CfgIfaceC2Ev
libkea-dhcpsrv.so.90:_ZN3isc4dhcp8LFCSetup5setupEjRKN5boost10shared_ptrINS0_13CSVLeaseFile4EEERKNS3_INS0_13CSVLeaseFile6EEEb
libkea-dhcpsrv.so.90:_ZN3isc4dhcp8LFCSetup7executeEv
libkea-dhcpsrv.so.90:_ZN3isc4dhcp8LFCSetupC1ESt8functionIFvvEE
libkea-dhcpsrv.so.90:_ZN3isc4dhcp8LFCSetupC2ESt8functionIFvvEE
libkea-dhcpsrv.so.90:_ZN3isc4dhcp8LFCSetupD1Ev
libkea-dhcpsrv.so.90:_ZN3isc4dhcp8LFCSetupD2Ev
libkea-dhcpsrv.so.90:_ZN3isc4dhcp8LeaseMgr12getDBVersionB5cxx11Ev
libkea-dhcpsrv.so.90:_ZN3isc4dhcp8LeaseMgr16addExtendedInfo6ERKN5boost10shared_ptrINS0_6Lease6EEE
libkea-dhcpsrv.so.90:_ZN3isc4dhcp8LeaseMgr18recountLeaseStats4Ev
libkea-dhcpsrv.so.90:_ZN3isc4dhcp8LeaseMgr18recountLeaseStats6Ev
libkea-dhcpsrv.so.90:_ZN3isc4dhcp8LeaseMgr21startLeaseStatsQuery4Ev
libkea-dhcpsrv.so.90:_ZN3isc4dhcp8LeaseMgr21startLeaseStatsQuery6Ev
libkea-dhcpsrv.so.90:_ZN3isc4dhcp8LeaseMgr25extractLease4ExtendedInfoERKN5boost10shared_ptrINS0_6Lease4EEEb
libkea-dhcpsrv.so.90:_ZN3isc4dhcp8LeaseMgr25startPoolLeaseStatsQuery4Ev
libkea-dhcpsrv.so.90:_ZN3isc4dhcp8LeaseMgr25startPoolLeaseStatsQuery6Ev
libkea-dhcpsrv.so.90:_ZN3isc4dhcp8LeaseMgr25upgradeLease4ExtendedInfoERKN5boost10shared_ptrINS0_6Lease4EEENS0_14CfgConsistency18ExtendedInfoSanityE
libkea-dhcpsrv.so.90:_ZN3isc4dhcp8LeaseMgr25upgradeLease6ExtendedInfoERKN5boost10shared_ptrINS0_6Lease6EEENS0_14CfgConsistency18ExtendedInfoSanityE
libkea-dhcpsrv.so.90:_ZN3isc4dhcp8LeaseMgr27startSubnetLeaseStatsQuery4ERKj
libkea-dhcpsrv.so.90:_ZN3isc4dhcp8LeaseMgr27startSubnetLeaseStatsQuery6ERKj
libkea-dhcpsrv.so.90:_ZN3isc4dhcp8LeaseMgr28setExtendedInfoTablesEnabledERKSt3mapINSt7__cxx1112basic_stringIcSt11char_traitsIcESaIcEEES8_St4lessIS8_ESaISt4pairIKS8_S8_EEE
libkea-dhcpsrv.so.90:_ZN3isc4dhcp8LeaseMgr32startSubnetRangeLeaseStatsQuery4ERKjS3_
libkea-dhcpsrv.so.90:_ZN3isc4dhcp8LeaseMgr32startSubnetRangeLeaseStatsQuery6ERKjS3_
libkea-dhcpsrv.so.90:_ZN3isc4dhcp8Network411setFilenameERKNS_4util8OptionalINSt7__cxx1112basic_stringIcSt11char_traitsIcESaIcEEEEE
libkea-dhcpsrv.so.90:_ZN3isc4dhcp8Network48setSnameERKNS_4util8OptionalINSt7__cxx1112basic_stringIcSt11char_traitsIcESaIcEEEEE
libkea-dhcpsrv.so.90:_ZN3isc4dhcp8Network49setSiaddrERKNS_4util8OptionalINS_8asiolink9IOAddressEEE
libkea-dhcpsrv.so.90:_ZN3isc4dhcp8TimerMgr12setIOServiceERKN5boost10shared_ptrINS_8asiolink9IOServiceEEE
libkea-dhcpsrv.so.90:_ZN3isc4dhcp8TimerMgr13registerTimerERKNSt7__cxx1112basic_stringIcSt11char_traitsIcESaIcEEERKSt8functionIFvvEElRKNS_8asiolink13IntervalTimer4ModeE
libkea-dhcpsrv.so.90:_ZN3isc4dhcp8TimerMgr15unregisterTimerERKNSt7__cxx1112basic_stringIcSt11char_traitsIcESaIcEEE
libkea-dhcpsrv.so.90:_ZN3isc4dhcp8TimerMgr16unregisterTimersEv
libkea-dhcpsrv.so.90:_ZN3isc4dhcp8TimerMgr17isTimerRegisteredERKNSt7__cxx1112basic_stringIcSt11char_traitsIcESaIcEEE
libkea-dhcpsrv.so.90:_ZN3isc4dhcp8TimerMgr5setupERKNSt7__cxx1112basic_stringIcSt11char_traitsIcESaIcEEE
libkea-dhcpsrv.so.90:_ZN3isc4dhcp8TimerMgr6cancelERKNSt7__cxx1112basic_stringIcSt11char_traitsIcESaIcEEE
libkea-dhcpsrv.so.90:_ZN3isc4dhcp8TimerMgr8instanceEv
libkea-dhcpsrv.so.90:_ZN3isc4dhcp8TimerMgrC1Ev
libkea-dhcpsrv.so.90:_ZN3isc4dhcp8TimerMgrC2Ev
libkea-dhcpsrv.so.90:_ZN3isc4dhcp8TimerMgrD1Ev
libkea-dhcpsrv.so.90:_ZN3isc4dhcp8TimerMgrD2Ev
libkea-dhcpsrv.so.90:_ZN3isc4dhcp8queueNCRERKNS_9dhcp_ddns14NameChangeTypeERKN5boost10shared_ptrINS0_6Lease4EEE
libkea-dhcpsrv.so.90:_ZN3isc4dhcp8queueNCRERKNS_9dhcp_ddns14NameChangeTypeERKN5boost10shared_ptrINS0_6Lease6EEE
libkea-dhcpsrv.so.90:_ZN3isc4dhcp9Allocator17isValidPrefixPoolENS1_18PrefixLenMatchTypeEN5boost10shared_ptrINS0_4PoolEEEh
libkea-dhcpsrv.so.90:_ZN3isc4dhcp9Allocator18initAfterConfigureEv
libkea-dhcpsrv.so.90:_ZN3isc4dhcp9AllocatorC1ENS0_5Lease4TypeERKN5boost8weak_ptrINS0_6SubnetEEE
libkea-dhcpsrv.so.90:_ZN3isc4dhcp9AllocatorC2ENS0_5Lease4TypeERKN5boost8weak_ptrINS0_6SubnetEEE
libkea-dhcpsrv.so.90:_ZN3isc4dhcp9AllocatorD0Ev
libkea-dhcpsrv.so.90:_ZN3isc4dhcp9AllocatorD1Ev
libkea-dhcpsrv.so.90:_ZN3isc4dhcp9AllocatorD2Ev
libkea-dhcpsrv.so.90:_ZN3isc4dhcp9CfgOption11encapsulateEv
libkea-dhcpsrv.so.90:_ZN3isc4dhcp9CfgOption13createOptionsEN5boost10shared_ptrINS0_12CfgOptionDefEEE
libkea-dhcpsrv.so.90:_ZN3isc4dhcp9CfgOption19encapsulateInternalERKN5boost10shared_ptrINS0_6OptionEEE
libkea-dhcpsrv.so.90:_ZN3isc4dhcp9CfgOption19encapsulateInternalERKNSt7__cxx1112basic_stringIcSt11char_traitsIcESaIcEEE
libkea-dhcpsrv.so.90:_ZN3isc4dhcp9CfgOption22createDescriptorOptionEN5boost10shared_ptrINS0_12CfgOptionDefEEERKNSt7__cxx1112basic_stringIcSt11char_traitsIcESaIcEEERNS0_16OptionDescriptorE
libkea-dhcpsrv.so.90:_ZN3isc4dhcp9CfgOption3addERKN5boost10shared_ptrINS0_6OptionEEEbbRKNSt7__cxx1112basic_stringIcSt11char_traitsIcESaIcEEEm
libkea-dhcpsrv.so.90:_ZN3isc4dhcp9CfgOption3addERKNS0_16OptionDescriptorERKNSt7__cxx1112basic_stringIcSt11char_traitsIcESaIcEEE
libkea-dhcpsrv.so.90:_ZN3isc4dhcp9CfgOption3delERKNSt7__cxx1112basic_stringIcSt11char_traitsIcESaIcEEEt
libkea-dhcpsrv.so.90:_ZN3isc4dhcp9CfgOption3delEjt
libkea-dhcpsrv.so.90:_ZN3isc4dhcp9CfgOption3delEm
libkea-dhcpsrv.so.90:_ZN3isc4dhcp9CfgOption5mergeEN5boost10shared_ptrINS0_12CfgOptionDefEEERS1_
libkea-dhcpsrv.so.90:_ZN3isc4dhcp9CfgOption7replaceERKNS0_16OptionDescriptorERKNSt7__cxx1112basic_stringIcSt11char_traitsIcESaIcEEE
libkea-dhcpsrv.so.90:_ZN3isc4dhcp9CfgOptionC1Ev
libkea-dhcpsrv.so.90:_ZN3isc4dhcp9CfgOptionC2Ev
libkea-dhcpsrv.so.90:_ZN3isc4dhcp9IPv6Resrv3setERKNS1_4TypeERKNS_8asiolink9IOAddressEh
libkea-dhcpsrv.so.90:_ZN3isc4dhcp9IPv6ResrvC1ERKNS1_4TypeERKNS_8asiolink9IOAddressEh
libkea-dhcpsrv.so.90:_ZN3isc4dhcp9IPv6ResrvC2ERKNS1_4TypeERKNS_8asiolink9IOAddressEh
libkea-dhcpsrv.so.90:_ZN3isc4dhcp9SrvConfig12mergeGlobalsERS1_
libkea-dhcpsrv.so.90:_ZN3isc4dhcp9SrvConfig14moveDdnsParamsEN5boost10shared_ptrINS_4data7ElementEEE
libkea-dhcpsrv.so.90:_ZN3isc4dhcp9SrvConfig14sequenceEqualsERKS1_
libkea-dhcpsrv.so.90:_ZN3isc4dhcp9SrvConfig16removeStatisticsEv
libkea-dhcpsrv.so.90:_ZN3isc4dhcp9SrvConfig16updateStatisticsEv
libkea-dhcpsrv.so.90:_ZN3isc4dhcp9SrvConfig23setIPReservationsUniqueEb
libkea-dhcpsrv.so.90:_ZN3isc4dhcp9SrvConfig24extractConfiguredGlobalsEN5boost10shared_ptrIKNS_4data7ElementEEE
libkea-dhcpsrv.so.90:_ZN3isc4dhcp9SrvConfig30applyDefaultsConfiguredGlobalsERKSt6vectorINS_4data13SimpleDefaultESaIS4_EE
libkea-dhcpsrv.so.90:_ZN3isc4dhcp9SrvConfig5mergeERNS_7process10ConfigBaseE
libkea-dhcpsrv.so.90:_ZN3isc4dhcp9SrvConfig6merge4ERS1_
libkea-dhcpsrv.so.90:_ZN3isc4dhcp9SrvConfig6merge6ERS1_
libkea-dhcpsrv.so.90:_ZN3isc4dhcp9SrvConfigC1Ej
libkea-dhcpsrv.so.90:_ZN3isc4dhcp9SrvConfigC1Ev
libkea-dhcpsrv.so.90:_ZN3isc4dhcp9SrvConfigC2Ej
libkea-dhcpsrv.so.90:_ZN3isc4dhcp9SrvConfigC2Ev
libkea-dhcpsrv.so.90:_ZN3isc4dhcplsERSoRKNS0_14ClientClassDefE
libkea-dhcpsrv.so.90:_ZN3isc4dhcplsERSoRKNS0_14D2ClientConfigE
libkea-dhcpsrv.so.90:_ZN3isc4dhcplsERSoRKNS0_5LeaseE
libkea-dhcpsrv.so.90:_ZN5boost6detail8function15functor_managerINS_9algorithm6detail13token_finderFINS4_10is_any_ofFIcEEEEE6manageERKNS1_15function_bufferERSA_NS1_30functor_manager_operation_typeE
libkea-dhcpsrv.so.90:_ZN5boost6detail8function21function_obj_invoker2INS_9algorithm6detail13token_finderFINS4_10is_any_ofFIcEEEENS_14iterator_rangeIN9__gnu_cxx17__normal_iteratorIPcNSt7__cxx1112basic_stringIcSt11char_traitsIcESaIcEEEEEEESJ_SJ_E6invokeERNS1_15function_bufferESJ_SJ_
libkea-dhcpsrv.so.90:_ZNK3isc4dhcp10CfgGlobals3getERKNSt7__cxx1112basic_stringIcSt11char_traitsIcESaIcEEE
libkea-dhcpsrv.so.90:_ZNK3isc4dhcp10CfgGlobals3getEi
libkea-dhcpsrv.so.90:_ZNK3isc4dhcp10CfgGlobals9toElementEv
libkea-dhcpsrv.so.90:_ZNK3isc4dhcp10CfgGlobals9valuesMapB5cxx11Ev
libkea-dhcpsrv.so.90:_ZNK3isc4dhcp10DdnsParams13getTtlPercentEv
libkea-dhcpsrv.so.90:_ZNK3isc4dhcp10DdnsParams16getEnableUpdatesEv
libkea-dhcpsrv.so.90:_ZNK3isc4dhcp10DdnsParams16getUpdateOnRenewEv
libkea-dhcpsrv.so.90:_ZNK3isc4dhcp10DdnsParams18getGeneratedPrefixB5cxx11Ev
libkea-dhcpsrv.so.90:_ZNK3isc4dhcp10DdnsParams18getHostnameCharSetB5cxx11Ev
libkea-dhcpsrv.so.90:_ZNK3isc4dhcp10DdnsParams19getOverrideNoUpdateEv
libkea-dhcpsrv.so.90:_ZNK3isc4dhcp10DdnsParams19getQualifyingSuffixB5cxx11Ev
libkea-dhcpsrv.so.90:_ZNK3isc4dhcp10DdnsParams20getHostnameSanitizerEv
libkea-dhcpsrv.so.90:_ZNK3isc4dhcp10DdnsParams23getOverrideClientUpdateEv
libkea-dhcpsrv.so.90:_ZNK3isc4dhcp10DdnsParams24getReplaceClientNameModeEv
libkea-dhcpsrv.so.90:_ZNK3isc4dhcp10DdnsParams24getUseConflictResolutionEv
libkea-dhcpsrv.so.90:_ZNK3isc4dhcp10DdnsParams26getHostnameCharReplacementB5cxx11Ev
libkea-dhcpsrv.so.90:_ZNK3isc4dhcp10PoolParser26createOptionDataListParserEt
libkea-dhcpsrv.so.90:_ZNK3isc4dhcp11AllocEngine14ClientContext410globalHostEv
libkea-dhcpsrv.so.90:_ZNK3isc4dhcp11AllocEngine14ClientContext411currentHostEv
libkea-dhcpsrv.so.90:_ZNK3isc4dhcp11AllocEngine14ClientContext610globalHostEv
libkea-dhcpsrv.so.90:_ZNK3isc4dhcp11AllocEngine14ClientContext611currentHostEv
libkea-dhcpsrv.so.90:_ZNK3isc4dhcp11AllocEngine14ClientContext611isAllocatedERKNS_8asiolink9IOAddressEh
libkea-dhcpsrv.so.90:_ZNK3isc4dhcp11AllocEngine14ClientContext620hasGlobalReservationERKNS0_9IPv6ResrvE
libkea-dhcpsrv.so.90:_ZNK3isc4dhcp11AllocEngine14ClientContext69IAContext13isNewResourceERKNS_8asiolink9IOAddressEh
libkea-dhcpsrv.so.90:_ZNK3isc4dhcp11AllocEngine16setLeaseReusableERKN5boost10shared_ptrINS0_6Lease4EEERKNS1_14ClientContext4E
libkea-dhcpsrv.so.90:_ZNK3isc4dhcp11AllocEngine16setLeaseReusableERKN5boost10shared_ptrINS0_6Lease6EEEjRKNS1_14ClientContext6E
libkea-dhcpsrv.so.90:_ZNK3isc4dhcp11AllocEngine23updateLease4InformationERKN5boost10shared_ptrINS0_6Lease4EEERNS1_14ClientContext4E
libkea-dhcpsrv.so.90:_ZNK3isc4dhcp11AllocEngine24updateLease4ExtendedInfoERKN5boost10shared_ptrINS0_6Lease4EEERKNS1_14ClientContext4E
libkea-dhcpsrv.so.90:_ZNK3isc4dhcp11AllocEngine24updateLease6ExtendedInfoERKN5boost10shared_ptrINS0_6Lease6EEERKNS1_14ClientContext6E
libkea-dhcpsrv.so.90:_ZNK3isc4dhcp11AllocEngine26clearReclaimedExtendedInfoERKN5boost10shared_ptrINS0_6Lease4EEE
libkea-dhcpsrv.so.90:_ZNK3isc4dhcp11AllocEngine26clearReclaimedExtendedInfoERKN5boost10shared_ptrINS0_6Lease6EEE
libkea-dhcpsrv.so.90:_ZNK3isc4dhcp11CfgDbAccess14createManagersEv
libkea-dhcpsrv.so.90:_ZNK3isc4dhcp11CfgDbAccess15getAccessStringERKNSt7__cxx1112basic_stringIcSt11char_traitsIcESaIcEEE
libkea-dhcpsrv.so.90:_ZNK3isc4dhcp11CfgDbAccess21getHostDbAccessStringB5cxx11Ev
libkea-dhcpsrv.so.90:_ZNK3isc4dhcp11CfgDbAccess22getLeaseDbAccessStringB5cxx11Ev
libkea-dhcpsrv.so.90:_ZNK3isc4dhcp11CfgDbAccess25getHostDbAccessStringListB5cxx11Ev
libkea-dhcpsrv.so.90:_ZNK3isc4dhcp11CfgSubnets411getByPrefixERKNSt7__cxx1112basic_stringIcSt11char_traitsIcESaIcEEE
libkea-dhcpsrv.so.90:_ZNK3isc4dhcp11CfgSubnets412selectSubnetERKNS0_14SubnetSelectorE
libkea-dhcpsrv.so.90:_ZNK3isc4dhcp11CfgSubnets412selectSubnetERKNS_8asiolink9IOAddressERKNS0_13ClientClassesE
libkea-dhcpsrv.so.90:_ZNK3isc4dhcp11CfgSubnets412selectSubnetERKNSt7__cxx1112basic_stringIcSt11char_traitsIcESaIcEEERKNS0_13ClientClassesE
libkea-dhcpsrv.so.90:_ZNK3isc4dhcp11CfgSubnets413getBySubnetIdERKj
libkea-dhcpsrv.so.90:_ZNK3isc4dhcp11CfgSubnets415selectSubnet4o6ERKNS0_14SubnetSelectorE
libkea-dhcpsrv.so.90:_ZNK3isc4dhcp11CfgSubnets421hasSubnetWithServerIdERKNS_8asiolink9IOAddressE
libkea-dhcpsrv.so.90:_ZNK3isc4dhcp11CfgSubnets48getLinksERKNS_8asiolink9IOAddressERh
libkea-dhcpsrv.so.90:_ZNK3isc4dhcp11CfgSubnets49getSubnetEj
libkea-dhcpsrv.so.90:_ZNK3isc4dhcp11CfgSubnets49toElementEv
libkea-dhcpsrv.so.90:_ZNK3isc4dhcp11CfgSubnets611getByPrefixERKNSt7__cxx1112basic_stringIcSt11char_traitsIcESaIcEEE
libkea-dhcpsrv.so.90:_ZNK3isc4dhcp11CfgSubnets612selectSubnetERKN5boost10shared_ptrINS0_6OptionEEERKNS0_13ClientClassesE
libkea-dhcpsrv.so.90:_ZNK3isc4dhcp11CfgSubnets612selectSubnetERKNS0_14SubnetSelectorE
libkea-dhcpsrv.so.90:_ZNK3isc4dhcp11CfgSubnets612selectSubnetERKNS_8asiolink9IOAddressERKNS0_13ClientClassesEb
libkea-dhcpsrv.so.90:_ZNK3isc4dhcp11CfgSubnets612selectSubnetERKNSt7__cxx1112basic_stringIcSt11char_traitsIcESaIcEEERKNS0_13ClientClassesE
libkea-dhcpsrv.so.90:_ZNK3isc4dhcp11CfgSubnets613getBySubnetIdERKj
libkea-dhcpsrv.so.90:_ZNK3isc4dhcp11CfgSubnets68getLinksERKNS_8asiolink9IOAddressERh
libkea-dhcpsrv.so.90:_ZNK3isc4dhcp11CfgSubnets69getSubnetEj
libkea-dhcpsrv.so.90:_ZNK3isc4dhcp11CfgSubnets69toElementEv
libkea-dhcpsrv.so.90:_ZNK3isc4dhcp11D2ClientMgr11analyzeFqdnEbbRbS2_RKNS0_10DdnsParamsE
libkea-dhcpsrv.so.90:_ZNK3isc4dhcp11D2ClientMgr11qualifyNameERKNSt7__cxx1112basic_stringIcSt11char_traitsIcESaIcEEERKNS0_10DdnsParamsEb
libkea-dhcpsrv.so.90:_ZNK3isc4dhcp11D2ClientMgr12generateFqdnB5cxx11ERKNS_8asiolink9IOAddressERKNS0_10DdnsParamsEb
libkea-dhcpsrv.so.90:_ZNK3isc4dhcp11D2ClientMgr12getQueueSizeEv
libkea-dhcpsrv.so.90:_ZNK3isc4dhcp11D2ClientMgr15getQueueMaxSizeEv
libkea-dhcpsrv.so.90:_ZNK3isc4dhcp11D2ClientMgr17getD2ClientConfigEv
libkea-dhcpsrv.so.90:_ZNK3isc4dhcp11D2ClientMgr6peekAtEm
libkea-dhcpsrv.so.90:_ZNK3isc4dhcp11D2ClientMgr9amSendingEv
libkea-dhcpsrv.so.90:_ZNK3isc4dhcp12CfgHostsList11externalizeEv
libkea-dhcpsrv.so.90:_ZNK3isc4dhcp12CfgHostsList3getEj
libkea-dhcpsrv.so.90:_ZNK3isc4dhcp12CfgMACSource9toElementEv
libkea-dhcpsrv.so.90:_ZNK3isc4dhcp12CfgOptionDef21toElementWithMetadataEb
libkea-dhcpsrv.so.90:_ZNK3isc4dhcp12CfgOptionDef3getERKNSt7__cxx1112basic_stringIcSt11char_traitsIcESaIcEEES9_
libkea-dhcpsrv.so.90:_ZNK3isc4dhcp12CfgOptionDef3getERKNSt7__cxx1112basic_stringIcSt11char_traitsIcESaIcEEEt
libkea-dhcpsrv.so.90:_ZNK3isc4dhcp12CfgOptionDef6copyToERS1_
libkea-dhcpsrv.so.90:_ZNK3isc4dhcp12CfgOptionDef6equalsERKS1_
libkea-dhcpsrv.so.90:_ZNK3isc4dhcp12CfgOptionDef6getAllERKNSt7__cxx1112basic_stringIcSt11char_traitsIcESaIcEEE
libkea-dhcpsrv.so.90:_ZNK3isc4dhcp12CfgOptionDef9toElementEv
libkea-dhcpsrv.so.90:_ZNK3isc4dhcp12NetworkState16isServiceEnabledEv
libkea-dhcpsrv.so.90:_ZNK3isc4dhcp12NetworkState18isDelayedEnableAllEv
libkea-dhcpsrv.so.90:_ZNK3isc4dhcp12PdPoolParser26createOptionDataListParserEv
libkea-dhcpsrv.so.90:_ZNK3isc4dhcp12TimerMgrImpl11timersCountEv
libkea-dhcpsrv.so.90:_ZNK3isc4dhcp13CfgExpiration10rangeCheckElmRKNSt7__cxx1112basic_stringIcSt11char_traitsIcESaIcEEE
libkea-dhcpsrv.so.90:_ZNK3isc4dhcp13CfgExpiration9toElementEv
libkea-dhcpsrv.so.90:_ZNK3isc4dhcp14CfgConsistency9toElementEv
libkea-dhcpsrv.so.90:_ZNK3isc4dhcp14ClientClassDef11getRequiredEv
libkea-dhcpsrv.so.90:_ZNK3isc4dhcp14ClientClassDef12getCfgOptionEv
libkea-dhcpsrv.so.90:_ZNK3isc4dhcp14ClientClassDef12getMatchExprEv
libkea-dhcpsrv.so.90:_ZNK3isc4dhcp14ClientClassDef13dependOnClassERKNSt7__cxx1112basic_stringIcSt11char_traitsIcESaIcEEE
libkea-dhcpsrv.so.90:_ZNK3isc4dhcp14ClientClassDef15getCfgOptionDefEv
libkea-dhcpsrv.so.90:_ZNK3isc4dhcp14ClientClassDef16getDependOnKnownEv
libkea-dhcpsrv.so.90:_ZNK3isc4dhcp14ClientClassDef6equalsERKS1_
libkea-dhcpsrv.so.90:_ZNK3isc4dhcp14ClientClassDef7getNameB5cxx11Ev
libkea-dhcpsrv.so.90:_ZNK3isc4dhcp14ClientClassDef7getTestB5cxx11Ev
libkea-dhcpsrv.so.90:_ZNK3isc4dhcp14ClientClassDef9toElementEv
libkea-dhcpsrv.so.90:_ZNK3isc4dhcp14D2ClientConfig6toTextB5cxx11Ev
libkea-dhcpsrv.so.90:_ZNK3isc4dhcp14D2ClientConfig9toElementEv
libkea-dhcpsrv.so.90:_ZNK3isc4dhcp14D2ClientConfigeqERKS1_
libkea-dhcpsrv.so.90:_ZNK3isc4dhcp14D2ClientConfigneERKS1_
libkea-dhcpsrv.so.90:_ZNK3isc4dhcp14SharedNetwork413getNextSubnetERKN5boost10shared_ptrINS0_7Subnet4EEERKj
libkea-dhcpsrv.so.90:_ZNK3isc4dhcp14SharedNetwork418getPreferredSubnetERKN5boost10shared_ptrINS0_7Subnet4EEE
libkea-dhcpsrv.so.90:_ZNK3isc4dhcp14SharedNetwork49getSubnetERKNSt7__cxx1112basic_stringIcSt11char_traitsIcESaIcEEE
libkea-dhcpsrv.so.90:_ZNK3isc4dhcp14SharedNetwork49getSubnetERKj
libkea-dhcpsrv.so.90:_ZNK3isc4dhcp14SharedNetwork49toElementEv
libkea-dhcpsrv.so.90:_ZNK3isc4dhcp14SharedNetwork613getNextSubnetERKN5boost10shared_ptrINS0_7Subnet6EEERKj
libkea-dhcpsrv.so.90:_ZNK3isc4dhcp14SharedNetwork618getPreferredSubnetERKN5boost10shared_ptrINS0_7Subnet6EEERKNS0_5Lease4TypeE
libkea-dhcpsrv.so.90:_ZNK3isc4dhcp14SharedNetwork69getSubnetERKNSt7__cxx1112basic_stringIcSt11char_traitsIcESaIcEEE
libkea-dhcpsrv.so.90:_ZNK3isc4dhcp14SharedNetwork69getSubnetERKj
libkea-dhcpsrv.so.90:_ZNK3isc4dhcp14SharedNetwork69toElementEv
libkea-dhcpsrv.so.90:_ZNK3isc4dhcp15RandomAllocator12getPoolStateERKN5boost10shared_ptrINS0_4PoolEEE
libkea-dhcpsrv.so.90:_ZNK3isc4dhcp16Memfile_LeaseMgr10getLeases4ERKNS_8asiolink9IOAddressERKNS0_13LeasePageSizeE
libkea-dhcpsrv.so.90:_ZNK3isc4dhcp16Memfile_LeaseMgr10getLeases4ERKNSt7__cxx1112basic_stringIcSt11char_traitsIcESaIcEEE
libkea-dhcpsrv.so.90:_ZNK3isc4dhcp16Memfile_LeaseMgr10getLeases4Ej
libkea-dhcpsrv.so.90:_ZNK3isc4dhcp16Memfile_LeaseMgr10getLeases4Ev
libkea-dhcpsrv.so.90:_ZNK3isc4dhcp16Memfile_LeaseMgr10getLeases6ENS0_5Lease4TypeERKNS0_4DUIDEj
libkea-dhcpsrv.so.90:_ZNK3isc4dhcp16Memfile_LeaseMgr10getLeases6ENS0_5Lease4TypeERKNS0_4DUIDEjj
libkea-dhcpsrv.so.90:_ZNK3isc4dhcp16Memfile_LeaseMgr10getLeases6ERKNS0_4DUIDE
libkea-dhcpsrv.so.90:_ZNK3isc4dhcp16Memfile_LeaseMgr10getLeases6ERKNS_8asiolink9IOAddressERKNS0_13LeasePageSizeE
libkea-dhcpsrv.so.90:_ZNK3isc4dhcp16Memfile_LeaseMgr10getLeases6ERKNSt7__cxx1112basic_stringIcSt11char_traitsIcESaIcEEE
libkea-dhcpsrv.so.90:_ZNK3isc4dhcp16Memfile_LeaseMgr10getLeases6Ej
libkea-dhcpsrv.so.90:_ZNK3isc4dhcp16Memfile_LeaseMgr10getLeases6Ev
libkea-dhcpsrv.so.90:_ZNK3isc4dhcp16Memfile_LeaseMgr10getVersionEv
libkea-dhcpsrv.so.90:_ZNK3isc4dhcp16Memfile_LeaseMgr12checkLimits4B5cxx11ERKN5boost10shared_ptrIKNS_4data7ElementEEE
libkea-dhcpsrv.so.90:_ZNK3isc4dhcp16Memfile_LeaseMgr12checkLimits6B5cxx11ERKN5boost10shared_ptrIKNS_4data7ElementEEE
libkea-dhcpsrv.so.90:_ZNK3isc4dhcp16Memfile_LeaseMgr12isLFCRunningEv
libkea-dhcpsrv.so.90:_ZNK3isc4dhcp16Memfile_LeaseMgr13getLeaseLimitEN5boost10shared_ptrIKNS_4data7ElementEEENS0_5Lease4TypeERm
libkea-dhcpsrv.so.90:_ZNK3isc4dhcp16Memfile_LeaseMgr13getSubnetStatERKjRKNSt7__cxx1112basic_stringIcSt11char_traitsIcESaIcEEE
libkea-dhcpsrv.so.90:_ZNK3isc4dhcp16Memfile_LeaseMgr13persistLeasesENS1_8UniverseE
libkea-dhcpsrv.so.90:_ZNK3isc4dhcp16Memfile_LeaseMgr14getDescriptionB5cxx11Ev
libkea-dhcpsrv.so.90:_ZNK3isc4dhcp16Memfile_LeaseMgr15isJsonSupportedEv
libkea-dhcpsrv.so.90:_ZNK3isc4dhcp16Memfile_LeaseMgr16getLFCExitStatusEv
libkea-dhcpsrv.so.90:_ZNK3isc4dhcp16Memfile_LeaseMgr16getLeaseFilePathB5cxx11ENS1_8UniverseE
libkea-dhcpsrv.so.90:_ZNK3isc4dhcp16Memfile_LeaseMgr17getExpiredLeases4ERSt6vectorIN5boost10shared_ptrINS0_6Lease4EEESaIS6_EEm
libkea-dhcpsrv.so.90:_ZNK3isc4dhcp16Memfile_LeaseMgr17getExpiredLeases6ERSt6vectorIN5boost10shared_ptrINS0_6Lease6EEESaIS6_EEm
libkea-dhcpsrv.so.90:_ZNK3isc4dhcp16Memfile_LeaseMgr17getLease4InternalERKNS0_6HWAddrERSt6vectorIN5boost10shared_ptrINS0_6Lease4EEESaIS9_EE
libkea-dhcpsrv.so.90:_ZNK3isc4dhcp16Memfile_LeaseMgr17getLease4InternalERKNS0_6HWAddrEj
libkea-dhcpsrv.so.90:_ZNK3isc4dhcp16Memfile_LeaseMgr17getLease4InternalERKNS0_8ClientIdERSt6vectorIN5boost10shared_ptrINS0_6Lease4EEESaIS9_EE
libkea-dhcpsrv.so.90:_ZNK3isc4dhcp16Memfile_LeaseMgr17getLease4InternalERKNS0_8ClientIdEj
libkea-dhcpsrv.so.90:_ZNK3isc4dhcp16Memfile_LeaseMgr17getLease4InternalERKNS_8asiolink9IOAddressE
libkea-dhcpsrv.so.90:_ZNK3isc4dhcp16Memfile_LeaseMgr17getLease6InternalENS0_5Lease4TypeERKNS_8asiolink9IOAddressE
libkea-dhcpsrv.so.90:_ZNK3isc4dhcp16Memfile_LeaseMgr18getClassLeaseCountERKNSt7__cxx1112basic_stringIcSt11char_traitsIcESaIcEEERKNS0_5Lease4TypeE
libkea-dhcpsrv.so.90:_ZNK3isc4dhcp16Memfile_LeaseMgr18getLeases4InternalERKNS_8asiolink9IOAddressERKNS0_13LeasePageSizeERSt6vectorIN5boost10shared_ptrINS0_6Lease4EEESaISD_EE
libkea-dhcpsrv.so.90:_ZNK3isc4dhcp16Memfile_LeaseMgr18getLeases4InternalERKNSt7__cxx1112basic_stringIcSt11char_traitsIcESaIcEEERSt6vectorIN5boost10shared_ptrINS0_6Lease4EEESaISE_EE
libkea-dhcpsrv.so.90:_ZNK3isc4dhcp16Memfile_LeaseMgr18getLeases4InternalERSt6vectorIN5boost10shared_ptrINS0_6Lease4EEESaIS6_EE
libkea-dhcpsrv.so.90:_ZNK3isc4dhcp16Memfile_LeaseMgr18getLeases4InternalEjRSt6vectorIN5boost10shared_ptrINS0_6Lease4EEESaIS6_EE
libkea-dhcpsrv.so.90:_ZNK3isc4dhcp16Memfile_LeaseMgr18getLeases6InternalENS0_5Lease4TypeERKNS0_4DUIDEjRSt6vectorIN5boost10shared_ptrINS0_6Lease6EEESaISB_EE
libkea-dhcpsrv.so.90:_ZNK3isc4dhcp16Memfile_LeaseMgr18getLeases6InternalENS0_5Lease4TypeERKNS0_4DUIDEjjRSt6vectorIN5boost10shared_ptrINS0_6Lease6EEESaISB_EE
libkea-dhcpsrv.so.90:_ZNK3isc4dhcp16Memfile_LeaseMgr18getLeases6InternalERKNS0_4DUIDERSt6vectorIN5boost10shared_ptrINS0_6Lease6EEESaIS9_EE
libkea-dhcpsrv.so.90:_ZNK3isc4dhcp16Memfile_LeaseMgr18getLeases6InternalERKNS_8asiolink9IOAddressERKNS0_13LeasePageSizeERSt6vectorIN5boost10shared_ptrINS0_6Lease6EEESaISD_EE
libkea-dhcpsrv.so.90:_ZNK3isc4dhcp16Memfile_LeaseMgr18getLeases6InternalERKNSt7__cxx1112basic_stringIcSt11char_traitsIcESaIcEEERSt6vectorIN5boost10shared_ptrINS0_6Lease6EEESaISE_EE
libkea-dhcpsrv.so.90:_ZNK3isc4dhcp16Memfile_LeaseMgr18getLeases6InternalERSt6vectorIN5boost10shared_ptrINS0_6Lease6EEESaIS6_EE
libkea-dhcpsrv.so.90:_ZNK3isc4dhcp16Memfile_LeaseMgr18getLeases6InternalEjRSt6vectorIN5boost10shared_ptrINS0_6Lease6EEESaIS6_EE
libkea-dhcpsrv.so.90:_ZNK3isc4dhcp16Memfile_LeaseMgr20getAnyLease6InternalERKNS_8asiolink9IOAddressE
libkea-dhcpsrv.so.90:_ZNK3isc4dhcp16Memfile_LeaseMgr23getDefaultLeaseFilePathB5cxx11ENS1_8UniverseE
libkea-dhcpsrv.so.90:_ZNK3isc4dhcp16Memfile_LeaseMgr25getExpiredLeases4InternalERSt6vectorIN5boost10shared_ptrINS0_6Lease4EEESaIS6_EEm
libkea-dhcpsrv.so.90:_ZNK3isc4dhcp16Memfile_LeaseMgr25getExpiredLeases6InternalERSt6vectorIN5boost10shared_ptrINS0_6Lease6EEESaIS6_EEm
libkea-dhcpsrv.so.90:_ZNK3isc4dhcp16Memfile_LeaseMgr9getLease4ERKNS0_6HWAddrE
libkea-dhcpsrv.so.90:_ZNK3isc4dhcp16Memfile_LeaseMgr9getLease4ERKNS0_6HWAddrEj
libkea-dhcpsrv.so.90:_ZNK3isc4dhcp16Memfile_LeaseMgr9getLease4ERKNS0_8ClientIdE
libkea-dhcpsrv.so.90:_ZNK3isc4dhcp16Memfile_LeaseMgr9getLease4ERKNS0_8ClientIdEj
libkea-dhcpsrv.so.90:_ZNK3isc4dhcp16Memfile_LeaseMgr9getLease4ERKNS_8asiolink9IOAddressE
libkea-dhcpsrv.so.90:_ZNK3isc4dhcp16Memfile_LeaseMgr9getLease6ENS0_5Lease4TypeERKNS_8asiolink9IOAddressE
libkea-dhcpsrv.so.90:_ZNK3isc4dhcp16OptionDataParser11extractCodeEN5boost10shared_ptrIKNS_4data7ElementEEE
libkea-dhcpsrv.so.90:_ZNK3isc4dhcp16OptionDataParser11extractDataB5cxx11EN5boost10shared_ptrIKNS_4data7ElementEEE
libkea-dhcpsrv.so.90:_ZNK3isc4dhcp16OptionDataParser11extractNameB5cxx11EN5boost10shared_ptrIKNS_4data7ElementEEE
libkea-dhcpsrv.so.90:_ZNK3isc4dhcp16OptionDataParser12extractSpaceB5cxx11EN5boost10shared_ptrIKNS_4data7ElementEEE
libkea-dhcpsrv.so.90:_ZNK3isc4dhcp16OptionDataParser16extractCSVFormatEN5boost10shared_ptrIKNS_4data7ElementEEE
libkea-dhcpsrv.so.90:_ZNK3isc4dhcp16OptionDataParser16extractCancelledEN5boost10shared_ptrIKNS_4data7ElementEEE
libkea-dhcpsrv.so.90:_ZNK3isc4dhcp16OptionDataParser17extractPersistentEN5boost10shared_ptrIKNS_4data7ElementEEE
libkea-dhcpsrv.so.90:_ZNK3isc4dhcp16OptionDataParser20findOptionDefinitionERKNSt7__cxx1112basic_stringIcSt11char_traitsIcESaIcEEERKNS_4util8OptionalIjEERKNSB_IS7_EE
libkea-dhcpsrv.so.90:_ZNK3isc4dhcp16OptionDescriptor6equalsERKS1_
libkea-dhcpsrv.so.90:_ZNK3isc4dhcp16Pools4ListParser22createPoolConfigParserEv
libkea-dhcpsrv.so.90:_ZNK3isc4dhcp16Pools6ListParser22createPoolConfigParserEv
libkea-dhcpsrv.so.90:_ZNK3isc4dhcp16TrackingLeaseMgr12hasCallbacksEv
libkea-dhcpsrv.so.90:_ZNK3isc4dhcp17CfgHostOperations9toElementEv
libkea-dhcpsrv.so.90:_ZNK3isc4dhcp17ClassLeaseCounter13getClassCountERKNSt7__cxx1112basic_stringIcSt11char_traitsIcESaIcEEERKNS0_5Lease4TypeE
libkea-dhcpsrv.so.90:_ZNK3isc4dhcp17PdPoolsListParser24createPdPoolConfigParserEv
libkea-dhcpsrv.so.90:_ZNK3isc4dhcp18CfgSharedNetworks422hasNetworkWithServerIdERKNS_8asiolink9IOAddressE
libkea-dhcpsrv.so.90:_ZNK3isc4dhcp18IterativeAllocator12getPoolStateERKN5boost10shared_ptrINS0_4PoolEEE
libkea-dhcpsrv.so.90:_ZNK3isc4dhcp18IterativeAllocator14getSubnetStateEv
libkea-dhcpsrv.so.90:_ZNK3isc4dhcp18SubnetConfigParser26createOptionDataListParserEv
libkea-dhcpsrv.so.90:_ZNK3isc4dhcp19Subnet4ConfigParser21createPoolsListParserEv
libkea-dhcpsrv.so.90:_ZNK3isc4dhcp19Subnet6ConfigParser21createPoolsListParserEv
libkea-dhcpsrv.so.90:_ZNK3isc4dhcp19Subnet6ConfigParser23createPdPoolsListParserEv
libkea-dhcpsrv.so.90:_ZNK3isc4dhcp20ClientClassDefParser26createOptionDataListParserEtN5boost10shared_ptrINS0_12CfgOptionDefEEE
libkea-dhcpsrv.so.90:_ZNK3isc4dhcp20OptionDataListParser22createOptionDataParserEv
libkea-dhcpsrv.so.90:_ZNK3isc4dhcp20SharedNetwork4Parser23createSubnetsListParserEv
libkea-dhcpsrv.so.90:_ZNK3isc4dhcp20SharedNetwork4Parser26createOptionDataListParserEv
libkea-dhcpsrv.so.90:_ZNK3isc4dhcp20SharedNetwork6Parser23createSubnetsListParserEv
libkea-dhcpsrv.so.90:_ZNK3isc4dhcp20SharedNetwork6Parser26createOptionDataListParserEv
libkea-dhcpsrv.so.90:_ZNK3isc4dhcp21ClientClassDictionary10getClassesEv
libkea-dhcpsrv.so.90:_ZNK3isc4dhcp21ClientClassDictionary13dependOnClassERKNSt7__cxx1112basic_stringIcSt11char_traitsIcESaIcEEERS7_
libkea-dhcpsrv.so.90:_ZNK3isc4dhcp21ClientClassDictionary5emptyEv
libkea-dhcpsrv.so.90:_ZNK3isc4dhcp21ClientClassDictionary6equalsERKS1_
libkea-dhcpsrv.so.90:_ZNK3isc4dhcp21ClientClassDictionary9findClassERKNSt7__cxx1112basic_stringIcSt11char_traitsIcESaIcEEE
libkea-dhcpsrv.so.90:_ZNK3isc4dhcp21ClientClassDictionary9toElementEv
libkea-dhcpsrv.so.90:_ZNK3isc4dhcp21HostReservationParser20isSupportedParameterERKNSt7__cxx1112basic_stringIcSt11char_traitsIcESaIcEEE
libkea-dhcpsrv.so.90:_ZNK3isc4dhcp21HostReservationParser21isIdentifierParameterERKNSt7__cxx1112basic_stringIcSt11char_traitsIcESaIcEEE
libkea-dhcpsrv.so.90:_ZNK3isc4dhcp21SubnetAllocationState20getLastAllocatedTimeEv
libkea-dhcpsrv.so.90:_ZNK3isc4dhcp22HostReservationParser422getSupportedParametersB5cxx11Eb
libkea-dhcpsrv.so.90:_ZNK3isc4dhcp22HostReservationParser622getSupportedParametersB5cxx11Eb
libkea-dhcpsrv.so.90:_ZNK3isc4dhcp22TemplateClientClassDef9toElementEv
libkea-dhcpsrv.so.90:_ZNK3isc4dhcp23ConfigBackendPoolDHCPv410getOption4ERKNS_2db15BackendSelectorERKNS2_14ServerSelectorEtRKNSt7__cxx1112basic_stringIcSt11char_traitsIcESaIcEEE
libkea-dhcpsrv.so.90:_ZNK3isc4dhcp23ConfigBackendPoolDHCPv410getServer4ERKNS_2db15BackendSelectorERKNS_4data9ServerTagE
libkea-dhcpsrv.so.90:_ZNK3isc4dhcp23ConfigBackendPoolDHCPv410getSubnet4ERKNS_2db15BackendSelectorERKNS2_14ServerSelectorERKNSt7__cxx1112basic_stringIcSt11char_traitsIcESaIcEEE
libkea-dhcpsrv.so.90:_ZNK3isc4dhcp23ConfigBackendPoolDHCPv410getSubnet4ERKNS_2db15BackendSelectorERKNS2_14ServerSelectorERKj
libkea-dhcpsrv.so.90:_ZNK3isc4dhcp23ConfigBackendPoolDHCPv413getOptionDef4ERKNS_2db15BackendSelectorERKNS2_14ServerSelectorEtRKNSt7__cxx1112basic_stringIcSt11char_traitsIcESaIcEEE
libkea-dhcpsrv.so.90:_ZNK3isc4dhcp23ConfigBackendPoolDHCPv414getAllOptions4ERKNS_2db15BackendSelectorERKNS2_14ServerSelectorE
libkea-dhcpsrv.so.90:_ZNK3isc4dhcp23ConfigBackendPoolDHCPv414getAllServers4B5cxx11ERKNS_2db15BackendSelectorE
libkea-dhcpsrv.so.90:_ZNK3isc4dhcp23ConfigBackendPoolDHCPv414getAllSubnets4B5cxx11ERKNS_2db15BackendSelectorERKNS2_14ServerSelectorE
libkea-dhcpsrv.so.90:_ZNK3isc4dhcp23ConfigBackendPoolDHCPv415getClientClass4ERKNS_2db15BackendSelectorERKNS2_14ServerSelectorERKNSt7__cxx1112basic_stringIcSt11char_traitsIcESaIcEEE
libkea-dhcpsrv.so.90:_ZNK3isc4dhcp23ConfigBackendPoolDHCPv417getAllOptionDefs4B5cxx11ERKNS_2db15BackendSelectorERKNS2_14ServerSelectorE
libkea-dhcpsrv.so.90:_ZNK3isc4dhcp23ConfigBackendPoolDHCPv417getSharedNetwork4ERKNS_2db15BackendSelectorERKNS2_14ServerSelectorERKNSt7__cxx1112basic_stringIcSt11char_traitsIcESaIcEEE
libkea-dhcpsrv.so.90:_ZNK3isc4dhcp23ConfigBackendPoolDHCPv419getGlobalParameter4ERKNS_2db15BackendSelectorERKNS2_14ServerSelectorERKNSt7__cxx1112basic_stringIcSt11char_traitsIcESaIcEEE
libkea-dhcpsrv.so.90:_ZNK3isc4dhcp23ConfigBackendPoolDHCPv419getModifiedOptions4ERKNS_2db15BackendSelectorERKNS2_14ServerSelectorERKN5boost10posix_time5ptimeE
libkea-dhcpsrv.so.90:_ZNK3isc4dhcp23ConfigBackendPoolDHCPv419getModifiedSubnets4B5cxx11ERKNS_2db15BackendSelectorERKNS2_14ServerSelectorERKN5boost10posix_time5ptimeE
libkea-dhcpsrv.so.90:_ZNK3isc4dhcp23ConfigBackendPoolDHCPv420getAllClientClasses4ERKNS_2db15BackendSelectorERKNS2_14ServerSelectorE
libkea-dhcpsrv.so.90:_ZNK3isc4dhcp23ConfigBackendPoolDHCPv421getAllSharedNetworks4B5cxx11ERKNS_2db15BackendSelectorERKNS2_14ServerSelectorE
libkea-dhcpsrv.so.90:_ZNK3isc4dhcp23ConfigBackendPoolDHCPv421getRecentAuditEntriesB5cxx11ERKNS_2db15BackendSelectorERKNS2_14ServerSelectorERKN5boost10posix_time5ptimeERKm
libkea-dhcpsrv.so.90:_ZNK3isc4dhcp23ConfigBackendPoolDHCPv422getModifiedOptionDefs4B5cxx11ERKNS_2db15BackendSelectorERKNS2_14ServerSelectorERKN5boost10posix_time5ptimeE
libkea-dhcpsrv.so.90:_ZNK3isc4dhcp23ConfigBackendPoolDHCPv423getAllGlobalParameters4B5cxx11ERKNS_2db15BackendSelectorERKNS2_14ServerSelectorE
libkea-dhcpsrv.so.90:_ZNK3isc4dhcp23ConfigBackendPoolDHCPv424getSharedNetworkSubnets4ERKNS_2db15BackendSelectorERKNS2_14ServerSelectorERKNSt7__cxx1112basic_stringIcSt11char_traitsIcESaIcEEE
libkea-dhcpsrv.so.90:_ZNK3isc4dhcp23ConfigBackendPoolDHCPv425getModifiedClientClasses4ERKNS_2db15BackendSelectorERKNS2_14ServerSelectorERKN5boost10posix_time5ptimeE
libkea-dhcpsrv.so.90:_ZNK3isc4dhcp23ConfigBackendPoolDHCPv426getModifiedSharedNetworks4B5cxx11ERKNS_2db15BackendSelectorERKNS2_14ServerSelectorERKN5boost10posix_time5ptimeE
libkea-dhcpsrv.so.90:_ZNK3isc4dhcp23ConfigBackendPoolDHCPv428getModifiedGlobalParameters4B5cxx11ERKNS_2db15BackendSelectorERKNS2_14ServerSelectorERKN5boost10posix_time5ptimeE
libkea-dhcpsrv.so.90:_ZNK3isc4dhcp23ConfigBackendPoolDHCPv610getOption6ERKNS_2db15BackendSelectorERKNS2_14ServerSelectorEtRKNSt7__cxx1112basic_stringIcSt11char_traitsIcESaIcEEE
libkea-dhcpsrv.so.90:_ZNK3isc4dhcp23ConfigBackendPoolDHCPv610getServer6ERKNS_2db15BackendSelectorERKNS_4data9ServerTagE
libkea-dhcpsrv.so.90:_ZNK3isc4dhcp23ConfigBackendPoolDHCPv610getSubnet6ERKNS_2db15BackendSelectorERKNS2_14ServerSelectorERKNSt7__cxx1112basic_stringIcSt11char_traitsIcESaIcEEE
libkea-dhcpsrv.so.90:_ZNK3isc4dhcp23ConfigBackendPoolDHCPv610getSubnet6ERKNS_2db15BackendSelectorERKNS2_14ServerSelectorERKj
libkea-dhcpsrv.so.90:_ZNK3isc4dhcp23ConfigBackendPoolDHCPv613getOptionDef6ERKNS_2db15BackendSelectorERKNS2_14ServerSelectorEtRKNSt7__cxx1112basic_stringIcSt11char_traitsIcESaIcEEE
libkea-dhcpsrv.so.90:_ZNK3isc4dhcp23ConfigBackendPoolDHCPv614getAllOptions6ERKNS_2db15BackendSelectorERKNS2_14ServerSelectorE
libkea-dhcpsrv.so.90:_ZNK3isc4dhcp23ConfigBackendPoolDHCPv614getAllServers6B5cxx11ERKNS_2db15BackendSelectorE
libkea-dhcpsrv.so.90:_ZNK3isc4dhcp23ConfigBackendPoolDHCPv614getAllSubnets6B5cxx11ERKNS_2db15BackendSelectorERKNS2_14ServerSelectorE
libkea-dhcpsrv.so.90:_ZNK3isc4dhcp23ConfigBackendPoolDHCPv615getClientClass6ERKNS_2db15BackendSelectorERKNS2_14ServerSelectorERKNSt7__cxx1112basic_stringIcSt11char_traitsIcESaIcEEE
libkea-dhcpsrv.so.90:_ZNK3isc4dhcp23ConfigBackendPoolDHCPv617getAllOptionDefs6B5cxx11ERKNS_2db15BackendSelectorERKNS2_14ServerSelectorE
libkea-dhcpsrv.so.90:_ZNK3isc4dhcp23ConfigBackendPoolDHCPv617getSharedNetwork6ERKNS_2db15BackendSelectorERKNS2_14ServerSelectorERKNSt7__cxx1112basic_stringIcSt11char_traitsIcESaIcEEE
libkea-dhcpsrv.so.90:_ZNK3isc4dhcp23ConfigBackendPoolDHCPv619getGlobalParameter6ERKNS_2db15BackendSelectorERKNS2_14ServerSelectorERKNSt7__cxx1112basic_stringIcSt11char_traitsIcESaIcEEE
libkea-dhcpsrv.so.90:_ZNK3isc4dhcp23ConfigBackendPoolDHCPv619getModifiedOptions6ERKNS_2db15BackendSelectorERKNS2_14ServerSelectorERKN5boost10posix_time5ptimeE
libkea-dhcpsrv.so.90:_ZNK3isc4dhcp23ConfigBackendPoolDHCPv619getModifiedSubnets6B5cxx11ERKNS_2db15BackendSelectorERKNS2_14ServerSelectorERKN5boost10posix_time5ptimeE
libkea-dhcpsrv.so.90:_ZNK3isc4dhcp23ConfigBackendPoolDHCPv620getAllClientClasses6ERKNS_2db15BackendSelectorERKNS2_14ServerSelectorE
libkea-dhcpsrv.so.90:_ZNK3isc4dhcp23ConfigBackendPoolDHCPv621getAllSharedNetworks6B5cxx11ERKNS_2db15BackendSelectorERKNS2_14ServerSelectorE
libkea-dhcpsrv.so.90:_ZNK3isc4dhcp23ConfigBackendPoolDHCPv621getRecentAuditEntriesB5cxx11ERKNS_2db15BackendSelectorERKNS2_14ServerSelectorERKN5boost10posix_time5ptimeERKm
libkea-dhcpsrv.so.90:_ZNK3isc4dhcp23ConfigBackendPoolDHCPv622getModifiedOptionDefs6B5cxx11ERKNS_2db15BackendSelectorERKNS2_14ServerSelectorERKN5boost10posix_time5ptimeE
libkea-dhcpsrv.so.90:_ZNK3isc4dhcp23ConfigBackendPoolDHCPv623getAllGlobalParameters6B5cxx11ERKNS_2db15BackendSelectorERKNS2_14ServerSelectorE
libkea-dhcpsrv.so.90:_ZNK3isc4dhcp23ConfigBackendPoolDHCPv624getSharedNetworkSubnets6ERKNS_2db15BackendSelectorERKNS2_14ServerSelectorERKNSt7__cxx1112basic_stringIcSt11char_traitsIcESaIcEEE
libkea-dhcpsrv.so.90:_ZNK3isc4dhcp23ConfigBackendPoolDHCPv625getModifiedClientClasses6ERKNS_2db15BackendSelectorERKNS2_14ServerSelectorERKN5boost10posix_time5ptimeE
libkea-dhcpsrv.so.90:_ZNK3isc4dhcp23ConfigBackendPoolDHCPv626getModifiedSharedNetworks6B5cxx11ERKNS_2db15BackendSelectorERKNS2_14ServerSelectorERKN5boost10posix_time5ptimeE
libkea-dhcpsrv.so.90:_ZNK3isc4dhcp23ConfigBackendPoolDHCPv628getModifiedGlobalParameters6B5cxx11ERKNS_2db15BackendSelectorERKNS2_14ServerSelectorERKN5boost10posix_time5ptimeE
libkea-dhcpsrv.so.90:_ZNK3isc4dhcp23FreeLeaseQueueAllocator12getLeasePoolERKN5boost10shared_ptrINS0_5LeaseEEE
libkea-dhcpsrv.so.90:_ZNK3isc4dhcp23FreeLeaseQueueAllocator12getPoolStateERKN5boost10shared_ptrINS0_4PoolEEE
libkea-dhcpsrv.so.90:_ZNK3isc4dhcp24Subnets4ListConfigParser24createSubnetConfigParserEv
libkea-dhcpsrv.so.90:_ZNK3isc4dhcp24Subnets6ListConfigParser24createSubnetConfigParserEv
libkea-dhcpsrv.so.90:_ZNK3isc4dhcp25HostReservationIdsParser421isSupportedIdentifierERKNSt7__cxx1112basic_stringIcSt11char_traitsIcESaIcEEE
libkea-dhcpsrv.so.90:_ZNK3isc4dhcp25HostReservationIdsParser621isSupportedIdentifierERKNSt7__cxx1112basic_stringIcSt11char_traitsIcESaIcEEE
libkea-dhcpsrv.so.90:_ZNK3isc4dhcp30SubnetIterativeAllocationState16getLastAllocatedEv
libkea-dhcpsrv.so.90:_ZNK3isc4dhcp33PoolFreeLeaseQueueAllocationState17getFreeLeaseCountEv
libkea-dhcpsrv.so.90:_ZNK3isc4dhcp33PoolFreeLeaseQueueAllocationState9exhaustedEv
libkea-dhcpsrv.so.90:_ZNK3isc4dhcp4Host10toElement4Ev
libkea-dhcpsrv.so.90:_ZNK3isc4dhcp4Host10toElement6Ev
libkea-dhcpsrv.so.90:_ZNK3isc4dhcp4Host12getHWAddressEv
libkea-dhcpsrv.so.90:_ZNK3isc4dhcp4Host13getIdentifierEv
libkea-dhcpsrv.so.90:_ZNK3isc4dhcp4Host14hasReservationERKNS0_9IPv6ResrvE
libkea-dhcpsrv.so.90:_ZNK3isc4dhcp4Host17getIdentifierTypeEv
libkea-dhcpsrv.so.90:_ZNK3isc4dhcp4Host18encapsulateOptionsEv
libkea-dhcpsrv.so.90:_ZNK3isc4dhcp4Host18hasIPv6ReservationEv
libkea-dhcpsrv.so.90:_ZNK3isc4dhcp4Host19getIPv6ReservationsERKNS0_9IPv6Resrv4TypeE
libkea-dhcpsrv.so.90:_ZNK3isc4dhcp4Host19getIPv6ReservationsEv
libkea-dhcpsrv.so.90:_ZNK3isc4dhcp4Host19getIdentifierAsTextB5cxx11Ev
libkea-dhcpsrv.so.90:_ZNK3isc4dhcp4Host6toTextB5cxx11Ev
libkea-dhcpsrv.so.90:_ZNK3isc4dhcp4Host7getDuidEv
libkea-dhcpsrv.so.90:_ZNK3isc4dhcp4Pool15clientSupportedERKNS0_13ClientClassesE
libkea-dhcpsrv.so.90:_ZNK3isc4dhcp4Pool6toTextB5cxx11Ev
libkea-dhcpsrv.so.90:_ZNK3isc4dhcp4Pool7inRangeERKNS_8asiolink9IOAddressE
libkea-dhcpsrv.so.90:_ZNK3isc4dhcp4Pool9toElementEv
libkea-dhcpsrv.so.90:_ZNK3isc4dhcp5Lease13stateDeclinedEv
libkea-dhcpsrv.so.90:_ZNK3isc4dhcp5Lease15getHWAddrVectorEv
libkea-dhcpsrv.so.90:_ZNK3isc4dhcp5Lease16hasIdenticalFqdnERKS1_
libkea-dhcpsrv.so.90:_ZNK3isc4dhcp5Lease17getExpirationTimeEv
libkea-dhcpsrv.so.90:_ZNK3isc4dhcp5Lease21stateExpiredReclaimedEv
libkea-dhcpsrv.so.90:_ZNK3isc4dhcp5Lease7expiredEv
libkea-dhcpsrv.so.90:_ZNK3isc4dhcp5Pool49toElementEv
libkea-dhcpsrv.so.90:_ZNK3isc4dhcp5Pool66toTextB5cxx11Ev
libkea-dhcpsrv.so.90:_ZNK3isc4dhcp5Pool69toElementEv
libkea-dhcpsrv.so.90:_ZNK3isc4dhcp6Cfg4o69toElementEv
libkea-dhcpsrv.so.90:_ZNK3isc4dhcp6CfgMgr10getDataDirB5cxx11Ev
libkea-dhcpsrv.so.90:_ZNK3isc4dhcp6CfgMgr17getD2ClientConfigEv
libkea-dhcpsrv.so.90:_ZNK3isc4dhcp6Lease415belongsToClientERKN5boost10shared_ptrINS0_6HWAddrEEERKNS3_INS0_8ClientIdEEE
libkea-dhcpsrv.so.90:_ZNK3isc4dhcp6Lease417getClientIdVectorEv
libkea-dhcpsrv.so.90:_ZNK3isc4dhcp6Lease46toTextB5cxx11Ev
libkea-dhcpsrv.so.90:_ZNK3isc4dhcp6Lease49toElementEv
libkea-dhcpsrv.so.90:_ZNK3isc4dhcp6Lease4eqERKS1_
libkea-dhcpsrv.so.90:_ZNK3isc4dhcp6Lease613getDuidVectorEv
libkea-dhcpsrv.so.90:_ZNK3isc4dhcp6Lease66toTextB5cxx11Ev
libkea-dhcpsrv.so.90:_ZNK3isc4dhcp6Lease69toElementEv
libkea-dhcpsrv.so.90:_ZNK3isc4dhcp6Lease6eqERKS1_
libkea-dhcpsrv.so.90:_ZNK3isc4dhcp6Subnet12getAllocatorENS0_5Lease4TypeE
libkea-dhcpsrv.so.90:_ZNK3isc4dhcp6Subnet12poolOverlapsERKNS0_5Lease4TypeERKN5boost10shared_ptrINS0_4PoolEEE
libkea-dhcpsrv.so.90:_ZNK3isc4dhcp6Subnet15getPoolCapacityENS0_5Lease4TypeE
libkea-dhcpsrv.so.90:_ZNK3isc4dhcp6Subnet15getPoolCapacityENS0_5Lease4TypeERKNS0_13ClientClassesE
libkea-dhcpsrv.so.90:_ZNK3isc4dhcp6Subnet15getPoolCapacityENS0_5Lease4TypeERKNS0_13ClientClassesENS0_9Allocator18PrefixLenMatchTypeEh
libkea-dhcpsrv.so.90:_ZNK3isc4dhcp6Subnet15sumPoolCapacityERKSt6vectorIN5boost10shared_ptrINS0_4PoolEEESaIS6_EE
libkea-dhcpsrv.so.90:_ZNK3isc4dhcp6Subnet15sumPoolCapacityERKSt6vectorIN5boost10shared_ptrINS0_4PoolEEESaIS6_EERKNS0_13ClientClassesE
libkea-dhcpsrv.so.90:_ZNK3isc4dhcp6Subnet15sumPoolCapacityERKSt6vectorIN5boost10shared_ptrINS0_4PoolEEESaIS6_EERKNS0_13ClientClassesENS0_9Allocator18PrefixLenMatchTypeEh
libkea-dhcpsrv.so.90:_ZNK3isc4dhcp6Subnet18getAllocationStateENS0_5Lease4TypeE
libkea-dhcpsrv.so.90:_ZNK3isc4dhcp6Subnet6inPoolENS0_5Lease4TypeERKNS_8asiolink9IOAddressE
libkea-dhcpsrv.so.90:_ZNK3isc4dhcp6Subnet6inPoolENS0_5Lease4TypeERKNS_8asiolink9IOAddressERKNS0_13ClientClassesE
libkea-dhcpsrv.so.90:_ZNK3isc4dhcp6Subnet6toTextB5cxx11Ev
libkea-dhcpsrv.so.90:_ZNK3isc4dhcp6Subnet7getPoolENS0_5Lease4TypeERKNS0_13ClientClassesERKNS_8asiolink9IOAddressE
libkea-dhcpsrv.so.90:_ZNK3isc4dhcp6Subnet7getPoolENS0_5Lease4TypeERKNS_8asiolink9IOAddressEb
libkea-dhcpsrv.so.90:_ZNK3isc4dhcp6Subnet7inRangeERKNS_8asiolink9IOAddressE
libkea-dhcpsrv.so.90:_ZNK3isc4dhcp6Subnet8getPoolsENS0_5Lease4TypeE
libkea-dhcpsrv.so.90:_ZNK3isc4dhcp6Subnet9toElementEv
libkea-dhcpsrv.so.90:_ZNK3isc4dhcp7AuthKey6toTextB5cxx11Ev
libkea-dhcpsrv.so.90:_ZNK3isc4dhcp7AuthKeyeqERKS1_
libkea-dhcpsrv.so.90:_ZNK3isc4dhcp7AuthKeyneERKS1_
libkea-dhcpsrv.so.90:_ZNK3isc4dhcp7CfgDUID9toElementEv
libkea-dhcpsrv.so.90:_ZNK3isc4dhcp7CfgRSOO7enabledEt
libkea-dhcpsrv.so.90:_ZNK3isc4dhcp7CfgRSOO9toElementEv
libkea-dhcpsrv.so.90:_ZNK3isc4dhcp7HostMgr13cacheNegativeERKjS3_RKNS0_4Host14IdentifierTypeEPKhm
libkea-dhcpsrv.so.90:_ZNK3isc4dhcp7HostMgr16getAllbyHostnameERKNSt7__cxx1112basic_stringIcSt11char_traitsIcESaIcEEE
libkea-dhcpsrv.so.90:_ZNK3isc4dhcp7HostMgr16getAllbyHostnameERKNSt7__cxx1112basic_stringIcSt11char_traitsIcESaIcEEENS0_22HostMgrOperationTargetE
libkea-dhcpsrv.so.90:_ZNK3isc4dhcp7HostMgr17getAllbyHostname4ERKNSt7__cxx1112basic_stringIcSt11char_traitsIcESaIcEEERKj
libkea-dhcpsrv.so.90:_ZNK3isc4dhcp7HostMgr17getAllbyHostname4ERKNSt7__cxx1112basic_stringIcSt11char_traitsIcESaIcEEERKjNS0_22HostMgrOperationTargetE
libkea-dhcpsrv.so.90:_ZNK3isc4dhcp7HostMgr17getAllbyHostname6ERKNSt7__cxx1112basic_stringIcSt11char_traitsIcESaIcEEERKj
libkea-dhcpsrv.so.90:_ZNK3isc4dhcp7HostMgr17getAllbyHostname6ERKNSt7__cxx1112basic_stringIcSt11char_traitsIcESaIcEEERKjNS0_22HostMgrOperationTargetE
libkea-dhcpsrv.so.90:_ZNK3isc4dhcp7HostMgr17getHostDataSourceEv
libkea-dhcpsrv.so.90:_ZNK3isc4dhcp7HostMgr4get4ERKjRKNS0_4Host14IdentifierTypeEPKhm
libkea-dhcpsrv.so.90:_ZNK3isc4dhcp7HostMgr4get4ERKjRKNS0_4Host14IdentifierTypeEPKhmNS0_22HostMgrOperationTargetE
libkea-dhcpsrv.so.90:_ZNK3isc4dhcp7HostMgr4get4ERKjRKNS_8asiolink9IOAddressE
libkea-dhcpsrv.so.90:_ZNK3isc4dhcp7HostMgr4get4ERKjRKNS_8asiolink9IOAddressENS0_22HostMgrOperationTargetE
libkea-dhcpsrv.so.90:_ZNK3isc4dhcp7HostMgr4get6ERKNS_8asiolink9IOAddressEh
libkea-dhcpsrv.so.90:_ZNK3isc4dhcp7HostMgr4get6ERKNS_8asiolink9IOAddressEhNS0_22HostMgrOperationTargetE
libkea-dhcpsrv.so.90:_ZNK3isc4dhcp7HostMgr4get6ERKjRKNS0_4Host14IdentifierTypeEPKhm
libkea-dhcpsrv.so.90:_ZNK3isc4dhcp7HostMgr4get6ERKjRKNS0_4Host14IdentifierTypeEPKhmNS0_22HostMgrOperationTargetE
libkea-dhcpsrv.so.90:_ZNK3isc4dhcp7HostMgr4get6ERKjRKNS_8asiolink9IOAddressE
libkea-dhcpsrv.so.90:_ZNK3isc4dhcp7HostMgr4get6ERKjRKNS_8asiolink9IOAddressENS0_22HostMgrOperationTargetE
libkea-dhcpsrv.so.90:_ZNK3isc4dhcp7HostMgr5cacheEN5boost10shared_ptrIKNS0_4HostEEE
libkea-dhcpsrv.so.90:_ZNK3isc4dhcp7HostMgr6getAllERKNS0_4Host14IdentifierTypeEPKhm
libkea-dhcpsrv.so.90:_ZNK3isc4dhcp7HostMgr6getAllERKNS0_4Host14IdentifierTypeEPKhmNS0_22HostMgrOperationTargetE
libkea-dhcpsrv.so.90:_ZNK3isc4dhcp7HostMgr7get4AnyERKjRKNS0_4Host14IdentifierTypeEPKhm
libkea-dhcpsrv.so.90:_ZNK3isc4dhcp7HostMgr7get4AnyERKjRKNS0_4Host14IdentifierTypeEPKhmNS0_22HostMgrOperationTargetE
libkea-dhcpsrv.so.90:_ZNK3isc4dhcp7HostMgr7get6AnyERKjRKNS0_4Host14IdentifierTypeEPKhm
libkea-dhcpsrv.so.90:_ZNK3isc4dhcp7HostMgr7get6AnyERKjRKNS0_4Host14IdentifierTypeEPKhmNS0_22HostMgrOperationTargetE
libkea-dhcpsrv.so.90:_ZNK3isc4dhcp7HostMgr7getAll4ERKNS_8asiolink9IOAddressE
libkea-dhcpsrv.so.90:_ZNK3isc4dhcp7HostMgr7getAll4ERKNS_8asiolink9IOAddressENS0_22HostMgrOperationTargetE
libkea-dhcpsrv.so.90:_ZNK3isc4dhcp7HostMgr7getAll4ERKj
libkea-dhcpsrv.so.90:_ZNK3isc4dhcp7HostMgr7getAll4ERKjNS0_22HostMgrOperationTargetE
libkea-dhcpsrv.so.90:_ZNK3isc4dhcp7HostMgr7getAll4ERKjRKNS_8asiolink9IOAddressE
libkea-dhcpsrv.so.90:_ZNK3isc4dhcp7HostMgr7getAll4ERKjRKNS_8asiolink9IOAddressENS0_22HostMgrOperationTargetE
libkea-dhcpsrv.so.90:_ZNK3isc4dhcp7HostMgr7getAll6ERKNS_8asiolink9IOAddressE
libkea-dhcpsrv.so.90:_ZNK3isc4dhcp7HostMgr7getAll6ERKNS_8asiolink9IOAddressENS0_22HostMgrOperationTargetE
libkea-dhcpsrv.so.90:_ZNK3isc4dhcp7HostMgr7getAll6ERKj
libkea-dhcpsrv.so.90:_ZNK3isc4dhcp7HostMgr7getAll6ERKjNS0_22HostMgrOperationTargetE
libkea-dhcpsrv.so.90:_ZNK3isc4dhcp7HostMgr7getAll6ERKjRKNS_8asiolink9IOAddressE
libkea-dhcpsrv.so.90:_ZNK3isc4dhcp7HostMgr7getAll6ERKjRKNS_8asiolink9IOAddressENS0_22HostMgrOperationTargetE
libkea-dhcpsrv.so.90:_ZNK3isc4dhcp7HostMgr8getPage4ERKjRmmRKNS0_12HostPageSizeE
libkea-dhcpsrv.so.90:_ZNK3isc4dhcp7HostMgr8getPage4ERmmRKNS0_12HostPageSizeE
libkea-dhcpsrv.so.90:_ZNK3isc4dhcp7HostMgr8getPage6ERKjRmmRKNS0_12HostPageSizeE
libkea-dhcpsrv.so.90:_ZNK3isc4dhcp7HostMgr8getPage6ERmmRKNS0_12HostPageSizeE
libkea-dhcpsrv.so.90:_ZNK3isc4dhcp7Network14getCacheMaxAgeERKNS1_11InheritanceE
libkea-dhcpsrv.so.90:_ZNK3isc4dhcp7Network14getClientClassB5cxx11ERKNS1_11InheritanceE
libkea-dhcpsrv.so.90:_ZNK3isc4dhcp7Network15clientSupportedERKNS0_13ClientClassesE
libkea-dhcpsrv.so.90:_ZNK3isc4dhcp7Network15hasRelayAddressERKNS_8asiolink9IOAddressE
libkea-dhcpsrv.so.90:_ZNK3isc4dhcp7Network16getAllocatorTypeB5cxx11ERKNS1_11InheritanceE
libkea-dhcpsrv.so.90:_ZNK3isc4dhcp7Network17getCacheThresholdERKNS1_11InheritanceE
libkea-dhcpsrv.so.90:_ZNK3isc4dhcp7Network17getDdnsTtlPercentERKNS1_11InheritanceE
libkea-dhcpsrv.so.90:_ZNK3isc4dhcp7Network17getGlobalPropertyENS_4util8OptionalINS_8asiolink9IOAddressEEEiii
libkea-dhcpsrv.so.90:_ZNK3isc4dhcp7Network17getRelayAddressesEv
libkea-dhcpsrv.so.90:_ZNK3isc4dhcp7Network18getDdnsSendUpdatesERKNS1_11InheritanceE
libkea-dhcpsrv.so.90:_ZNK3isc4dhcp7Network18getHostnameCharSetB5cxx11ERKNS1_11InheritanceE
libkea-dhcpsrv.so.90:_ZNK3isc4dhcp7Network18getRequiredClassesEv
libkea-dhcpsrv.so.90:_ZNK3isc4dhcp7Network20getCalculateTeeTimesERKNS1_11InheritanceE
libkea-dhcpsrv.so.90:_ZNK3isc4dhcp7Network20getDdnsUpdateOnRenewERKNS1_11InheritanceE
libkea-dhcpsrv.so.90:_ZNK3isc4dhcp7Network20getStoreExtendedInfoERKNS1_11InheritanceE
libkea-dhcpsrv.so.90:_ZNK3isc4dhcp7Network21getReservationsGlobalERKNS1_11InheritanceE
libkea-dhcpsrv.so.90:_ZNK3isc4dhcp7Network22getDdnsGeneratedPrefixB5cxx11ERKNS1_11InheritanceE
libkea-dhcpsrv.so.90:_ZNK3isc4dhcp7Network23getDdnsOverrideNoUpdateERKNS1_11InheritanceE
libkea-dhcpsrv.so.90:_ZNK3isc4dhcp7Network23getDdnsQualifyingSuffixB5cxx11ERKNS1_11InheritanceE
libkea-dhcpsrv.so.90:_ZNK3isc4dhcp7Network23getDefaultAllocatorTypeB5cxx11ERKNS1_11InheritanceE
libkea-dhcpsrv.so.90:_ZNK3isc4dhcp7Network23getReservationsInSubnetERKNS1_11InheritanceE
libkea-dhcpsrv.so.90:_ZNK3isc4dhcp7Network24getReservationsOutOfPoolERKNS1_11InheritanceE
libkea-dhcpsrv.so.90:_ZNK3isc4dhcp7Network26getHostnameCharReplacementB5cxx11ERKNS1_11InheritanceE
libkea-dhcpsrv.so.90:_ZNK3isc4dhcp7Network27getDdnsOverrideClientUpdateERKNS1_11InheritanceE
libkea-dhcpsrv.so.90:_ZNK3isc4dhcp7Network28getDdnsReplaceClientNameModeERKNS1_11InheritanceE
libkea-dhcpsrv.so.90:_ZNK3isc4dhcp7Network28getDdnsUseConflictResolutionERKNS1_11InheritanceE
libkea-dhcpsrv.so.90:_ZNK3isc4dhcp7Network5getT1ERKNS1_11InheritanceE
libkea-dhcpsrv.so.90:_ZNK3isc4dhcp7Network5getT2ERKNS1_11InheritanceE
libkea-dhcpsrv.so.90:_ZNK3isc4dhcp7Network8getIfaceB5cxx11ERKNS1_11InheritanceE
libkea-dhcpsrv.so.90:_ZNK3isc4dhcp7Network8getValidERKNS1_11InheritanceE
libkea-dhcpsrv.so.90:_ZNK3isc4dhcp7Network9RelayInfo12getAddressesEv
libkea-dhcpsrv.so.90:_ZNK3isc4dhcp7Network9RelayInfo12hasAddressesEv
libkea-dhcpsrv.so.90:_ZNK3isc4dhcp7Network9RelayInfo15containsAddressERKNS_8asiolink9IOAddressE
libkea-dhcpsrv.so.90:_ZNK3isc4dhcp7Network9hasRelaysEv
libkea-dhcpsrv.so.90:_ZNK3isc4dhcp7Network9toElementEv
libkea-dhcpsrv.so.90:_ZNK3isc4dhcp7Subnet413getNextSubnetERKN5boost10shared_ptrIS1_EE
libkea-dhcpsrv.so.90:_ZNK3isc4dhcp7Subnet413getNextSubnetERKN5boost10shared_ptrIS1_EERKNS0_13ClientClassesE
libkea-dhcpsrv.so.90:_ZNK3isc4dhcp7Subnet415clientSupportedERKNS0_13ClientClassesE
libkea-dhcpsrv.so.90:_ZNK3isc4dhcp7Subnet49checkTypeENS0_5Lease4TypeE
libkea-dhcpsrv.so.90:_ZNK3isc4dhcp7Subnet49toElementEv
libkea-dhcpsrv.so.90:_ZNK3isc4dhcp7Subnet613getNextSubnetERKN5boost10shared_ptrIS1_EE
libkea-dhcpsrv.so.90:_ZNK3isc4dhcp7Subnet613getNextSubnetERKN5boost10shared_ptrIS1_EERKNS0_13ClientClassesE
libkea-dhcpsrv.so.90:_ZNK3isc4dhcp7Subnet615clientSupportedERKNS0_13ClientClassesE
libkea-dhcpsrv.so.90:_ZNK3isc4dhcp7Subnet69checkTypeENS0_5Lease4TypeE
libkea-dhcpsrv.so.90:_ZNK3isc4dhcp7Subnet69toElementEv
libkea-dhcpsrv.so.90:_ZNK3isc4dhcp8CfgHosts10toElement4Ev
libkea-dhcpsrv.so.90:_ZNK3isc4dhcp8CfgHosts10toElement6Ev
libkea-dhcpsrv.so.90:_ZNK3isc4dhcp8CfgHosts15getHostInternalERKjbRKNS0_4Host14IdentifierTypeEPKhm
libkea-dhcpsrv.so.90:_ZNK3isc4dhcp8CfgHosts16getAllbyHostnameERKNSt7__cxx1112basic_stringIcSt11char_traitsIcESaIcEEE
libkea-dhcpsrv.so.90:_ZNK3isc4dhcp8CfgHosts17getAllbyHostname4ERKNSt7__cxx1112basic_stringIcSt11char_traitsIcESaIcEEERKj
libkea-dhcpsrv.so.90:_ZNK3isc4dhcp8CfgHosts17getAllbyHostname6ERKNSt7__cxx1112basic_stringIcSt11char_traitsIcESaIcEEERKj
libkea-dhcpsrv.so.90:_ZNK3isc4dhcp8CfgHosts4get4ERKjRKNS0_4Host14IdentifierTypeEPKhm
libkea-dhcpsrv.so.90:_ZNK3isc4dhcp8CfgHosts4get4ERKjRKNS_8asiolink9IOAddressE
libkea-dhcpsrv.so.90:_ZNK3isc4dhcp8CfgHosts4get6ERKNS_8asiolink9IOAddressEh
libkea-dhcpsrv.so.90:_ZNK3isc4dhcp8CfgHosts4get6ERKjRKNS0_4Host14IdentifierTypeEPKhm
libkea-dhcpsrv.so.90:_ZNK3isc4dhcp8CfgHosts4get6ERKjRKNS_8asiolink9IOAddressE
libkea-dhcpsrv.so.90:_ZNK3isc4dhcp8CfgHosts6getAllERKNS0_4Host14IdentifierTypeEPKhm
libkea-dhcpsrv.so.90:_ZNK3isc4dhcp8CfgHosts7getAll4ERKNS_8asiolink9IOAddressE
libkea-dhcpsrv.so.90:_ZNK3isc4dhcp8CfgHosts7getAll4ERKj
libkea-dhcpsrv.so.90:_ZNK3isc4dhcp8CfgHosts7getAll4ERKjRKNS_8asiolink9IOAddressE
libkea-dhcpsrv.so.90:_ZNK3isc4dhcp8CfgHosts7getAll6ERKNS_8asiolink9IOAddressE
libkea-dhcpsrv.so.90:_ZNK3isc4dhcp8CfgHosts7getAll6ERKj
libkea-dhcpsrv.so.90:_ZNK3isc4dhcp8CfgHosts7getAll6ERKjRKNS_8asiolink9IOAddressE
libkea-dhcpsrv.so.90:_ZNK3isc4dhcp8CfgHosts8getPage4ERKjRmmRKNS0_12HostPageSizeE
libkea-dhcpsrv.so.90:_ZNK3isc4dhcp8CfgHosts8getPage4ERmmRKNS0_12HostPageSizeE
libkea-dhcpsrv.so.90:_ZNK3isc4dhcp8CfgHosts8getPage6ERKjRmmRKNS0_12HostPageSizeE
libkea-dhcpsrv.so.90:_ZNK3isc4dhcp8CfgHosts8getPage6ERmmRKNS0_12HostPageSizeE
libkea-dhcpsrv.so.90:_ZNK3isc4dhcp8CfgHosts9toElementEv
libkea-dhcpsrv.so.90:_ZNK3isc4dhcp8CfgIface12closeSocketsEv
libkea-dhcpsrv.so.90:_ZNK3isc4dhcp8CfgIface16getOutboundIfaceEv
libkea-dhcpsrv.so.90:_ZNK3isc4dhcp8CfgIface16makeReconnectCtlEv
libkea-dhcpsrv.so.90:_ZNK3isc4dhcp8CfgIface16socketTypeToTextB5cxx11Ev
libkea-dhcpsrv.so.90:_ZNK3isc4dhcp8CfgIface16textToSocketTypeERKNSt7__cxx1112basic_stringIcSt11char_traitsIcESaIcEEE
libkea-dhcpsrv.so.90:_ZNK3isc4dhcp8CfgIface18outboundTypeToTextB5cxx11Ev
libkea-dhcpsrv.so.90:_ZNK3isc4dhcp8CfgIface18setIfaceAddrsStateEtbRNS0_5IfaceE
libkea-dhcpsrv.so.90:_ZNK3isc4dhcp8CfgIface6equalsERKS1_
libkea-dhcpsrv.so.90:_ZNK3isc4dhcp8CfgIface8setStateEtbb
libkea-dhcpsrv.so.90:_ZNK3isc4dhcp8CfgIface9toElementEv
libkea-dhcpsrv.so.90:_ZNK3isc4dhcp8LFCSetup13getExitStatusEv
libkea-dhcpsrv.so.90:_ZNK3isc4dhcp8LFCSetup9isRunningEv
libkea-dhcpsrv.so.90:_ZNK3isc4dhcp8LeaseMgr9getLease6ENS0_5Lease4TypeERKNS0_4DUIDEjj
libkea-dhcpsrv.so.90:_ZNK3isc4dhcp8Network411getOfferLftERKNS0_7Network11InheritanceE
libkea-dhcpsrv.so.90:_ZNK3isc4dhcp8Network411getServerIdEv
libkea-dhcpsrv.so.90:_ZNK3isc4dhcp8Network416getMatchClientIdERKNS0_7Network11InheritanceE
libkea-dhcpsrv.so.90:_ZNK3isc4dhcp8Network49toElementEv
libkea-dhcpsrv.so.90:_ZNK3isc4dhcp8Network612getPreferredERKNS0_7Network11InheritanceE
libkea-dhcpsrv.so.90:_ZNK3isc4dhcp8Network614getInterfaceIdERKNS0_7Network11InheritanceE
libkea-dhcpsrv.so.90:_ZNK3isc4dhcp8Network614getRapidCommitERKNS0_7Network11InheritanceE
libkea-dhcpsrv.so.90:_ZNK3isc4dhcp8Network618getPdAllocatorTypeB5cxx11ERKNS0_7Network11InheritanceE
libkea-dhcpsrv.so.90:_ZNK3isc4dhcp8Network625getDefaultPdAllocatorTypeB5cxx11ERKNS0_7Network11InheritanceE
libkea-dhcpsrv.so.90:_ZNK3isc4dhcp8Network69toElementEv
libkea-dhcpsrv.so.90:_ZNK3isc4dhcp8TimerMgr11timersCountEv
libkea-dhcpsrv.so.90:_ZNK3isc4dhcp9CfgOption14getAllCombinedERKNSt7__cxx1112basic_stringIcSt11char_traitsIcESaIcEEE
libkea-dhcpsrv.so.90:_ZNK3isc4dhcp9CfgOption21toElementWithMetadataEb
libkea-dhcpsrv.so.90:_ZNK3isc4dhcp9CfgOption22getVendorIdsSpaceNamesB5cxx11Ev
libkea-dhcpsrv.so.90:_ZNK3isc4dhcp9CfgOption5emptyEv
libkea-dhcpsrv.so.90:_ZNK3isc4dhcp9CfgOption6copyToERS1_
libkea-dhcpsrv.so.90:_ZNK3isc4dhcp9CfgOption6equalsERKS1_
libkea-dhcpsrv.so.90:_ZNK3isc4dhcp9CfgOption6getAllERKNSt7__cxx1112basic_stringIcSt11char_traitsIcESaIcEEE
libkea-dhcpsrv.so.90:_ZNK3isc4dhcp9CfgOption6getAllEj
libkea-dhcpsrv.so.90:_ZNK3isc4dhcp9CfgOption7mergeToERS1_
libkea-dhcpsrv.so.90:_ZNK3isc4dhcp9CfgOption9toElementEv
libkea-dhcpsrv.so.90:_ZNK3isc4dhcp9IPv6Resrv6toTextB5cxx11Ev
libkea-dhcpsrv.so.90:_ZNK3isc4dhcp9IPv6ResrveqERKS1_
libkea-dhcpsrv.so.90:_ZNK3isc4dhcp9IPv6ResrvneERKS1_
libkea-dhcpsrv.so.90:_ZNK3isc4dhcp9SrvConfig13getDdnsParamsERKN5boost10shared_ptrINS0_7Subnet4EEE
libkea-dhcpsrv.so.90:_ZNK3isc4dhcp9SrvConfig13getDdnsParamsERKN5boost10shared_ptrINS0_7Subnet6EEE
libkea-dhcpsrv.so.90:_ZNK3isc4dhcp9SrvConfig16getConfigSummaryB5cxx11Ej
libkea-dhcpsrv.so.90:_ZNK3isc4dhcp9SrvConfig20sanityChecksLifetimeERKNSt7__cxx1112basic_stringIcSt11char_traitsIcESaIcEEE
libkea-dhcpsrv.so.90:_ZNK3isc4dhcp9SrvConfig20sanityChecksLifetimeERKS1_RKNSt7__cxx1112basic_stringIcSt11char_traitsIcESaIcEEE
libkea-dhcpsrv.so.90:_ZNK3isc4dhcp9SrvConfig28configureLowerLevelLibrariesEv
libkea-dhcpsrv.so.90:_ZNK3isc4dhcp9SrvConfig4copyERS1_
libkea-dhcpsrv.so.90:_ZNK3isc4dhcp9SrvConfig6equalsERKS1_
libkea-dhcpsrv.so.90:_ZNK3isc4dhcp9SrvConfig9toElementEv
libkea-dhcpsrv.so.90:_ZNSt17_Function_handlerIFbRKNSt7__cxx1112basic_stringIcSt11char_traitsIcESaIcEEEEPS8_E10_M_managerERSt9_Any_dataRKSB_St18_Manager_operation
libkea-dhcpsrv.so.90:_ZNSt17_Function_handlerIFbRKNSt7__cxx1112basic_stringIcSt11char_traitsIcESaIcEEEEPS8_E9_M_invokeERKSt9_Any_dataS7_
libkea-dhcpsrv.so.90:_ZNSt17_Function_handlerIFvN5boost10shared_ptrIN3isc4dhcp5LeaseEEEESt5_BindIFMNS3_23FreeLeaseQueueAllocatorEFvS5_EPS8_St12_PlaceholderILi1EEEEE10_M_managerERSt9_Any_dataRKSH_St18_Manager_operation
libkea-dhcpsrv.so.90:_ZNSt17_Function_handlerIFvN5boost10shared_ptrIN3isc4dhcp5LeaseEEEESt5_BindIFMNS3_23FreeLeaseQueueAllocatorEFvS5_EPS8_St12_PlaceholderILi1EEEEE9_M_invokeERKSt9_Any_dataOS5_
libkea-dhcpsrv.so.90:_ZNSt17_Function_handlerIFvRKN5boost10shared_ptrIN3isc4dhcp6Lease4EEEESt5_BindIFMNS3_8LeaseMgrEFvS7_EPSA_St12_PlaceholderILi1EEEEE10_M_managerERSt9_Any_dataRKSJ_St18_Manager_operation
libkea-dhcpsrv.so.90:_ZNSt17_Function_handlerIFvRKN5boost10shared_ptrIN3isc4dhcp6Lease4EEEESt5_BindIFMNS3_8LeaseMgrEFvS7_EPSA_St12_PlaceholderILi1EEEEE9_M_invokeERKSt9_Any_dataS7_
libkea-dhcpsrv.so.90:_ZNSt17_Function_handlerIFvRKN5boost10shared_ptrIN3isc4dhcp6Lease6EEEESt5_BindIFMNS3_8LeaseMgrEFvS7_EPSA_St12_PlaceholderILi1EEEEE10_M_managerERSt9_Any_dataRKSJ_St18_Manager_operation
libkea-dhcpsrv.so.90:_ZNSt17_Function_handlerIFvRKN5boost10shared_ptrIN3isc4dhcp6Lease6EEEESt5_BindIFMNS3_8LeaseMgrEFvS7_EPSA_St12_PlaceholderILi1EEEEE9_M_invokeERKSt9_Any_dataS7_
libkea-dhcpsrv.so.90:_ZNSt17_Function_handlerIFviESt5_BindIFMN3isc4dhcp11D2ClientMgrEFvvEPS4_EEE10_M_managerERSt9_Any_dataRKSB_St18_Manager_operation
libkea-dhcpsrv.so.90:_ZNSt17_Function_handlerIFviESt5_BindIFMN3isc4dhcp11D2ClientMgrEFvvEPS4_EEE9_M_invokeERKSt9_Any_dataOi
libkea-dhcpsrv.so.90:_ZNSt17_Function_handlerIFvvESt5_BindIFMN3isc4dhcp12TimerMgrImplEFvRKNSt7__cxx1112basic_stringIcSt11char_traitsIcESaIcEEEEPS4_SA_EEE10_M_managerERSt9_Any_dataRKSJ_St18_Manager_operation
libkea-dhcpsrv.so.90:_ZNSt17_Function_handlerIFvvESt5_BindIFMN3isc4dhcp12TimerMgrImplEFvRKNSt7__cxx1112basic_stringIcSt11char_traitsIcESaIcEEEEPS4_SA_EEE9_M_invokeERKSt9_Any_data
libkea-dhcpsrv.so.90:_ZNSt17_Function_handlerIFvvESt5_BindIFMN3isc4dhcp16Memfile_LeaseMgrEFvvEPS4_EEE10_M_managerERSt9_Any_dataRKSB_St18_Manager_operation
libkea-dhcpsrv.so.90:_ZNSt17_Function_handlerIFvvESt5_BindIFMN3isc4dhcp16Memfile_LeaseMgrEFvvEPS4_EEE9_M_invokeERKSt9_Any_data
libkea-dhcpsrv.so.90:_ZNSt17_Function_handlerIFvvESt5_BindIFMN3isc4dhcp16NetworkStateImplEFvRKNS3_12NetworkState6OriginEEN5boost10shared_ptrIS4_EES6_EEE10_M_managerERSt9_Any_dataRKSH_St18_Manager_operation
libkea-dhcpsrv.so.90:_ZNSt17_Function_handlerIFvvESt5_BindIFMN3isc4dhcp16NetworkStateImplEFvRKNS3_12NetworkState6OriginEEN5boost10shared_ptrIS4_EES6_EEE9_M_invokeERKSt9_Any_data
libkea-dhcpsrv.so.90:_ZNSt17_Function_handlerIFvvESt5_BindIFPFbN5boost10shared_ptrIN3isc4util12ReconnectCtlEEEttbES7_ttbEEE10_M_managerERSt9_Any_dataRKSD_St18_Manager_operation
libkea-dhcpsrv.so.90:_ZNSt17_Function_handlerIFvvESt5_BindIFPFbN5boost10shared_ptrIN3isc4util12ReconnectCtlEEEttbES7_ttbEEE9_M_invokeERKSt9_Any_data
libkea-dhcpsrv.so.90:_ZThn16_NK3isc4dhcp8CfgHosts9toElementEv
libkea-dhcpsrv.so.90:_ZThn248_NK3isc4dhcp7Subnet49toElementEv
libkea-dhcpsrv.so.90:_ZThn248_NK3isc4dhcp7Subnet69toElementEv
libkea-dhcpsrv.so.90:_ZThn8_N3isc4dhcp8CfgHosts16getAllbyHostnameERKNSt7__cxx1112basic_stringIcSt11char_traitsIcESaIcEEE
libkea-dhcpsrv.so.90:_ZThn8_N3isc4dhcp8CfgHosts17getAllbyHostname4ERKNSt7__cxx1112basic_stringIcSt11char_traitsIcESaIcEEERKj
libkea-dhcpsrv.so.90:_ZThn8_N3isc4dhcp8CfgHosts17getAllbyHostname6ERKNSt7__cxx1112basic_stringIcSt11char_traitsIcESaIcEEERKj
libkea-dhcpsrv.so.90:_ZThn8_N3isc4dhcp8CfgHosts4get4ERKjRKNS0_4Host14IdentifierTypeEPKhm
libkea-dhcpsrv.so.90:_ZThn8_N3isc4dhcp8CfgHosts4get6ERKNS_8asiolink9IOAddressEh
libkea-dhcpsrv.so.90:_ZThn8_N3isc4dhcp8CfgHosts4get6ERKjRKNS0_4Host14IdentifierTypeEPKhm
libkea-dhcpsrv.so.90:_ZThn8_N3isc4dhcp8CfgHosts4get6ERKjRKNS_8asiolink9IOAddressE
libkea-dhcpsrv.so.90:_ZThn8_N3isc4dhcp8CfgHosts6getAllERKNS0_4Host14IdentifierTypeEPKhm
libkea-dhcpsrv.so.90:_ZThn8_N3isc4dhcp8CfgHosts7getAll4ERKNS_8asiolink9IOAddressE
libkea-dhcpsrv.so.90:_ZThn8_N3isc4dhcp8CfgHosts7getAll4ERKj
libkea-dhcpsrv.so.90:_ZThn8_N3isc4dhcp8CfgHosts7getAll6ERKj
libkea-dhcpsrv.so.90:_ZThn8_N3isc4dhcp8CfgHosts8getPage4ERKjRmmRKNS0_12HostPageSizeE
libkea-dhcpsrv.so.90:_ZThn8_N3isc4dhcp8CfgHosts8getPage4ERmmRKNS0_12HostPageSizeE
libkea-dhcpsrv.so.90:_ZThn8_N3isc4dhcp8CfgHosts8getPage6ERKjRmmRKNS0_12HostPageSizeE
libkea-dhcpsrv.so.90:_ZThn8_N3isc4dhcp8CfgHosts8getPage6ERmmRKNS0_12HostPageSizeE
libkea-dhcpsrv.so.90:_ZTv0_n48_NK3isc4dhcp14SharedNetwork49toElementEv
libkea-dhcpsrv.so.90:_ZTv0_n48_NK3isc4dhcp14SharedNetwork69toElementEv
libkea-dhcpsrv.so.90:_ZTv0_n48_NK3isc4dhcp6Subnet9toElementEv
libkea-dhcpsrv.so.90:_ZTv0_n48_NK3isc4dhcp7Subnet49toElementEv
libkea-dhcpsrv.so.90:_ZTv0_n48_NK3isc4dhcp7Subnet69toElementEv
libkea-dhcpsrv.so.90:_ZTv0_n48_NK3isc4dhcp8Network49toElementEv
libkea-dhcpsrv.so.90:_ZTv0_n48_NK3isc4dhcp8Network69toElementEv
libkea-dhcpsrv.so.90:_ZTv0_n56_NK3isc4dhcp7Subnet415clientSupportedERKNS0_13ClientClassesE
libkea-dhcpsrv.so.90:_ZTv0_n56_NK3isc4dhcp7Subnet615clientSupportedERKNS0_13ClientClassesE
libkea-dns++.so.42:_ZN3isc3dns10BasicRRset6setTTLERKNS0_5RRTTLE
libkea-dns++.so.42:_ZN3isc3dns10BasicRRset8addRdataEN5boost10shared_ptrIKNS0_5rdata5RdataEEE
libkea-dns++.so.42:_ZN3isc3dns10BasicRRset8addRdataERKNS0_5rdata5RdataE
libkea-dns++.so.42:_ZN3isc3dns10BasicRRset8addRdataERKNSt7__cxx1112basic_stringIcSt11char_traitsIcESaIcEEE
libkea-dns++.so.42:_ZN3isc3dns10BasicRRsetC1ERKNS0_4NameERKNS0_7RRClassERKNS0_6RRTypeERKNS0_5RRTTLE
libkea-dns++.so.42:_ZN3isc3dns10BasicRRsetC2ERKNS0_4NameERKNS0_7RRClassERKNS0_6RRTypeERKNS0_5RRTTLE
libkea-dns++.so.42:_ZN3isc3dns10BasicRRsetD0Ev
libkea-dns++.so.42:_ZN3isc3dns10BasicRRsetD1Ev
libkea-dns++.so.42:_ZN3isc3dns10BasicRRsetD2Ev
libkea-dns++.so.42:_ZN3isc3dns10RRCollator11getCallbackEv
libkea-dns++.so.42:_ZN3isc3dns10RRCollator4Impl5addRRERKNS0_4NameERKNS0_7RRClassERKNS0_6RRTypeERKNS0_5RRTTLERKN5boost10shared_ptrINS0_5rdata5RdataEEE
libkea-dns++.so.42:_ZN3isc3dns10RRCollator5flushEv
libkea-dns++.so.42:_ZN3isc3dns10RRCollatorC1ERKSt8functionIFvRKN5boost10shared_ptrINS0_13AbstractRRsetEEEEE
libkea-dns++.so.42:_ZN3isc3dns10RRCollatorC2ERKSt8functionIFvRKN5boost10shared_ptrINS0_13AbstractRRsetEEEEE
libkea-dns++.so.42:_ZN3isc3dns10RRCollatorD1Ev
libkea-dns++.so.42:_ZN3isc3dns10RRCollatorD2Ev
libkea-dns++.so.42:_ZN3isc3dns10TSIGRecord6getTTLEv
libkea-dns++.so.42:_ZN3isc3dns10TSIGRecord8getClassEv
libkea-dns++.so.42:_ZN3isc3dns10TSIGRecordC1ERKNS0_4NameERKNS0_5rdata3any4TSIGE
libkea-dns++.so.42:_ZN3isc3dns10TSIGRecordC1ERKNS0_4NameERKNS0_7RRClassERKNS0_5RRTTLERKNS0_5rdata5RdataEm
libkea-dns++.so.42:_ZN3isc3dns10TSIGRecordC2ERKNS0_4NameERKNS0_5rdata3any4TSIGE
libkea-dns++.so.42:_ZN3isc3dns10TSIGRecordC2ERKNS0_4NameERKNS0_7RRClassERKNS0_5RRTTLERKNS0_5rdata5RdataEm
libkea-dns++.so.42:_ZN3isc3dns10masterLoadEPKcRKNS0_4NameERKNS0_7RRClassESt8functionIFvN5boost10shared_ptrINS0_13AbstractRRsetEEEEE
libkea-dns++.so.42:_ZN3isc3dns10masterLoadERSiRKNS0_4NameERKNS0_7RRClassESt8functionIFvN5boost10shared_ptrINS0_13AbstractRRsetEEEEEPKc
libkea-dns++.so.42:_ZN3isc3dns11MasterLexer10pushSourceEPKcPNSt7__cxx1112basic_stringIcSt11char_traitsIcESaIcEEE
libkea-dns++.so.42:_ZN3isc3dns11MasterLexer10pushSourceERSi
libkea-dns++.so.42:_ZN3isc3dns11MasterLexer10ungetTokenEv
libkea-dns++.so.42:_ZN3isc3dns11MasterLexer12getNextTokenENS0_11MasterToken4TypeEb
libkea-dns++.so.42:_ZN3isc3dns11MasterLexer12getNextTokenENS1_7OptionsE
libkea-dns++.so.42:_ZN3isc3dns11MasterLexer9popSourceEv
libkea-dns++.so.42:_ZN3isc3dns11MasterLexerC1Ev
libkea-dns++.so.42:_ZN3isc3dns11MasterLexerC2Ev
libkea-dns++.so.42:_ZN3isc3dns11MasterLexerD1Ev
libkea-dns++.so.42:_ZN3isc3dns11MasterLexerD2Ev
libkea-dns++.so.42:_ZN3isc3dns11MessageImpl12parseSectionENS0_7Message7SectionERNS_4util11InputBufferENS2_12ParseOptionsE
libkea-dns++.so.42:_ZN3isc3dns11MessageImpl13parseQuestionERNS_4util11InputBufferE
libkea-dns++.so.42:_ZN3isc3dns11MessageImpl4initEv
libkea-dns++.so.42:_ZN3isc3dns11MessageImpl5addRRENS0_7Message7SectionERKNS0_4NameERKNS0_7RRClassERKNS0_6RRTypeERKNS0_5RRTTLEN5boost10shared_ptrIKNS0_5rdata5RdataEEENS2_12ParseOptionsE
libkea-dns++.so.42:_ZN3isc3dns11MessageImpl5addRRENS0_7Message7SectionERKNS0_4NameERKNS0_7RRClassERKNS0_6RRTypeERKNS0_5RRTTLENS2_12ParseOptionsE
libkea-dns++.so.42:_ZN3isc3dns11MessageImpl6toWireERNS0_23AbstractMessageRendererEPNS0_11TSIGContextE
libkea-dns++.so.42:_ZN3isc3dns11MessageImpl7addEDNSENS0_7Message7SectionERKNS0_4NameERKNS0_7RRClassERKNS0_6RRTypeERKNS0_5RRTTLERKNS0_5rdata5RdataE
libkea-dns++.so.42:_ZN3isc3dns11MessageImpl7addTSIGENS0_7Message7SectionEjRKNS_4util11InputBufferEmRKNS0_4NameERKNS0_7RRClassERKNS0_5RRTTLERKNS0_5rdata5RdataE
libkea-dns++.so.42:_ZN3isc3dns11MessageImpl8setRcodeERKNS0_5RcodeE
libkea-dns++.so.42:_ZN3isc3dns11MessageImpl9setOpcodeERKNS0_6OpcodeE
libkea-dns++.so.42:_ZN3isc3dns11MessageImplC1ENS0_7Message4ModeE
libkea-dns++.so.42:_ZN3isc3dns11MessageImplC2ENS0_7Message4ModeE
libkea-dns++.so.42:_ZN3isc3dns11TSIGContext15TSIGContextImpl17digestPreviousMACEN5boost10shared_ptrINS_10cryptolink4HMACEEE
libkea-dns++.so.42:_ZN3isc3dns11TSIGContext4signEtPKvm
libkea-dns++.so.42:_ZN3isc3dns11TSIGContext6updateEPKvm
libkea-dns++.so.42:_ZN3isc3dns11TSIGContext6verifyEPKNS0_10TSIGRecordEPKvm
libkea-dns++.so.42:_ZN3isc3dns11TSIGContextC1ERKNS0_4NameES4_RKNS0_11TSIGKeyRingE
libkea-dns++.so.42:_ZN3isc3dns11TSIGContextC1ERKNS0_7TSIGKeyE
libkea-dns++.so.42:_ZN3isc3dns11TSIGContextC2ERKNS0_4NameES4_RKNS0_11TSIGKeyRingE
libkea-dns++.so.42:_ZN3isc3dns11TSIGContextC2ERKNS0_7TSIGKeyE
libkea-dns++.so.42:_ZN3isc3dns11TSIGContextD0Ev
libkea-dns++.so.42:_ZN3isc3dns11TSIGContextD1Ev
libkea-dns++.so.42:_ZN3isc3dns11TSIGContextD2Ev
libkea-dns++.so.42:_ZN3isc3dns11TSIGKeyRing3addERKNS0_7TSIGKeyE
libkea-dns++.so.42:_ZN3isc3dns11TSIGKeyRing6removeERKNS0_4NameE
libkea-dns++.so.42:_ZN3isc3dns11TSIGKeyRingC1Ev
libkea-dns++.so.42:_ZN3isc3dns11TSIGKeyRingC2Ev
libkea-dns++.so.42:_ZN3isc3dns11TSIGKeyRingD1Ev
libkea-dns++.so.42:_ZN3isc3dns11TSIGKeyRingD2Ev
libkea-dns++.so.42:_ZN3isc3dns12MasterLoader15loadIncrementalEm
libkea-dns++.so.42:_ZN3isc3dns12MasterLoader16MasterLoaderImpl10doGenerateEv
libkea-dns++.so.42:_ZN3isc3dns12MasterLoader16MasterLoaderImpl15generateForIterERKNSt7__cxx1112basic_stringIcSt11char_traitsIcESaIcEEEi
libkea-dns++.so.42:_ZN3isc3dns12MasterLoader16MasterLoaderImpl15loadIncrementalEm
libkea-dns++.so.42:_ZN3isc3dns12MasterLoader16MasterLoaderImpl18handleInitialTokenEv
libkea-dns++.so.42:_ZN3isc3dns12MasterLoaderC1EPKcRKNS0_4NameERKNS0_7RRClassERKNS0_21MasterLoaderCallbacksERKSt8functionIFvS6_S9_RKNS0_6RRTypeERKNS0_5RRTTLERKN5boost10shared_ptrINS0_5rdata5RdataEEEEENS1_7OptionsE
libkea-dns++.so.42:_ZN3isc3dns12MasterLoaderC1ERSiRKNS0_4NameERKNS0_7RRClassERKNS0_21MasterLoaderCallbacksERKSt8functionIFvS5_S8_RKNS0_6RRTypeERKNS0_5RRTTLERKN5boost10shared_ptrINS0_5rdata5RdataEEEEENS1_7OptionsE
libkea-dns++.so.42:_ZN3isc3dns12MasterLoaderC2EPKcRKNS0_4NameERKNS0_7RRClassERKNS0_21MasterLoaderCallbacksERKSt8functionIFvS6_S9_RKNS0_6RRTypeERKNS0_5RRTTLERKN5boost10shared_ptrINS0_5rdata5RdataEEEEENS1_7OptionsE
libkea-dns++.so.42:_ZN3isc3dns12MasterLoaderC2ERSiRKNS0_4NameERKNS0_7RRClassERKNS0_21MasterLoaderCallbacksERKSt8functionIFvS5_S8_RKNS0_6RRTypeERKNS0_5RRTTLERKN5boost10shared_ptrINS0_5rdata5RdataEEEEENS1_7OptionsE
libkea-dns++.so.42:_ZN3isc3dns12MasterLoaderD1Ev
libkea-dns++.so.42:_ZN3isc3dns12MasterLoaderD2Ev
libkea-dns++.so.42:_ZN3isc3dns12QidGenerator11generateQidEv
libkea-dns++.so.42:_ZN3isc3dns12QidGenerator11getInstanceEv
libkea-dns++.so.42:_ZN3isc3dns12QidGeneratorC1Ev
libkea-dns++.so.42:_ZN3isc3dns12QidGeneratorC2Ev
libkea-dns++.so.42:_ZN3isc3dns13AbstractRRset8addRdataERKNS0_5rdata5RdataE
libkea-dns++.so.42:_ZN3isc3dns13LabelSequence10stripRightEm
libkea-dns++.so.42:_ZN3isc3dns13LabelSequence6extendERKS1_Ph
libkea-dns++.so.42:_ZN3isc3dns13LabelSequence9stripLeftEm
libkea-dns++.so.42:_ZN3isc3dns13LabelSequenceC1EPKv
libkea-dns++.so.42:_ZN3isc3dns13LabelSequenceC1ERKS1_Ph
libkea-dns++.so.42:_ZN3isc3dns13LabelSequenceC2EPKv
libkea-dns++.so.42:_ZN3isc3dns13LabelSequenceC2ERKS1_Ph
libkea-dns++.so.42:_ZN3isc3dns15MessageRenderer12setTruncatedEv
libkea-dns++.so.42:_ZN3isc3dns15MessageRenderer14setLengthLimitEm
libkea-dns++.so.42:_ZN3isc3dns15MessageRenderer15setCompressModeENS0_23AbstractMessageRenderer12CompressModeE
libkea-dns++.so.42:_ZN3isc3dns15MessageRenderer5clearEv
libkea-dns++.so.42:_ZN3isc3dns15MessageRenderer9writeNameERKNS0_13LabelSequenceEb
libkea-dns++.so.42:_ZN3isc3dns15MessageRenderer9writeNameERKNS0_4NameEb
libkea-dns++.so.42:_ZN3isc3dns15MessageRendererC1Ev
libkea-dns++.so.42:_ZN3isc3dns15MessageRendererC2Ev
libkea-dns++.so.42:_ZN3isc3dns15MessageRendererD0Ev
libkea-dns++.so.42:_ZN3isc3dns15MessageRendererD1Ev
libkea-dns++.so.42:_ZN3isc3dns15MessageRendererD2Ev
libkea-dns++.so.42:_ZN3isc3dns15RRParamRegistry10removeTypeEt
libkea-dns++.so.42:_ZN3isc3dns15RRParamRegistry11createRdataERKNS0_6RRTypeERKNS0_7RRClassERKNS0_5rdata5RdataE
libkea-dns++.so.42:_ZN3isc3dns15RRParamRegistry11createRdataERKNS0_6RRTypeERKNS0_7RRClassERKNSt7__cxx1112basic_stringIcSt11char_traitsIcESaIcEEE
libkea-dns++.so.42:_ZN3isc3dns15RRParamRegistry11createRdataERKNS0_6RRTypeERKNS0_7RRClassERNS0_11MasterLexerEPKNS0_4NameENS0_12MasterLoader7OptionsERNS0_21MasterLoaderCallbacksE
libkea-dns++.so.42:_ZN3isc3dns15RRParamRegistry11createRdataERKNS0_6RRTypeERKNS0_7RRClassERNS_4util11InputBufferEm
libkea-dns++.so.42:_ZN3isc3dns15RRParamRegistry11getRegistryEv
libkea-dns++.so.42:_ZN3isc3dns15RRParamRegistry11removeClassEt
libkea-dns++.so.42:_ZN3isc3dns15RRParamRegistry18removeRdataFactoryERKNS0_6RRTypeE
libkea-dns++.so.42:_ZN3isc3dns15RRParamRegistry18removeRdataFactoryERKNS0_6RRTypeERKNS0_7RRClassE
libkea-dns++.so.42:_ZN3isc3dns15RRParamRegistry3addERKNSt7__cxx1112basic_stringIcSt11char_traitsIcESaIcEEEtN5boost10shared_ptrINS0_5rdata20AbstractRdataFactoryEEE
libkea-dns++.so.42:_ZN3isc3dns15RRParamRegistry3addERKNSt7__cxx1112basic_stringIcSt11char_traitsIcESaIcEEEtS9_tN5boost10shared_ptrINS0_5rdata20AbstractRdataFactoryEEE
libkea-dns++.so.42:_ZN3isc3dns15RRParamRegistry7addTypeERKNSt7__cxx1112basic_stringIcSt11char_traitsIcESaIcEEEt
libkea-dns++.so.42:_ZN3isc3dns15RRParamRegistry8addClassERKNSt7__cxx1112basic_stringIcSt11char_traitsIcESaIcEEEt
libkea-dns++.so.42:_ZN3isc3dns15RRParamRegistryC1Ev
libkea-dns++.so.42:_ZN3isc3dns15RRParamRegistryC2Ev
libkea-dns++.so.42:_ZN3isc3dns15RRParamRegistryD1Ev
libkea-dns++.so.42:_ZN3isc3dns15RRParamRegistryD2Ev
libkea-dns++.so.42:_ZN3isc3dns15RRsetCollection11removeRRsetERKNS0_4NameERKNS0_7RRClassERKNS0_6RRTypeE
libkea-dns++.so.42:_ZN3isc3dns15RRsetCollection12getBeginningEv
libkea-dns++.so.42:_ZN3isc3dns15RRsetCollection14loaderCallbackERKNSt7__cxx1112basic_stringIcSt11char_traitsIcESaIcEEEmS9_
libkea-dns++.so.42:_ZN3isc3dns15RRsetCollection4findERKNS0_4NameERKNS0_7RRClassERKNS0_6RRTypeE
libkea-dns++.so.42:_ZN3isc3dns15RRsetCollection6getEndEv
libkea-dns++.so.42:_ZN3isc3dns15RRsetCollection8addRRsetEN5boost10shared_ptrINS0_13AbstractRRsetEEE
libkea-dns++.so.42:_ZN3isc3dns15RRsetCollectionC1EPKcRKNS0_4NameERKNS0_7RRClassE
libkea-dns++.so.42:_ZN3isc3dns15RRsetCollectionC1ERSiRKNS0_4NameERKNS0_7RRClassE
libkea-dns++.so.42:_ZN3isc3dns15RRsetCollectionC2EPKcRKNS0_4NameERKNS0_7RRClassE
libkea-dns++.so.42:_ZN3isc3dns15RRsetCollectionC2ERSiRKNS0_4NameERKNS0_7RRClassE
libkea-dns++.so.42:_ZN3isc3dns15SectionIteratorIN5boost10shared_ptrINS0_13AbstractRRsetEEEEC1ERKNS0_19SectionIteratorImplIS5_EE
libkea-dns++.so.42:_ZN3isc3dns15SectionIteratorIN5boost10shared_ptrINS0_13AbstractRRsetEEEEC1ERKS6_
libkea-dns++.so.42:_ZN3isc3dns15SectionIteratorIN5boost10shared_ptrINS0_13AbstractRRsetEEEEC1Ev
libkea-dns++.so.42:_ZN3isc3dns15SectionIteratorIN5boost10shared_ptrINS0_13AbstractRRsetEEEEC2ERKNS0_19SectionIteratorImplIS5_EE
libkea-dns++.so.42:_ZN3isc3dns15SectionIteratorIN5boost10shared_ptrINS0_13AbstractRRsetEEEEC2ERKS6_
libkea-dns++.so.42:_ZN3isc3dns15SectionIteratorIN5boost10shared_ptrINS0_13AbstractRRsetEEEEC2Ev
libkea-dns++.so.42:_ZN3isc3dns15SectionIteratorIN5boost10shared_ptrINS0_13AbstractRRsetEEEED1Ev
libkea-dns++.so.42:_ZN3isc3dns15SectionIteratorIN5boost10shared_ptrINS0_13AbstractRRsetEEEED2Ev
libkea-dns++.so.42:_ZN3isc3dns15SectionIteratorIN5boost10shared_ptrINS0_13AbstractRRsetEEEEaSERKS6_
libkea-dns++.so.42:_ZN3isc3dns15SectionIteratorIN5boost10shared_ptrINS0_13AbstractRRsetEEEEppEi
libkea-dns++.so.42:_ZN3isc3dns15SectionIteratorIN5boost10shared_ptrINS0_13AbstractRRsetEEEEppEv
libkea-dns++.so.42:_ZN3isc3dns15SectionIteratorIN5boost10shared_ptrINS0_8QuestionEEEEC1ERKNS0_19SectionIteratorImplIS5_EE
libkea-dns++.so.42:_ZN3isc3dns15SectionIteratorIN5boost10shared_ptrINS0_8QuestionEEEEC1ERKS6_
libkea-dns++.so.42:_ZN3isc3dns15SectionIteratorIN5boost10shared_ptrINS0_8QuestionEEEEC1Ev
libkea-dns++.so.42:_ZN3isc3dns15SectionIteratorIN5boost10shared_ptrINS0_8QuestionEEEEC2ERKNS0_19SectionIteratorImplIS5_EE
libkea-dns++.so.42:_ZN3isc3dns15SectionIteratorIN5boost10shared_ptrINS0_8QuestionEEEEC2ERKS6_
libkea-dns++.so.42:_ZN3isc3dns15SectionIteratorIN5boost10shared_ptrINS0_8QuestionEEEEC2Ev
libkea-dns++.so.42:_ZN3isc3dns15SectionIteratorIN5boost10shared_ptrINS0_8QuestionEEEED1Ev
libkea-dns++.so.42:_ZN3isc3dns15SectionIteratorIN5boost10shared_ptrINS0_8QuestionEEEED2Ev
libkea-dns++.so.42:_ZN3isc3dns15SectionIteratorIN5boost10shared_ptrINS0_8QuestionEEEEaSERKS6_
libkea-dns++.so.42:_ZN3isc3dns15SectionIteratorIN5boost10shared_ptrINS0_8QuestionEEEEppEi
libkea-dns++.so.42:_ZN3isc3dns15SectionIteratorIN5boost10shared_ptrINS0_8QuestionEEEEppEv
libkea-dns++.so.42:_ZN3isc3dns16createEDNSFromRRERKNS0_4NameERKNS0_7RRClassERKNS0_6RRTypeERKNS0_5RRTTLERKNS0_5rdata5RdataERh
libkea-dns++.so.42:_ZN3isc3dns19setNSEC3HashCreatorEPKNS0_16NSEC3HashCreatorE
libkea-dns++.so.42:_ZN3isc3dns21MasterLoaderCallbacks16getNullCallbacksEv
libkea-dns++.so.42:_ZN3isc3dns21master_lexer_internal11InputSource4markEv
libkea-dns++.so.42:_ZN3isc3dns21master_lexer_internal11InputSource7compactEv
libkea-dns++.so.42:_ZN3isc3dns21master_lexer_internal11InputSource7getCharEv
libkea-dns++.so.42:_ZN3isc3dns21master_lexer_internal11InputSource8saveLineEv
libkea-dns++.so.42:_ZN3isc3dns21master_lexer_internal11InputSource8ungetAllEv
libkea-dns++.so.42:_ZN3isc3dns21master_lexer_internal11InputSource9ungetCharEv
libkea-dns++.so.42:_ZN3isc3dns21master_lexer_internal11InputSourceC1EPKc
libkea-dns++.so.42:_ZN3isc3dns21master_lexer_internal11InputSourceC1ERSi
libkea-dns++.so.42:_ZN3isc3dns21master_lexer_internal11InputSourceC2EPKc
libkea-dns++.so.42:_ZN3isc3dns21master_lexer_internal11InputSourceC2ERSi
libkea-dns++.so.42:_ZN3isc3dns21master_lexer_internal11InputSourceD1Ev
libkea-dns++.so.42:_ZN3isc3dns21master_lexer_internal11InputSourceD2Ev
libkea-dns++.so.42:_ZN3isc3dns21master_lexer_internal5State11getInstanceENS2_2IDE
libkea-dns++.so.42:_ZN3isc3dns21master_lexer_internal5State5startERNS0_11MasterLexerENS3_7OptionsE
libkea-dns++.so.42:_ZN3isc3dns23AbstractMessageRenderer5clearEv
libkea-dns++.so.42:_ZN3isc3dns23AbstractMessageRenderer9setBufferEPNS_4util12OutputBufferE
libkea-dns++.so.42:_ZN3isc3dns23AbstractMessageRendererC1Ev
libkea-dns++.so.42:_ZN3isc3dns23AbstractMessageRendererC2Ev
libkea-dns++.so.42:_ZN3isc3dns4EDNSC1ERKNS0_4NameERKNS0_7RRClassERKNS0_6RRTypeERKNS0_5RRTTLERKNS0_5rdata5RdataE
libkea-dns++.so.42:_ZN3isc3dns4EDNSC1Eh
libkea-dns++.so.42:_ZN3isc3dns4EDNSC2ERKNS0_4NameERKNS0_7RRClassERKNS0_6RRTypeERKNS0_5RRTTLERKNS0_5rdata5RdataE
libkea-dns++.so.42:_ZN3isc3dns4EDNSC2Eh
libkea-dns++.so.42:_ZN3isc3dns4Name8downcaseEv
libkea-dns++.so.42:_ZN3isc3dns4NameC1EPKcmPKS1_b
libkea-dns++.so.42:_ZN3isc3dns4NameC1ERKNSt7__cxx1112basic_stringIcSt11char_traitsIcESaIcEEEb
libkea-dns++.so.42:_ZN3isc3dns4NameC1ERNS_4util11InputBufferEb
libkea-dns++.so.42:_ZN3isc3dns4NameC2EPKcmPKS1_b
libkea-dns++.so.42:_ZN3isc3dns4NameC2ERKNSt7__cxx1112basic_stringIcSt11char_traitsIcESaIcEEEb
libkea-dns++.so.42:_ZN3isc3dns4NameC2ERNS_4util11InputBufferEb
libkea-dns++.so.42:_ZN3isc3dns5RRTTL14createFromTextERKNSt7__cxx1112basic_stringIcSt11char_traitsIcESaIcEEE
libkea-dns++.so.42:_ZN3isc3dns5RRTTLC1ERKNSt7__cxx1112basic_stringIcSt11char_traitsIcESaIcEEE
libkea-dns++.so.42:_ZN3isc3dns5RRTTLC1ERNS_4util11InputBufferE
libkea-dns++.so.42:_ZN3isc3dns5RRTTLC2ERKNSt7__cxx1112basic_stringIcSt11char_traitsIcESaIcEEE
libkea-dns++.so.42:_ZN3isc3dns5RRTTLC2ERNS_4util11InputBufferE
libkea-dns++.so.42:_ZN3isc3dns5RRsetC1ERKNS0_4NameERKNS0_7RRClassERKNS0_6RRTypeERKNS0_5RRTTLE
libkea-dns++.so.42:_ZN3isc3dns5RRsetC2ERKNS0_4NameERKNS0_7RRClassERKNS0_6RRTypeERKNS0_5RRTTLE
libkea-dns++.so.42:_ZN3isc3dns5RRsetD0Ev
libkea-dns++.so.42:_ZN3isc3dns5RRsetD1Ev
libkea-dns++.so.42:_ZN3isc3dns5RRsetD2Ev
libkea-dns++.so.42:_ZN3isc3dns5RcodeC1Ehh
libkea-dns++.so.42:_ZN3isc3dns5RcodeC1Et
libkea-dns++.so.42:_ZN3isc3dns5RcodeC2Ehh
libkea-dns++.so.42:_ZN3isc3dns5RcodeC2Et
libkea-dns++.so.42:_ZN3isc3dns5rdata11RdataFieldsC1EPKvjS4_m
libkea-dns++.so.42:_ZN3isc3dns5rdata11RdataFieldsC1ERKNS1_5RdataE
libkea-dns++.so.42:_ZN3isc3dns5rdata11RdataFieldsC2EPKvjS4_m
libkea-dns++.so.42:_ZN3isc3dns5rdata11RdataFieldsC2ERKNS1_5RdataE
libkea-dns++.so.42:_ZN3isc3dns5rdata11RdataFieldsD1Ev
libkea-dns++.so.42:_ZN3isc3dns5rdata11RdataFieldsD2Ev
libkea-dns++.so.42:_ZN3isc3dns5rdata11createRdataERKNS0_6RRTypeERKNS0_7RRClassERKNS1_5RdataE
libkea-dns++.so.42:_ZN3isc3dns5rdata11createRdataERKNS0_6RRTypeERKNS0_7RRClassERKNSt7__cxx1112basic_stringIcSt11char_traitsIcESaIcEEE
libkea-dns++.so.42:_ZN3isc3dns5rdata11createRdataERKNS0_6RRTypeERKNS0_7RRClassERNS0_11MasterLexerEPKNS0_4NameENS0_12MasterLoader7OptionsERNS0_21MasterLoaderCallbacksE
libkea-dns++.so.42:_ZN3isc3dns5rdata11createRdataERKNS0_6RRTypeERKNS0_7RRClassERNS_4util11InputBufferEm
libkea-dns++.so.42:_ZN3isc3dns5rdata12compareNamesERKNS0_4NameES4_
libkea-dns++.so.42:_ZN3isc3dns5rdata2ch1AC1ERKNSt7__cxx1112basic_stringIcSt11char_traitsIcESaIcEEE
libkea-dns++.so.42:_ZN3isc3dns5rdata2ch1AC1ERKS3_
libkea-dns++.so.42:_ZN3isc3dns5rdata2ch1AC1ERNS0_11MasterLexerEPKNS0_4NameENS0_12MasterLoader7OptionsERNS0_21MasterLoaderCallbacksE
libkea-dns++.so.42:_ZN3isc3dns5rdata2ch1AC1ERNS_4util11InputBufferEm
libkea-dns++.so.42:_ZN3isc3dns5rdata2ch1AC2ERKNSt7__cxx1112basic_stringIcSt11char_traitsIcESaIcEEE
libkea-dns++.so.42:_ZN3isc3dns5rdata2ch1AC2ERKS3_
libkea-dns++.so.42:_ZN3isc3dns5rdata2ch1AC2ERNS0_11MasterLexerEPKNS0_4NameENS0_12MasterLoader7OptionsERNS0_21MasterLoaderCallbacksE
libkea-dns++.so.42:_ZN3isc3dns5rdata2ch1AC2ERNS_4util11InputBufferEm
libkea-dns++.so.42:_ZN3isc3dns5rdata2hs1AC1ERKNSt7__cxx1112basic_stringIcSt11char_traitsIcESaIcEEE
libkea-dns++.so.42:_ZN3isc3dns5rdata2hs1AC1ERKS3_
libkea-dns++.so.42:_ZN3isc3dns5rdata2hs1AC1ERNS0_11MasterLexerEPKNS0_4NameENS0_12MasterLoader7OptionsERNS0_21MasterLoaderCallbacksE
libkea-dns++.so.42:_ZN3isc3dns5rdata2hs1AC1ERNS_4util11InputBufferEm
libkea-dns++.so.42:_ZN3isc3dns5rdata2hs1AC2ERKNSt7__cxx1112basic_stringIcSt11char_traitsIcESaIcEEE
libkea-dns++.so.42:_ZN3isc3dns5rdata2hs1AC2ERKS3_
libkea-dns++.so.42:_ZN3isc3dns5rdata2hs1AC2ERNS0_11MasterLexerEPKNS0_4NameENS0_12MasterLoader7OptionsERNS0_21MasterLoaderCallbacksE
libkea-dns++.so.42:_ZN3isc3dns5rdata2hs1AC2ERNS_4util11InputBufferEm
libkea-dns++.so.42:_ZN3isc3dns5rdata2in1AC1ERKNSt7__cxx1112basic_stringIcSt11char_traitsIcESaIcEEE
libkea-dns++.so.42:_ZN3isc3dns5rdata2in1AC1ERKS3_
libkea-dns++.so.42:_ZN3isc3dns5rdata2in1AC1ERNS0_11MasterLexerEPKNS0_4NameENS0_12MasterLoader7OptionsERNS0_21MasterLoaderCallbacksE
libkea-dns++.so.42:_ZN3isc3dns5rdata2in1AC1ERNS_4util11InputBufferEm
libkea-dns++.so.42:_ZN3isc3dns5rdata2in1AC2ERKNSt7__cxx1112basic_stringIcSt11char_traitsIcESaIcEEE
libkea-dns++.so.42:_ZN3isc3dns5rdata2in1AC2ERKS3_
libkea-dns++.so.42:_ZN3isc3dns5rdata2in1AC2ERNS0_11MasterLexerEPKNS0_4NameENS0_12MasterLoader7OptionsERNS0_21MasterLoaderCallbacksE
libkea-dns++.so.42:_ZN3isc3dns5rdata2in1AC2ERNS_4util11InputBufferEm
libkea-dns++.so.42:_ZN3isc3dns5rdata2in3SRVC1ERKNSt7__cxx1112basic_stringIcSt11char_traitsIcESaIcEEE
libkea-dns++.so.42:_ZN3isc3dns5rdata2in3SRVC1ERKS3_
libkea-dns++.so.42:_ZN3isc3dns5rdata2in3SRVC1ERNS0_11MasterLexerEPKNS0_4NameENS0_12MasterLoader7OptionsERNS0_21MasterLoaderCallbacksE
libkea-dns++.so.42:_ZN3isc3dns5rdata2in3SRVC1ERNS_4util11InputBufferEm
libkea-dns++.so.42:_ZN3isc3dns5rdata2in3SRVC2ERKNSt7__cxx1112basic_stringIcSt11char_traitsIcESaIcEEE
libkea-dns++.so.42:_ZN3isc3dns5rdata2in3SRVC2ERKS3_
libkea-dns++.so.42:_ZN3isc3dns5rdata2in3SRVC2ERNS0_11MasterLexerEPKNS0_4NameENS0_12MasterLoader7OptionsERNS0_21MasterLoaderCallbacksE
libkea-dns++.so.42:_ZN3isc3dns5rdata2in3SRVC2ERNS_4util11InputBufferEm
libkea-dns++.so.42:_ZN3isc3dns5rdata2in3SRVD0Ev
libkea-dns++.so.42:_ZN3isc3dns5rdata2in3SRVD1Ev
libkea-dns++.so.42:_ZN3isc3dns5rdata2in3SRVD2Ev
libkea-dns++.so.42:_ZN3isc3dns5rdata2in3SRVaSERKS3_
libkea-dns++.so.42:_ZN3isc3dns5rdata2in4AAAAC1ERKNSt7__cxx1112basic_stringIcSt11char_traitsIcESaIcEEE
libkea-dns++.so.42:_ZN3isc3dns5rdata2in4AAAAC1ERKS3_
libkea-dns++.so.42:_ZN3isc3dns5rdata2in4AAAAC1ERNS0_11MasterLexerEPKNS0_4NameENS0_12MasterLoader7OptionsERNS0_21MasterLoaderCallbacksE
libkea-dns++.so.42:_ZN3isc3dns5rdata2in4AAAAC1ERNS_4util11InputBufferEm
libkea-dns++.so.42:_ZN3isc3dns5rdata2in4AAAAC2ERKNSt7__cxx1112basic_stringIcSt11char_traitsIcESaIcEEE
libkea-dns++.so.42:_ZN3isc3dns5rdata2in4AAAAC2ERKS3_
libkea-dns++.so.42:_ZN3isc3dns5rdata2in4AAAAC2ERNS0_11MasterLexerEPKNS0_4NameENS0_12MasterLoader7OptionsERNS0_21MasterLoaderCallbacksE
libkea-dns++.so.42:_ZN3isc3dns5rdata2in4AAAAC2ERNS_4util11InputBufferEm
libkea-dns++.so.42:_ZN3isc3dns5rdata2in5DHCID18constructFromLexerERNS0_11MasterLexerE
libkea-dns++.so.42:_ZN3isc3dns5rdata2in5DHCIDC1ERKNSt7__cxx1112basic_stringIcSt11char_traitsIcESaIcEEE
libkea-dns++.so.42:_ZN3isc3dns5rdata2in5DHCIDC1ERKS3_
libkea-dns++.so.42:_ZN3isc3dns5rdata2in5DHCIDC1ERNS0_11MasterLexerEPKNS0_4NameENS0_12MasterLoader7OptionsERNS0_21MasterLoaderCallbacksE
libkea-dns++.so.42:_ZN3isc3dns5rdata2in5DHCIDC1ERNS_4util11InputBufferEm
libkea-dns++.so.42:_ZN3isc3dns5rdata2in5DHCIDC2ERKNSt7__cxx1112basic_stringIcSt11char_traitsIcESaIcEEE
libkea-dns++.so.42:_ZN3isc3dns5rdata2in5DHCIDC2ERKS3_
libkea-dns++.so.42:_ZN3isc3dns5rdata2in5DHCIDC2ERNS0_11MasterLexerEPKNS0_4NameENS0_12MasterLoader7OptionsERNS0_21MasterLoaderCallbacksE
libkea-dns++.so.42:_ZN3isc3dns5rdata2in5DHCIDC2ERNS_4util11InputBufferEm
libkea-dns++.so.42:_ZN3isc3dns5rdata3any10vectorCompERKSt6vectorIhSaIhEES7_
libkea-dns++.so.42:_ZN3isc3dns5rdata3any4TSIG18constructFromLexerERNS0_11MasterLexerEPKNS0_4NameE
libkea-dns++.so.42:_ZN3isc3dns5rdata3any4TSIGC1ERKNS0_4NameEmttPKvtttS8_
libkea-dns++.so.42:_ZN3isc3dns5rdata3any4TSIGC1ERKNSt7__cxx1112basic_stringIcSt11char_traitsIcESaIcEEE
libkea-dns++.so.42:_ZN3isc3dns5rdata3any4TSIGC1ERKS3_
libkea-dns++.so.42:_ZN3isc3dns5rdata3any4TSIGC1ERNS0_11MasterLexerEPKNS0_4NameENS0_12MasterLoader7OptionsERNS0_21MasterLoaderCallbacksE
libkea-dns++.so.42:_ZN3isc3dns5rdata3any4TSIGC1ERNS_4util11InputBufferEm
libkea-dns++.so.42:_ZN3isc3dns5rdata3any4TSIGC2ERKNS0_4NameEmttPKvtttS8_
libkea-dns++.so.42:_ZN3isc3dns5rdata3any4TSIGC2ERKNSt7__cxx1112basic_stringIcSt11char_traitsIcESaIcEEE
libkea-dns++.so.42:_ZN3isc3dns5rdata3any4TSIGC2ERKS3_
libkea-dns++.so.42:_ZN3isc3dns5rdata3any4TSIGC2ERNS0_11MasterLexerEPKNS0_4NameENS0_12MasterLoader7OptionsERNS0_21MasterLoaderCallbacksE
libkea-dns++.so.42:_ZN3isc3dns5rdata3any4TSIGC2ERNS_4util11InputBufferEm
libkea-dns++.so.42:_ZN3isc3dns5rdata3any4TSIGD0Ev
libkea-dns++.so.42:_ZN3isc3dns5rdata3any4TSIGD1Ev
libkea-dns++.so.42:_ZN3isc3dns5rdata3any4TSIGD2Ev
libkea-dns++.so.42:_ZN3isc3dns5rdata3any4TSIGaSERKS3_
libkea-dns++.so.42:_ZN3isc3dns5rdata7generic10NSEC3PARAM18constructFromLexerERNS0_11MasterLexerE
libkea-dns++.so.42:_ZN3isc3dns5rdata7generic10NSEC3PARAMC1ERKNSt7__cxx1112basic_stringIcSt11char_traitsIcESaIcEEE
libkea-dns++.so.42:_ZN3isc3dns5rdata7generic10NSEC3PARAMC1ERKS3_
libkea-dns++.so.42:_ZN3isc3dns5rdata7generic10NSEC3PARAMC1ERNS0_11MasterLexerEPKNS0_4NameENS0_12MasterLoader7OptionsERNS0_21MasterLoaderCallbacksE
libkea-dns++.so.42:_ZN3isc3dns5rdata7generic10NSEC3PARAMC1ERNS_4util11InputBufferEm
libkea-dns++.so.42:_ZN3isc3dns5rdata7generic10NSEC3PARAMC2ERKNSt7__cxx1112basic_stringIcSt11char_traitsIcESaIcEEE
libkea-dns++.so.42:_ZN3isc3dns5rdata7generic10NSEC3PARAMC2ERKS3_
libkea-dns++.so.42:_ZN3isc3dns5rdata7generic10NSEC3PARAMC2ERNS0_11MasterLexerEPKNS0_4NameENS0_12MasterLoader7OptionsERNS0_21MasterLoaderCallbacksE
libkea-dns++.so.42:_ZN3isc3dns5rdata7generic10NSEC3PARAMC2ERNS_4util11InputBufferEm
libkea-dns++.so.42:_ZN3isc3dns5rdata7generic10NSEC3PARAMD0Ev
libkea-dns++.so.42:_ZN3isc3dns5rdata7generic10NSEC3PARAMD1Ev
libkea-dns++.so.42:_ZN3isc3dns5rdata7generic10NSEC3PARAMD2Ev
libkea-dns++.so.42:_ZN3isc3dns5rdata7generic10NSEC3PARAMaSERKS3_
libkea-dns++.so.42:_ZN3isc3dns5rdata7generic10vectorCompERKSt6vectorIhSaIhEES7_
libkea-dns++.so.42:_ZN3isc3dns5rdata7generic2DSC1ERKNSt7__cxx1112basic_stringIcSt11char_traitsIcESaIcEEE
libkea-dns++.so.42:_ZN3isc3dns5rdata7generic2DSC1ERKS3_
libkea-dns++.so.42:_ZN3isc3dns5rdata7generic2DSC1ERNS0_11MasterLexerEPKNS0_4NameENS0_12MasterLoader7OptionsERNS0_21MasterLoaderCallbacksE
libkea-dns++.so.42:_ZN3isc3dns5rdata7generic2DSC1ERNS_4util11InputBufferEm
libkea-dns++.so.42:_ZN3isc3dns5rdata7generic2DSC2ERKNSt7__cxx1112basic_stringIcSt11char_traitsIcESaIcEEE
libkea-dns++.so.42:_ZN3isc3dns5rdata7generic2DSC2ERKS3_
libkea-dns++.so.42:_ZN3isc3dns5rdata7generic2DSC2ERNS0_11MasterLexerEPKNS0_4NameENS0_12MasterLoader7OptionsERNS0_21MasterLoaderCallbacksE
libkea-dns++.so.42:_ZN3isc3dns5rdata7generic2DSC2ERNS_4util11InputBufferEm
libkea-dns++.so.42:_ZN3isc3dns5rdata7generic2DSD0Ev
libkea-dns++.so.42:_ZN3isc3dns5rdata7generic2DSD1Ev
libkea-dns++.so.42:_ZN3isc3dns5rdata7generic2DSD2Ev
libkea-dns++.so.42:_ZN3isc3dns5rdata7generic2DSaSERKS3_
libkea-dns++.so.42:_ZN3isc3dns5rdata7generic2MX18constructFromLexerERNS0_11MasterLexerEPKNS0_4NameE
libkea-dns++.so.42:_ZN3isc3dns5rdata7generic2MXC1ERKNSt7__cxx1112basic_stringIcSt11char_traitsIcESaIcEEE
libkea-dns++.so.42:_ZN3isc3dns5rdata7generic2MXC1ERKS3_
libkea-dns++.so.42:_ZN3isc3dns5rdata7generic2MXC1ERNS0_11MasterLexerEPKNS0_4NameENS0_12MasterLoader7OptionsERNS0_21MasterLoaderCallbacksE
libkea-dns++.so.42:_ZN3isc3dns5rdata7generic2MXC1ERNS_4util11InputBufferEm
libkea-dns++.so.42:_ZN3isc3dns5rdata7generic2MXC1EtRKNS0_4NameE
libkea-dns++.so.42:_ZN3isc3dns5rdata7generic2MXC2ERKNSt7__cxx1112basic_stringIcSt11char_traitsIcESaIcEEE
libkea-dns++.so.42:_ZN3isc3dns5rdata7generic2MXC2ERKS3_
libkea-dns++.so.42:_ZN3isc3dns5rdata7generic2MXC2ERNS0_11MasterLexerEPKNS0_4NameENS0_12MasterLoader7OptionsERNS0_21MasterLoaderCallbacksE
libkea-dns++.so.42:_ZN3isc3dns5rdata7generic2MXC2ERNS_4util11InputBufferEm
libkea-dns++.so.42:_ZN3isc3dns5rdata7generic2MXC2EtRKNS0_4NameE
libkea-dns++.so.42:_ZN3isc3dns5rdata7generic2NSC1ERKNSt7__cxx1112basic_stringIcSt11char_traitsIcESaIcEEE
libkea-dns++.so.42:_ZN3isc3dns5rdata7generic2NSC1ERKS3_
libkea-dns++.so.42:_ZN3isc3dns5rdata7generic2NSC1ERNS0_11MasterLexerEPKNS0_4NameENS0_12MasterLoader7OptionsERNS0_21MasterLoaderCallbacksE
libkea-dns++.so.42:_ZN3isc3dns5rdata7generic2NSC1ERNS_4util11InputBufferEm
libkea-dns++.so.42:_ZN3isc3dns5rdata7generic2NSC2ERKNSt7__cxx1112basic_stringIcSt11char_traitsIcESaIcEEE
libkea-dns++.so.42:_ZN3isc3dns5rdata7generic2NSC2ERKS3_
libkea-dns++.so.42:_ZN3isc3dns5rdata7generic2NSC2ERNS0_11MasterLexerEPKNS0_4NameENS0_12MasterLoader7OptionsERNS0_21MasterLoaderCallbacksE
libkea-dns++.so.42:_ZN3isc3dns5rdata7generic2NSC2ERNS_4util11InputBufferEm
libkea-dns++.so.42:_ZN3isc3dns5rdata7generic2RPC1ERKNSt7__cxx1112basic_stringIcSt11char_traitsIcESaIcEEE
libkea-dns++.so.42:_ZN3isc3dns5rdata7generic2RPC1ERKS3_
libkea-dns++.so.42:_ZN3isc3dns5rdata7generic2RPC1ERNS0_11MasterLexerEPKNS0_4NameENS0_12MasterLoader7OptionsERNS0_21MasterLoaderCallbacksE
libkea-dns++.so.42:_ZN3isc3dns5rdata7generic2RPC1ERNS_4util11InputBufferEm
libkea-dns++.so.42:_ZN3isc3dns5rdata7generic2RPC2ERKNSt7__cxx1112basic_stringIcSt11char_traitsIcESaIcEEE
libkea-dns++.so.42:_ZN3isc3dns5rdata7generic2RPC2ERKS3_
libkea-dns++.so.42:_ZN3isc3dns5rdata7generic2RPC2ERNS0_11MasterLexerEPKNS0_4NameENS0_12MasterLoader7OptionsERNS0_21MasterLoaderCallbacksE
libkea-dns++.so.42:_ZN3isc3dns5rdata7generic2RPC2ERNS_4util11InputBufferEm
libkea-dns++.so.42:_ZN3isc3dns5rdata7generic3CAA18constructFromLexerERNS0_11MasterLexerE
libkea-dns++.so.42:_ZN3isc3dns5rdata7generic3CAAC1ERKNSt7__cxx1112basic_stringIcSt11char_traitsIcESaIcEEE
libkea-dns++.so.42:_ZN3isc3dns5rdata7generic3CAAC1ERKS3_
libkea-dns++.so.42:_ZN3isc3dns5rdata7generic3CAAC1ERNS0_11MasterLexerEPKNS0_4NameENS0_12MasterLoader7OptionsERNS0_21MasterLoaderCallbacksE
libkea-dns++.so.42:_ZN3isc3dns5rdata7generic3CAAC1ERNS_4util11InputBufferEm
libkea-dns++.so.42:_ZN3isc3dns5rdata7generic3CAAC1EhRKNSt7__cxx1112basic_stringIcSt11char_traitsIcESaIcEEESB_
libkea-dns++.so.42:_ZN3isc3dns5rdata7generic3CAAC2ERKNSt7__cxx1112basic_stringIcSt11char_traitsIcESaIcEEE
libkea-dns++.so.42:_ZN3isc3dns5rdata7generic3CAAC2ERKS3_
libkea-dns++.so.42:_ZN3isc3dns5rdata7generic3CAAC2ERNS0_11MasterLexerEPKNS0_4NameENS0_12MasterLoader7OptionsERNS0_21MasterLoaderCallbacksE
libkea-dns++.so.42:_ZN3isc3dns5rdata7generic3CAAC2ERNS_4util11InputBufferEm
libkea-dns++.so.42:_ZN3isc3dns5rdata7generic3CAAC2EhRKNSt7__cxx1112basic_stringIcSt11char_traitsIcESaIcEEESB_
libkea-dns++.so.42:_ZN3isc3dns5rdata7generic3CAAD0Ev
libkea-dns++.so.42:_ZN3isc3dns5rdata7generic3CAAD1Ev
libkea-dns++.so.42:_ZN3isc3dns5rdata7generic3CAAD2Ev
libkea-dns++.so.42:_ZN3isc3dns5rdata7generic3CAAaSERKS3_
libkea-dns++.so.42:_ZN3isc3dns5rdata7generic3DLVC1ERKNSt7__cxx1112basic_stringIcSt11char_traitsIcESaIcEEE
libkea-dns++.so.42:_ZN3isc3dns5rdata7generic3DLVC1ERKS3_
libkea-dns++.so.42:_ZN3isc3dns5rdata7generic3DLVC1ERNS0_11MasterLexerEPKNS0_4NameENS0_12MasterLoader7OptionsERNS0_21MasterLoaderCallbacksE
libkea-dns++.so.42:_ZN3isc3dns5rdata7generic3DLVC1ERNS_4util11InputBufferEm
libkea-dns++.so.42:_ZN3isc3dns5rdata7generic3DLVC2ERKNSt7__cxx1112basic_stringIcSt11char_traitsIcESaIcEEE
libkea-dns++.so.42:_ZN3isc3dns5rdata7generic3DLVC2ERKS3_
libkea-dns++.so.42:_ZN3isc3dns5rdata7generic3DLVC2ERNS0_11MasterLexerEPKNS0_4NameENS0_12MasterLoader7OptionsERNS0_21MasterLoaderCallbacksE
libkea-dns++.so.42:_ZN3isc3dns5rdata7generic3DLVC2ERNS_4util11InputBufferEm
libkea-dns++.so.42:_ZN3isc3dns5rdata7generic3DLVD0Ev
libkea-dns++.so.42:_ZN3isc3dns5rdata7generic3DLVD1Ev
libkea-dns++.so.42:_ZN3isc3dns5rdata7generic3DLVD2Ev
libkea-dns++.so.42:_ZN3isc3dns5rdata7generic3DLVaSERKS3_
libkea-dns++.so.42:_ZN3isc3dns5rdata7generic3OPT14appendPseudoRREtPKht
libkea-dns++.so.42:_ZN3isc3dns5rdata7generic3OPT8PseudoRRC1EtRN5boost10shared_ptrISt6vectorIhSaIhEEEE
libkea-dns++.so.42:_ZN3isc3dns5rdata7generic3OPT8PseudoRRC2EtRN5boost10shared_ptrISt6vectorIhSaIhEEEE
libkea-dns++.so.42:_ZN3isc3dns5rdata7generic3OPTC1ERKNSt7__cxx1112basic_stringIcSt11char_traitsIcESaIcEEE
libkea-dns++.so.42:_ZN3isc3dns5rdata7generic3OPTC1ERKS3_
libkea-dns++.so.42:_ZN3isc3dns5rdata7generic3OPTC1ERNS0_11MasterLexerEPKNS0_4NameENS0_12MasterLoader7OptionsERNS0_21MasterLoaderCallbacksE
libkea-dns++.so.42:_ZN3isc3dns5rdata7generic3OPTC1ERNS_4util11InputBufferEm
libkea-dns++.so.42:_ZN3isc3dns5rdata7generic3OPTC1Ev
libkea-dns++.so.42:_ZN3isc3dns5rdata7generic3OPTC2ERKNSt7__cxx1112basic_stringIcSt11char_traitsIcESaIcEEE
libkea-dns++.so.42:_ZN3isc3dns5rdata7generic3OPTC2ERKS3_
libkea-dns++.so.42:_ZN3isc3dns5rdata7generic3OPTC2ERNS0_11MasterLexerEPKNS0_4NameENS0_12MasterLoader7OptionsERNS0_21MasterLoaderCallbacksE
libkea-dns++.so.42:_ZN3isc3dns5rdata7generic3OPTC2ERNS_4util11InputBufferEm
libkea-dns++.so.42:_ZN3isc3dns5rdata7generic3OPTC2Ev
libkea-dns++.so.42:_ZN3isc3dns5rdata7generic3OPTD0Ev
libkea-dns++.so.42:_ZN3isc3dns5rdata7generic3OPTD1Ev
libkea-dns++.so.42:_ZN3isc3dns5rdata7generic3OPTD2Ev
libkea-dns++.so.42:_ZN3isc3dns5rdata7generic3OPTaSERKS3_
libkea-dns++.so.42:_ZN3isc3dns5rdata7generic3PTRC1ERKNSt7__cxx1112basic_stringIcSt11char_traitsIcESaIcEEE
libkea-dns++.so.42:_ZN3isc3dns5rdata7generic3PTRC1ERKS3_
libkea-dns++.so.42:_ZN3isc3dns5rdata7generic3PTRC1ERNS0_11MasterLexerEPKNS0_4NameENS0_12MasterLoader7OptionsERNS0_21MasterLoaderCallbacksE
libkea-dns++.so.42:_ZN3isc3dns5rdata7generic3PTRC1ERNS_4util11InputBufferEm
libkea-dns++.so.42:_ZN3isc3dns5rdata7generic3PTRC2ERKNSt7__cxx1112basic_stringIcSt11char_traitsIcESaIcEEE
libkea-dns++.so.42:_ZN3isc3dns5rdata7generic3PTRC2ERKS3_
libkea-dns++.so.42:_ZN3isc3dns5rdata7generic3PTRC2ERNS0_11MasterLexerEPKNS0_4NameENS0_12MasterLoader7OptionsERNS0_21MasterLoaderCallbacksE
libkea-dns++.so.42:_ZN3isc3dns5rdata7generic3PTRC2ERNS_4util11InputBufferEm
libkea-dns++.so.42:_ZN3isc3dns5rdata7generic3SOAC1ERKNS0_4NameES6_jjjjj
libkea-dns++.so.42:_ZN3isc3dns5rdata7generic3SOAC1ERKNSt7__cxx1112basic_stringIcSt11char_traitsIcESaIcEEE
libkea-dns++.so.42:_ZN3isc3dns5rdata7generic3SOAC1ERKS3_
libkea-dns++.so.42:_ZN3isc3dns5rdata7generic3SOAC1ERNS0_11MasterLexerEPKNS0_4NameENS0_12MasterLoader7OptionsERNS0_21MasterLoaderCallbacksE
libkea-dns++.so.42:_ZN3isc3dns5rdata7generic3SOAC1ERNS_4util11InputBufferEm
libkea-dns++.so.42:_ZN3isc3dns5rdata7generic3SOAC2ERKNS0_4NameES6_jjjjj
libkea-dns++.so.42:_ZN3isc3dns5rdata7generic3SOAC2ERKNSt7__cxx1112basic_stringIcSt11char_traitsIcESaIcEEE
libkea-dns++.so.42:_ZN3isc3dns5rdata7generic3SOAC2ERKS3_
libkea-dns++.so.42:_ZN3isc3dns5rdata7generic3SOAC2ERNS0_11MasterLexerEPKNS0_4NameENS0_12MasterLoader7OptionsERNS0_21MasterLoaderCallbacksE
libkea-dns++.so.42:_ZN3isc3dns5rdata7generic3SOAC2ERNS_4util11InputBufferEm
libkea-dns++.so.42:_ZN3isc3dns5rdata7generic3SPFC1ERKNSt7__cxx1112basic_stringIcSt11char_traitsIcESaIcEEE
libkea-dns++.so.42:_ZN3isc3dns5rdata7generic3SPFC1ERKS3_
libkea-dns++.so.42:_ZN3isc3dns5rdata7generic3SPFC1ERNS0_11MasterLexerEPKNS0_4NameENS0_12MasterLoader7OptionsERNS0_21MasterLoaderCallbacksE
libkea-dns++.so.42:_ZN3isc3dns5rdata7generic3SPFC1ERNS_4util11InputBufferEm
libkea-dns++.so.42:_ZN3isc3dns5rdata7generic3SPFC2ERKNSt7__cxx1112basic_stringIcSt11char_traitsIcESaIcEEE
libkea-dns++.so.42:_ZN3isc3dns5rdata7generic3SPFC2ERKS3_
libkea-dns++.so.42:_ZN3isc3dns5rdata7generic3SPFC2ERNS0_11MasterLexerEPKNS0_4NameENS0_12MasterLoader7OptionsERNS0_21MasterLoaderCallbacksE
libkea-dns++.so.42:_ZN3isc3dns5rdata7generic3SPFC2ERNS_4util11InputBufferEm
libkea-dns++.so.42:_ZN3isc3dns5rdata7generic3SPFD0Ev
libkea-dns++.so.42:_ZN3isc3dns5rdata7generic3SPFD1Ev
libkea-dns++.so.42:_ZN3isc3dns5rdata7generic3SPFD2Ev
libkea-dns++.so.42:_ZN3isc3dns5rdata7generic3SPFaSERKS3_
libkea-dns++.so.42:_ZN3isc3dns5rdata7generic3TXTC1ERKNSt7__cxx1112basic_stringIcSt11char_traitsIcESaIcEEE
libkea-dns++.so.42:_ZN3isc3dns5rdata7generic3TXTC1ERKS3_
libkea-dns++.so.42:_ZN3isc3dns5rdata7generic3TXTC1ERNS0_11MasterLexerEPKNS0_4NameENS0_12MasterLoader7OptionsERNS0_21MasterLoaderCallbacksE
libkea-dns++.so.42:_ZN3isc3dns5rdata7generic3TXTC1ERNS_4util11InputBufferEm
libkea-dns++.so.42:_ZN3isc3dns5rdata7generic3TXTC2ERKNSt7__cxx1112basic_stringIcSt11char_traitsIcESaIcEEE
libkea-dns++.so.42:_ZN3isc3dns5rdata7generic3TXTC2ERKS3_
libkea-dns++.so.42:_ZN3isc3dns5rdata7generic3TXTC2ERNS0_11MasterLexerEPKNS0_4NameENS0_12MasterLoader7OptionsERNS0_21MasterLoaderCallbacksE
libkea-dns++.so.42:_ZN3isc3dns5rdata7generic3TXTC2ERNS_4util11InputBufferEm
libkea-dns++.so.42:_ZN3isc3dns5rdata7generic3TXTD0Ev
libkea-dns++.so.42:_ZN3isc3dns5rdata7generic3TXTD1Ev
libkea-dns++.so.42:_ZN3isc3dns5rdata7generic3TXTD2Ev
libkea-dns++.so.42:_ZN3isc3dns5rdata7generic3TXTaSERKS3_
libkea-dns++.so.42:_ZN3isc3dns5rdata7generic4NSECC1ERKNSt7__cxx1112basic_stringIcSt11char_traitsIcESaIcEEE
libkea-dns++.so.42:_ZN3isc3dns5rdata7generic4NSECC1ERKS3_
libkea-dns++.so.42:_ZN3isc3dns5rdata7generic4NSECC1ERNS0_11MasterLexerEPKNS0_4NameENS0_12MasterLoader7OptionsERNS0_21MasterLoaderCallbacksE
libkea-dns++.so.42:_ZN3isc3dns5rdata7generic4NSECC1ERNS_4util11InputBufferEm
libkea-dns++.so.42:_ZN3isc3dns5rdata7generic4NSECC2ERKNSt7__cxx1112basic_stringIcSt11char_traitsIcESaIcEEE
libkea-dns++.so.42:_ZN3isc3dns5rdata7generic4NSECC2ERKS3_
libkea-dns++.so.42:_ZN3isc3dns5rdata7generic4NSECC2ERNS0_11MasterLexerEPKNS0_4NameENS0_12MasterLoader7OptionsERNS0_21MasterLoaderCallbacksE
libkea-dns++.so.42:_ZN3isc3dns5rdata7generic4NSECC2ERNS_4util11InputBufferEm
libkea-dns++.so.42:_ZN3isc3dns5rdata7generic4NSECD0Ev
libkea-dns++.so.42:_ZN3isc3dns5rdata7generic4NSECD1Ev
libkea-dns++.so.42:_ZN3isc3dns5rdata7generic4NSECD2Ev
libkea-dns++.so.42:_ZN3isc3dns5rdata7generic4NSECaSERKS3_
libkea-dns++.so.42:_ZN3isc3dns5rdata7generic4TKEY18constructFromLexerERNS0_11MasterLexerEPKNS0_4NameE
libkea-dns++.so.42:_ZN3isc3dns5rdata7generic4TKEYC1ERKNS0_4NameEjjtttPKvtS8_
libkea-dns++.so.42:_ZN3isc3dns5rdata7generic4TKEYC1ERKNSt7__cxx1112basic_stringIcSt11char_traitsIcESaIcEEE
libkea-dns++.so.42:_ZN3isc3dns5rdata7generic4TKEYC1ERKS3_
libkea-dns++.so.42:_ZN3isc3dns5rdata7generic4TKEYC1ERNS0_11MasterLexerEPKNS0_4NameENS0_12MasterLoader7OptionsERNS0_21MasterLoaderCallbacksE
libkea-dns++.so.42:_ZN3isc3dns5rdata7generic4TKEYC1ERNS_4util11InputBufferEm
libkea-dns++.so.42:_ZN3isc3dns5rdata7generic4TKEYC2ERKNS0_4NameEjjtttPKvtS8_
libkea-dns++.so.42:_ZN3isc3dns5rdata7generic4TKEYC2ERKNSt7__cxx1112basic_stringIcSt11char_traitsIcESaIcEEE
libkea-dns++.so.42:_ZN3isc3dns5rdata7generic4TKEYC2ERKS3_
libkea-dns++.so.42:_ZN3isc3dns5rdata7generic4TKEYC2ERNS0_11MasterLexerEPKNS0_4NameENS0_12MasterLoader7OptionsERNS0_21MasterLoaderCallbacksE
libkea-dns++.so.42:_ZN3isc3dns5rdata7generic4TKEYC2ERNS_4util11InputBufferEm
libkea-dns++.so.42:_ZN3isc3dns5rdata7generic4TKEYD0Ev
libkea-dns++.so.42:_ZN3isc3dns5rdata7generic4TKEYD1Ev
libkea-dns++.so.42:_ZN3isc3dns5rdata7generic4TKEYD2Ev
libkea-dns++.so.42:_ZN3isc3dns5rdata7generic4TKEYaSERKS3_
libkea-dns++.so.42:_ZN3isc3dns5rdata7generic4TLSA18constructFromLexerERNS0_11MasterLexerE
libkea-dns++.so.42:_ZN3isc3dns5rdata7generic4TLSAC1ERKNSt7__cxx1112basic_stringIcSt11char_traitsIcESaIcEEE
libkea-dns++.so.42:_ZN3isc3dns5rdata7generic4TLSAC1ERKS3_
libkea-dns++.so.42:_ZN3isc3dns5rdata7generic4TLSAC1ERNS0_11MasterLexerEPKNS0_4NameENS0_12MasterLoader7OptionsERNS0_21MasterLoaderCallbacksE
libkea-dns++.so.42:_ZN3isc3dns5rdata7generic4TLSAC1ERNS_4util11InputBufferEm
libkea-dns++.so.42:_ZN3isc3dns5rdata7generic4TLSAC1EhhhRKNSt7__cxx1112basic_stringIcSt11char_traitsIcESaIcEEE
libkea-dns++.so.42:_ZN3isc3dns5rdata7generic4TLSAC2ERKNSt7__cxx1112basic_stringIcSt11char_traitsIcESaIcEEE
libkea-dns++.so.42:_ZN3isc3dns5rdata7generic4TLSAC2ERKS3_
libkea-dns++.so.42:_ZN3isc3dns5rdata7generic4TLSAC2ERNS0_11MasterLexerEPKNS0_4NameENS0_12MasterLoader7OptionsERNS0_21MasterLoaderCallbacksE
libkea-dns++.so.42:_ZN3isc3dns5rdata7generic4TLSAC2ERNS_4util11InputBufferEm
libkea-dns++.so.42:_ZN3isc3dns5rdata7generic4TLSAC2EhhhRKNSt7__cxx1112basic_stringIcSt11char_traitsIcESaIcEEE
libkea-dns++.so.42:_ZN3isc3dns5rdata7generic4TLSAD0Ev
libkea-dns++.so.42:_ZN3isc3dns5rdata7generic4TLSAD1Ev
libkea-dns++.so.42:_ZN3isc3dns5rdata7generic4TLSAD2Ev
libkea-dns++.so.42:_ZN3isc3dns5rdata7generic4TLSAaSERKS3_
libkea-dns++.so.42:_ZN3isc3dns5rdata7generic5AFSDB15createFromLexerERNS0_11MasterLexerEPKNS0_4NameE
libkea-dns++.so.42:_ZN3isc3dns5rdata7generic5AFSDBC1ERKNSt7__cxx1112basic_stringIcSt11char_traitsIcESaIcEEE
libkea-dns++.so.42:_ZN3isc3dns5rdata7generic5AFSDBC1ERKS3_
libkea-dns++.so.42:_ZN3isc3dns5rdata7generic5AFSDBC1ERNS0_11MasterLexerEPKNS0_4NameENS0_12MasterLoader7OptionsERNS0_21MasterLoaderCallbacksE
libkea-dns++.so.42:_ZN3isc3dns5rdata7generic5AFSDBC1ERNS_4util11InputBufferEm
libkea-dns++.so.42:_ZN3isc3dns5rdata7generic5AFSDBC2ERKNSt7__cxx1112basic_stringIcSt11char_traitsIcESaIcEEE
libkea-dns++.so.42:_ZN3isc3dns5rdata7generic5AFSDBC2ERKS3_
libkea-dns++.so.42:_ZN3isc3dns5rdata7generic5AFSDBC2ERNS0_11MasterLexerEPKNS0_4NameENS0_12MasterLoader7OptionsERNS0_21MasterLoaderCallbacksE
libkea-dns++.so.42:_ZN3isc3dns5rdata7generic5AFSDBC2ERNS_4util11InputBufferEm
libkea-dns++.so.42:_ZN3isc3dns5rdata7generic5AFSDBaSERKS3_
libkea-dns++.so.42:_ZN3isc3dns5rdata7generic5CNAMEC1ERKNS0_4NameE
libkea-dns++.so.42:_ZN3isc3dns5rdata7generic5CNAMEC1ERKNSt7__cxx1112basic_stringIcSt11char_traitsIcESaIcEEE
libkea-dns++.so.42:_ZN3isc3dns5rdata7generic5CNAMEC1ERKS3_
libkea-dns++.so.42:_ZN3isc3dns5rdata7generic5CNAMEC1ERNS0_11MasterLexerEPKNS0_4NameENS0_12MasterLoader7OptionsERNS0_21MasterLoaderCallbacksE
libkea-dns++.so.42:_ZN3isc3dns5rdata7generic5CNAMEC1ERNS_4util11InputBufferEm
libkea-dns++.so.42:_ZN3isc3dns5rdata7generic5CNAMEC2ERKNS0_4NameE
libkea-dns++.so.42:_ZN3isc3dns5rdata7generic5CNAMEC2ERKNSt7__cxx1112basic_stringIcSt11char_traitsIcESaIcEEE
libkea-dns++.so.42:_ZN3isc3dns5rdata7generic5CNAMEC2ERKS3_
libkea-dns++.so.42:_ZN3isc3dns5rdata7generic5CNAMEC2ERNS0_11MasterLexerEPKNS0_4NameENS0_12MasterLoader7OptionsERNS0_21MasterLoaderCallbacksE
libkea-dns++.so.42:_ZN3isc3dns5rdata7generic5CNAMEC2ERNS_4util11InputBufferEm
libkea-dns++.so.42:_ZN3isc3dns5rdata7generic5DNAMEC1ERKNS0_4NameE
libkea-dns++.so.42:_ZN3isc3dns5rdata7generic5DNAMEC1ERKNSt7__cxx1112basic_stringIcSt11char_traitsIcESaIcEEE
libkea-dns++.so.42:_ZN3isc3dns5rdata7generic5DNAMEC1ERKS3_
libkea-dns++.so.42:_ZN3isc3dns5rdata7generic5DNAMEC1ERNS0_11MasterLexerEPKNS0_4NameENS0_12MasterLoader7OptionsERNS0_21MasterLoaderCallbacksE
libkea-dns++.so.42:_ZN3isc3dns5rdata7generic5DNAMEC1ERNS_4util11InputBufferEm
libkea-dns++.so.42:_ZN3isc3dns5rdata7generic5DNAMEC2ERKNS0_4NameE
libkea-dns++.so.42:_ZN3isc3dns5rdata7generic5DNAMEC2ERKNSt7__cxx1112basic_stringIcSt11char_traitsIcESaIcEEE
libkea-dns++.so.42:_ZN3isc3dns5rdata7generic5DNAMEC2ERKS3_
libkea-dns++.so.42:_ZN3isc3dns5rdata7generic5DNAMEC2ERNS0_11MasterLexerEPKNS0_4NameENS0_12MasterLoader7OptionsERNS0_21MasterLoaderCallbacksE
libkea-dns++.so.42:_ZN3isc3dns5rdata7generic5DNAMEC2ERNS_4util11InputBufferEm
libkea-dns++.so.42:_ZN3isc3dns5rdata7generic5HINFOC1ERKNSt7__cxx1112basic_stringIcSt11char_traitsIcESaIcEEE
libkea-dns++.so.42:_ZN3isc3dns5rdata7generic5HINFOC1ERKS3_
libkea-dns++.so.42:_ZN3isc3dns5rdata7generic5HINFOC1ERNS0_11MasterLexerEPKNS0_4NameENS0_12MasterLoader7OptionsERNS0_21MasterLoaderCallbacksE
libkea-dns++.so.42:_ZN3isc3dns5rdata7generic5HINFOC1ERNS_4util11InputBufferEm
libkea-dns++.so.42:_ZN3isc3dns5rdata7generic5HINFOC2ERKNSt7__cxx1112basic_stringIcSt11char_traitsIcESaIcEEE
libkea-dns++.so.42:_ZN3isc3dns5rdata7generic5HINFOC2ERKS3_
libkea-dns++.so.42:_ZN3isc3dns5rdata7generic5HINFOC2ERNS0_11MasterLexerEPKNS0_4NameENS0_12MasterLoader7OptionsERNS0_21MasterLoaderCallbacksE
libkea-dns++.so.42:_ZN3isc3dns5rdata7generic5HINFOC2ERNS_4util11InputBufferEm
libkea-dns++.so.42:_ZN3isc3dns5rdata7generic5HINFOD0Ev
libkea-dns++.so.42:_ZN3isc3dns5rdata7generic5HINFOD1Ev
libkea-dns++.so.42:_ZN3isc3dns5rdata7generic5HINFOD2Ev
libkea-dns++.so.42:_ZN3isc3dns5rdata7generic5HINFOaSERKS3_
libkea-dns++.so.42:_ZN3isc3dns5rdata7generic5MINFOC1ERKNSt7__cxx1112basic_stringIcSt11char_traitsIcESaIcEEE
libkea-dns++.so.42:_ZN3isc3dns5rdata7generic5MINFOC1ERKS3_
libkea-dns++.so.42:_ZN3isc3dns5rdata7generic5MINFOC1ERNS0_11MasterLexerEPKNS0_4NameENS0_12MasterLoader7OptionsERNS0_21MasterLoaderCallbacksE
libkea-dns++.so.42:_ZN3isc3dns5rdata7generic5MINFOC1ERNS_4util11InputBufferEm
libkea-dns++.so.42:_ZN3isc3dns5rdata7generic5MINFOC2ERKNSt7__cxx1112basic_stringIcSt11char_traitsIcESaIcEEE
libkea-dns++.so.42:_ZN3isc3dns5rdata7generic5MINFOC2ERKS3_
libkea-dns++.so.42:_ZN3isc3dns5rdata7generic5MINFOC2ERNS0_11MasterLexerEPKNS0_4NameENS0_12MasterLoader7OptionsERNS0_21MasterLoaderCallbacksE
libkea-dns++.so.42:_ZN3isc3dns5rdata7generic5MINFOC2ERNS_4util11InputBufferEm
libkea-dns++.so.42:_ZN3isc3dns5rdata7generic5MINFOaSERKS3_
libkea-dns++.so.42:_ZN3isc3dns5rdata7generic5NAPTRC1ERKNSt7__cxx1112basic_stringIcSt11char_traitsIcESaIcEEE
libkea-dns++.so.42:_ZN3isc3dns5rdata7generic5NAPTRC1ERKS3_
libkea-dns++.so.42:_ZN3isc3dns5rdata7generic5NAPTRC1ERNS0_11MasterLexerEPKNS0_4NameENS0_12MasterLoader7OptionsERNS0_21MasterLoaderCallbacksE
libkea-dns++.so.42:_ZN3isc3dns5rdata7generic5NAPTRC1ERNS_4util11InputBufferEm
libkea-dns++.so.42:_ZN3isc3dns5rdata7generic5NAPTRC2ERKNSt7__cxx1112basic_stringIcSt11char_traitsIcESaIcEEE
libkea-dns++.so.42:_ZN3isc3dns5rdata7generic5NAPTRC2ERKS3_
libkea-dns++.so.42:_ZN3isc3dns5rdata7generic5NAPTRC2ERNS0_11MasterLexerEPKNS0_4NameENS0_12MasterLoader7OptionsERNS0_21MasterLoaderCallbacksE
libkea-dns++.so.42:_ZN3isc3dns5rdata7generic5NAPTRC2ERNS_4util11InputBufferEm
libkea-dns++.so.42:_ZN3isc3dns5rdata7generic5NAPTRD0Ev
libkea-dns++.so.42:_ZN3isc3dns5rdata7generic5NAPTRD1Ev
libkea-dns++.so.42:_ZN3isc3dns5rdata7generic5NAPTRD2Ev
libkea-dns++.so.42:_ZN3isc3dns5rdata7generic5NAPTRaSERKS3_
libkea-dns++.so.42:_ZN3isc3dns5rdata7generic5NSEC318constructFromLexerERNS0_11MasterLexerE
libkea-dns++.so.42:_ZN3isc3dns5rdata7generic5NSEC3C1ERKNSt7__cxx1112basic_stringIcSt11char_traitsIcESaIcEEE
libkea-dns++.so.42:_ZN3isc3dns5rdata7generic5NSEC3C1ERKS3_
libkea-dns++.so.42:_ZN3isc3dns5rdata7generic5NSEC3C1ERNS0_11MasterLexerEPKNS0_4NameENS0_12MasterLoader7OptionsERNS0_21MasterLoaderCallbacksE
libkea-dns++.so.42:_ZN3isc3dns5rdata7generic5NSEC3C1ERNS_4util11InputBufferEm
libkea-dns++.so.42:_ZN3isc3dns5rdata7generic5NSEC3C2ERKNSt7__cxx1112basic_stringIcSt11char_traitsIcESaIcEEE
libkea-dns++.so.42:_ZN3isc3dns5rdata7generic5NSEC3C2ERKS3_
libkea-dns++.so.42:_ZN3isc3dns5rdata7generic5NSEC3C2ERNS0_11MasterLexerEPKNS0_4NameENS0_12MasterLoader7OptionsERNS0_21MasterLoaderCallbacksE
libkea-dns++.so.42:_ZN3isc3dns5rdata7generic5NSEC3C2ERNS_4util11InputBufferEm
libkea-dns++.so.42:_ZN3isc3dns5rdata7generic5NSEC3D0Ev
libkea-dns++.so.42:_ZN3isc3dns5rdata7generic5NSEC3D1Ev
libkea-dns++.so.42:_ZN3isc3dns5rdata7generic5NSEC3D2Ev
libkea-dns++.so.42:_ZN3isc3dns5rdata7generic5NSEC3aSERKS3_
libkea-dns++.so.42:_ZN3isc3dns5rdata7generic5RRSIG18constructFromLexerERNS0_11MasterLexerEPKNS0_4NameE
libkea-dns++.so.42:_ZN3isc3dns5rdata7generic5RRSIGC1ERKNSt7__cxx1112basic_stringIcSt11char_traitsIcESaIcEEE
libkea-dns++.so.42:_ZN3isc3dns5rdata7generic5RRSIGC1ERKS3_
libkea-dns++.so.42:_ZN3isc3dns5rdata7generic5RRSIGC1ERNS0_11MasterLexerEPKNS0_4NameENS0_12MasterLoader7OptionsERNS0_21MasterLoaderCallbacksE
libkea-dns++.so.42:_ZN3isc3dns5rdata7generic5RRSIGC1ERNS_4util11InputBufferEm
libkea-dns++.so.42:_ZN3isc3dns5rdata7generic5RRSIGC2ERKNSt7__cxx1112basic_stringIcSt11char_traitsIcESaIcEEE
libkea-dns++.so.42:_ZN3isc3dns5rdata7generic5RRSIGC2ERKS3_
libkea-dns++.so.42:_ZN3isc3dns5rdata7generic5RRSIGC2ERNS0_11MasterLexerEPKNS0_4NameENS0_12MasterLoader7OptionsERNS0_21MasterLoaderCallbacksE
libkea-dns++.so.42:_ZN3isc3dns5rdata7generic5RRSIGC2ERNS_4util11InputBufferEm
libkea-dns++.so.42:_ZN3isc3dns5rdata7generic5RRSIGD0Ev
libkea-dns++.so.42:_ZN3isc3dns5rdata7generic5RRSIGD1Ev
libkea-dns++.so.42:_ZN3isc3dns5rdata7generic5RRSIGD2Ev
libkea-dns++.so.42:_ZN3isc3dns5rdata7generic5RRSIGaSERKS3_
libkea-dns++.so.42:_ZN3isc3dns5rdata7generic5SSHFP18constructFromLexerERNS0_11MasterLexerE
libkea-dns++.so.42:_ZN3isc3dns5rdata7generic5SSHFPC1ERKNSt7__cxx1112basic_stringIcSt11char_traitsIcESaIcEEE
libkea-dns++.so.42:_ZN3isc3dns5rdata7generic5SSHFPC1ERKS3_
libkea-dns++.so.42:_ZN3isc3dns5rdata7generic5SSHFPC1ERNS0_11MasterLexerEPKNS0_4NameENS0_12MasterLoader7OptionsERNS0_21MasterLoaderCallbacksE
libkea-dns++.so.42:_ZN3isc3dns5rdata7generic5SSHFPC1ERNS_4util11InputBufferEm
libkea-dns++.so.42:_ZN3isc3dns5rdata7generic5SSHFPC1EhhRKNSt7__cxx1112basic_stringIcSt11char_traitsIcESaIcEEE
libkea-dns++.so.42:_ZN3isc3dns5rdata7generic5SSHFPC2ERKNSt7__cxx1112basic_stringIcSt11char_traitsIcESaIcEEE
libkea-dns++.so.42:_ZN3isc3dns5rdata7generic5SSHFPC2ERKS3_
libkea-dns++.so.42:_ZN3isc3dns5rdata7generic5SSHFPC2ERNS0_11MasterLexerEPKNS0_4NameENS0_12MasterLoader7OptionsERNS0_21MasterLoaderCallbacksE
libkea-dns++.so.42:_ZN3isc3dns5rdata7generic5SSHFPC2ERNS_4util11InputBufferEm
libkea-dns++.so.42:_ZN3isc3dns5rdata7generic5SSHFPC2EhhRKNSt7__cxx1112basic_stringIcSt11char_traitsIcESaIcEEE
libkea-dns++.so.42:_ZN3isc3dns5rdata7generic5SSHFPD0Ev
libkea-dns++.so.42:_ZN3isc3dns5rdata7generic5SSHFPD1Ev
libkea-dns++.so.42:_ZN3isc3dns5rdata7generic5SSHFPD2Ev
libkea-dns++.so.42:_ZN3isc3dns5rdata7generic5SSHFPaSERKS3_
libkea-dns++.so.42:_ZN3isc3dns5rdata7generic6DNSKEY18constructFromLexerERNS0_11MasterLexerE
libkea-dns++.so.42:_ZN3isc3dns5rdata7generic6DNSKEYC1ERKNSt7__cxx1112basic_stringIcSt11char_traitsIcESaIcEEE
libkea-dns++.so.42:_ZN3isc3dns5rdata7generic6DNSKEYC1ERKS3_
libkea-dns++.so.42:_ZN3isc3dns5rdata7generic6DNSKEYC1ERNS0_11MasterLexerEPKNS0_4NameENS0_12MasterLoader7OptionsERNS0_21MasterLoaderCallbacksE
libkea-dns++.so.42:_ZN3isc3dns5rdata7generic6DNSKEYC1ERNS_4util11InputBufferEm
libkea-dns++.so.42:_ZN3isc3dns5rdata7generic6DNSKEYC2ERKNSt7__cxx1112basic_stringIcSt11char_traitsIcESaIcEEE
libkea-dns++.so.42:_ZN3isc3dns5rdata7generic6DNSKEYC2ERKS3_
libkea-dns++.so.42:_ZN3isc3dns5rdata7generic6DNSKEYC2ERNS0_11MasterLexerEPKNS0_4NameENS0_12MasterLoader7OptionsERNS0_21MasterLoaderCallbacksE
libkea-dns++.so.42:_ZN3isc3dns5rdata7generic6DNSKEYC2ERNS_4util11InputBufferEm
libkea-dns++.so.42:_ZN3isc3dns5rdata7generic6DNSKEYD0Ev
libkea-dns++.so.42:_ZN3isc3dns5rdata7generic6DNSKEYD1Ev
libkea-dns++.so.42:_ZN3isc3dns5rdata7generic6DNSKEYD2Ev
libkea-dns++.so.42:_ZN3isc3dns5rdata7generic6DNSKEYaSERKS3_
libkea-dns++.so.42:_ZN3isc3dns5rdata7generic6detail18bufferToCharStringERNS_4util11InputBufferEmRSt6vectorIhSaIhEE
libkea-dns++.so.42:_ZN3isc3dns5rdata7generic6detail18charStringToStringB5cxx11ERKSt6vectorIhSaIhEE
libkea-dns++.so.42:_ZN3isc3dns5rdata7generic6detail18compareCharStringsERKSt6vectorIhSaIhEES8_
libkea-dns++.so.42:_ZN3isc3dns5rdata7generic6detail18stringToCharStringERKNS0_11MasterToken12StringRegionERSt6vectorIhSaIhEE
libkea-dns++.so.42:_ZN3isc3dns5rdata7generic6detail22charStringDataToStringB5cxx11ERKSt6vectorIhSaIhEE
libkea-dns++.so.42:_ZN3isc3dns5rdata7generic6detail22compareCharStringDatasERKSt6vectorIhSaIhEES8_
libkea-dns++.so.42:_ZN3isc3dns5rdata7generic6detail22stringToCharStringDataERKNS0_11MasterToken12StringRegionERSt6vectorIhSaIhEE
libkea-dns++.so.42:_ZN3isc3dns5rdata7generic6detail4nsec13bitmapsToTextERKSt6vectorIhSaIhEERNSt7__cxx1119basic_ostringstreamIcSt11char_traitsIcESaIcEEE
libkea-dns++.so.42:_ZN3isc3dns5rdata7generic6detail4nsec18checkRRTypeBitmapsEPKcRKSt6vectorIhSaIhEE
libkea-dns++.so.42:_ZN3isc3dns5rdata7generic6detail4nsec21buildBitmapsFromLexerEPKcRNS0_11MasterLexerERSt6vectorIhSaIhEEb
libkea-dns++.so.42:_ZN3isc3dns5rdata7generic6detail5nsec319parseNSEC3ParamWireEPKcRNS_4util11InputBufferERmRSt6vectorIhSaIhEE
libkea-dns++.so.42:_ZN3isc3dns5rdata7generic6detail5nsec324parseNSEC3ParamFromLexerEPKcRNS0_11MasterLexerERSt6vectorIhSaIhEE
libkea-dns++.so.42:_ZN3isc3dns5rdata7generic7Generic18constructFromLexerERNS0_11MasterLexerE
libkea-dns++.so.42:_ZN3isc3dns5rdata7generic7GenericC1ERKNSt7__cxx1112basic_stringIcSt11char_traitsIcESaIcEEE
libkea-dns++.so.42:_ZN3isc3dns5rdata7generic7GenericC1ERKS3_
libkea-dns++.so.42:_ZN3isc3dns5rdata7generic7GenericC1ERNS0_11MasterLexerEPKNS0_4NameENS0_12MasterLoader7OptionsERNS0_21MasterLoaderCallbacksE
libkea-dns++.so.42:_ZN3isc3dns5rdata7generic7GenericC1ERNS_4util11InputBufferEm
libkea-dns++.so.42:_ZN3isc3dns5rdata7generic7GenericC2ERKNSt7__cxx1112basic_stringIcSt11char_traitsIcESaIcEEE
libkea-dns++.so.42:_ZN3isc3dns5rdata7generic7GenericC2ERKS3_
libkea-dns++.so.42:_ZN3isc3dns5rdata7generic7GenericC2ERNS0_11MasterLexerEPKNS0_4NameENS0_12MasterLoader7OptionsERNS0_21MasterLoaderCallbacksE
libkea-dns++.so.42:_ZN3isc3dns5rdata7generic7GenericC2ERNS_4util11InputBufferEm
libkea-dns++.so.42:_ZN3isc3dns5rdata7generic7GenericD0Ev
libkea-dns++.so.42:_ZN3isc3dns5rdata7generic7GenericD1Ev
libkea-dns++.so.42:_ZN3isc3dns5rdata7generic7GenericD2Ev
libkea-dns++.so.42:_ZN3isc3dns5rdata7generic7GenericaSERKS3_
libkea-dns++.so.42:_ZN3isc3dns5rdata7genericlsERSoRKNS2_7GenericE
libkea-dns++.so.42:_ZN3isc3dns6OpcodeC1Eh
libkea-dns++.so.42:_ZN3isc3dns6OpcodeC2Eh
libkea-dns++.so.42:_ZN3isc3dns6RRTypeC1ERKNSt7__cxx1112basic_stringIcSt11char_traitsIcESaIcEEE
libkea-dns++.so.42:_ZN3isc3dns6RRTypeC1ERNS_4util11InputBufferE
libkea-dns++.so.42:_ZN3isc3dns6RRTypeC2ERKNSt7__cxx1112basic_stringIcSt11char_traitsIcESaIcEEE
libkea-dns++.so.42:_ZN3isc3dns6RRTypeC2ERNS_4util11InputBufferE
libkea-dns++.so.42:_ZN3isc3dns7Message11addQuestionEN5boost10shared_ptrINS0_8QuestionEEE
libkea-dns++.so.42:_ZN3isc3dns7Message11addQuestionERKNS0_8QuestionE
libkea-dns++.so.42:_ZN3isc3dns7Message11parseHeaderERNS_4util11InputBufferE
libkea-dns++.so.42:_ZN3isc3dns7Message11removeRRsetENS1_7SectionERNS0_15SectionIteratorIN5boost10shared_ptrINS0_13AbstractRRsetEEEEE
libkea-dns++.so.42:_ZN3isc3dns7Message12clearSectionENS1_7SectionE
libkea-dns++.so.42:_ZN3isc3dns7Message12makeResponseEv
libkea-dns++.so.42:_ZN3isc3dns7Message13appendSectionENS1_7SectionERKS1_
libkea-dns++.so.42:_ZN3isc3dns7Message13setHeaderFlagENS1_10HeaderFlagEb
libkea-dns++.so.42:_ZN3isc3dns7Message5clearENS1_4ModeE
libkea-dns++.so.42:_ZN3isc3dns7Message6setQidEt
libkea-dns++.so.42:_ZN3isc3dns7Message6toWireERNS0_23AbstractMessageRendererEPNS0_11TSIGContextE
libkea-dns++.so.42:_ZN3isc3dns7Message7setEDNSEN5boost10shared_ptrIKNS0_4EDNSEEE
libkea-dns++.so.42:_ZN3isc3dns7Message8addRRsetENS1_7SectionEN5boost10shared_ptrINS0_13AbstractRRsetEEE
libkea-dns++.so.42:_ZN3isc3dns7Message8fromWireERNS_4util11InputBufferENS1_12ParseOptionsE
libkea-dns++.so.42:_ZN3isc3dns7Message8setRcodeERKNS0_5RcodeE
libkea-dns++.so.42:_ZN3isc3dns7Message9setOpcodeERKNS0_6OpcodeE
libkea-dns++.so.42:_ZN3isc3dns7MessageC1ENS1_4ModeE
libkea-dns++.so.42:_ZN3isc3dns7MessageC2ENS1_4ModeE
libkea-dns++.so.42:_ZN3isc3dns7RRClass14createFromTextERKNSt7__cxx1112basic_stringIcSt11char_traitsIcESaIcEEE
libkea-dns++.so.42:_ZN3isc3dns7RRClassC1ERKNSt7__cxx1112basic_stringIcSt11char_traitsIcESaIcEEE
libkea-dns++.so.42:_ZN3isc3dns7RRClassC1ERNS_4util11InputBufferE
libkea-dns++.so.42:_ZN3isc3dns7RRClassC2ERKNSt7__cxx1112basic_stringIcSt11char_traitsIcESaIcEEE
libkea-dns++.so.42:_ZN3isc3dns7RRClassC2ERNS_4util11InputBufferE
libkea-dns++.so.42:_ZN3isc3dns7TSIGKey12GSSTSIG_NAMEEv
libkea-dns++.so.42:_ZN3isc3dns7TSIGKey12HMACMD5_NAMEEv
libkea-dns++.so.42:_ZN3isc3dns7TSIGKey13HMACSHA1_NAMEEv
libkea-dns++.so.42:_ZN3isc3dns7TSIGKey15HMACSHA224_NAMEEv
libkea-dns++.so.42:_ZN3isc3dns7TSIGKey15HMACSHA256_NAMEEv
libkea-dns++.so.42:_ZN3isc3dns7TSIGKey15HMACSHA384_NAMEEv
libkea-dns++.so.42:_ZN3isc3dns7TSIGKey15HMACSHA512_NAMEEv
libkea-dns++.so.42:_ZN3isc3dns7TSIGKey18HMACMD5_SHORT_NAMEEv
libkea-dns++.so.42:_ZN3isc3dns7TSIGKeyC1ERKNS0_4NameES4_PKvmm
libkea-dns++.so.42:_ZN3isc3dns7TSIGKeyC1ERKNSt7__cxx1112basic_stringIcSt11char_traitsIcESaIcEEE
libkea-dns++.so.42:_ZN3isc3dns7TSIGKeyC1ERKS1_
libkea-dns++.so.42:_ZN3isc3dns7TSIGKeyC2ERKNS0_4NameES4_PKvmm
libkea-dns++.so.42:_ZN3isc3dns7TSIGKeyC2ERKNSt7__cxx1112basic_stringIcSt11char_traitsIcESaIcEEE
libkea-dns++.so.42:_ZN3isc3dns7TSIGKeyC2ERKS1_
libkea-dns++.so.42:_ZN3isc3dns7TSIGKeyD0Ev
libkea-dns++.so.42:_ZN3isc3dns7TSIGKeyD1Ev
libkea-dns++.so.42:_ZN3isc3dns7TSIGKeyD2Ev
libkea-dns++.so.42:_ZN3isc3dns7TSIGKeyaSERKS1_
libkea-dns++.so.42:_ZN3isc3dns8QuestionC1ERNS_4util11InputBufferE
libkea-dns++.so.42:_ZN3isc3dns8QuestionC2ERNS_4util11InputBufferE
libkea-dns++.so.42:_ZN3isc3dns9NSEC3Hash6createERKNS0_5rdata7generic10NSEC3PARAME
libkea-dns++.so.42:_ZN3isc3dns9NSEC3Hash6createERKNS0_5rdata7generic5NSEC3E
libkea-dns++.so.42:_ZN3isc3dns9NSEC3Hash6createEhtPKhm
libkea-dns++.so.42:_ZN3isc3dns9TSIGErrorC1ENS0_5RcodeE
libkea-dns++.so.42:_ZN3isc3dns9TSIGErrorC2ENS0_5RcodeE
libkea-dns++.so.42:_ZN3isc3dns9checkZoneERKNS0_4NameERKNS0_7RRClassERKNS0_19RRsetCollectionBaseERKNS0_20ZoneCheckerCallbacksE
libkea-dns++.so.42:_ZN3isc3dnslsERSoRKNS0_10TSIGRecordE
libkea-dns++.so.42:_ZN3isc3dnslsERSoRKNS0_13AbstractRRsetE
libkea-dns++.so.42:_ZN3isc3dnslsERSoRKNS0_13LabelSequenceE
libkea-dns++.so.42:_ZN3isc3dnslsERSoRKNS0_4EDNSE
libkea-dns++.so.42:_ZN3isc3dnslsERSoRKNS0_4NameE
libkea-dns++.so.42:_ZN3isc3dnslsERSoRKNS0_5RRTTLE
libkea-dns++.so.42:_ZN3isc3dnslsERSoRKNS0_5RcodeE
libkea-dns++.so.42:_ZN3isc3dnslsERSoRKNS0_6OpcodeE
libkea-dns++.so.42:_ZN3isc3dnslsERSoRKNS0_6RRTypeE
libkea-dns++.so.42:_ZN3isc3dnslsERSoRKNS0_6SerialE
libkea-dns++.so.42:_ZN3isc3dnslsERSoRKNS0_7MessageE
libkea-dns++.so.42:_ZN3isc3dnslsERSoRKNS0_7RRClassE
libkea-dns++.so.42:_ZN3isc3dnslsERSoRKNS0_8QuestionE
libkea-dns++.so.42:_ZN3isc3dnslsERSoRKNS0_9TSIGErrorE
libkea-dns++.so.42:_ZN5boost2io6detail13call_put_headIcSt11char_traitsIcEKiEEvRSt13basic_ostreamIT_T0_EPKv
libkea-dns++.so.42:_ZN5boost2io6detail13call_put_headIcSt11char_traitsIcEcEEvRSt13basic_ostreamIT_T0_EPKv
libkea-dns++.so.42:_ZN5boost2io6detail13call_put_headIcSt11char_traitsIcEjEEvRSt13basic_ostreamIT_T0_EPKv
libkea-dns++.so.42:_ZN5boost2io6detail13call_put_lastIcSt11char_traitsIcEKiEEvRSt13basic_ostreamIT_T0_EPKv
libkea-dns++.so.42:_ZN5boost2io6detail13call_put_lastIcSt11char_traitsIcEcEEvRSt13basic_ostreamIT_T0_EPKv
libkea-dns++.so.42:_ZN5boost2io6detail13call_put_lastIcSt11char_traitsIcEjEEvRSt13basic_ostreamIT_T0_EPKv
libkea-dns++.so.42:_ZNK3isc3dns10BasicRRset13getRdataCountEv
libkea-dns++.so.42:_ZNK3isc3dns10BasicRRset16getRdataIteratorEv
libkea-dns++.so.42:_ZNK3isc3dns10BasicRRset6getTTLEv
libkea-dns++.so.42:_ZNK3isc3dns10BasicRRset6toTextB5cxx11Ev
libkea-dns++.so.42:_ZNK3isc3dns10BasicRRset6toWireERNS0_23AbstractMessageRendererE
libkea-dns++.so.42:_ZNK3isc3dns10BasicRRset6toWireERNS_4util12OutputBufferE
libkea-dns++.so.42:_ZNK3isc3dns10BasicRRset7getNameEv
libkea-dns++.so.42:_ZNK3isc3dns10BasicRRset7getTypeEv
libkea-dns++.so.42:_ZNK3isc3dns10BasicRRset8getClassEv
libkea-dns++.so.42:_ZNK3isc3dns10BasicRRset9getLengthEv
libkea-dns++.so.42:_ZNK3isc3dns10TSIGRecord6toTextB5cxx11Ev
libkea-dns++.so.42:_ZNK3isc3dns10TSIGRecord6toWireERNS0_23AbstractMessageRendererE
libkea-dns++.so.42:_ZNK3isc3dns10TSIGRecord6toWireERNS_4util12OutputBufferE
libkea-dns++.so.42:_ZNK3isc3dns11MasterLexer11getPositionEv
libkea-dns++.so.42:_ZNK3isc3dns11MasterLexer13getSourceLineEv
libkea-dns++.so.42:_ZNK3isc3dns11MasterLexer13getSourceNameB5cxx11Ev
libkea-dns++.so.42:_ZNK3isc3dns11MasterLexer14getSourceCountEv
libkea-dns++.so.42:_ZNK3isc3dns11MasterLexer18getTotalSourceSizeEv
libkea-dns++.so.42:_ZNK3isc3dns11MasterToken12getErrorTextB5cxx11Ev
libkea-dns++.so.42:_ZNK3isc3dns11TSIGContext13getTSIGLengthEv
libkea-dns++.so.42:_ZNK3isc3dns11TSIGContext15TSIGContextImpl16digestDNSMessageEN5boost10shared_ptrINS_10cryptolink4HMACEEEtPKvm
libkea-dns++.so.42:_ZNK3isc3dns11TSIGContext15TSIGContextImpl19digestTSIGVariablesEN5boost10shared_ptrINS_10cryptolink4HMACEEEtjmtttPKvb
libkea-dns++.so.42:_ZNK3isc3dns11TSIGContext16lastHadSignatureEv
libkea-dns++.so.42:_ZNK3isc3dns11TSIGContext8getErrorEv
libkea-dns++.so.42:_ZNK3isc3dns11TSIGContext8getStateEv
libkea-dns++.so.42:_ZNK3isc3dns11TSIGKeyRing4findERKNS0_4NameE
libkea-dns++.so.42:_ZNK3isc3dns11TSIGKeyRing4findERKNS0_4NameES4_
libkea-dns++.so.42:_ZNK3isc3dns11TSIGKeyRing4sizeEv
libkea-dns++.so.42:_ZNK3isc3dns12MasterLoader11getPositionEv
libkea-dns++.so.42:_ZNK3isc3dns12MasterLoader18loadedSuccessfullyEv
libkea-dns++.so.42:_ZNK3isc3dns12MasterLoader7getSizeEv
libkea-dns++.so.42:_ZNK3isc3dns13AbstractRRset10isSameKindERKS1_
libkea-dns++.so.42:_ZNK3isc3dns13AbstractRRset6toTextB5cxx11Ev
libkea-dns++.so.42:_ZNK3isc3dns13AbstractRRset6toWireERNS0_23AbstractMessageRendererE
libkea-dns++.so.42:_ZNK3isc3dns13AbstractRRset6toWireERNS_4util12OutputBufferE
libkea-dns++.so.42:_ZNK3isc3dns13LabelSequence10isAbsoluteEv
libkea-dns++.so.42:_ZNK3isc3dns13LabelSequence13getDataLengthEv
libkea-dns++.so.42:_ZNK3isc3dns13LabelSequence19getSerializedLengthEv
libkea-dns++.so.42:_ZNK3isc3dns13LabelSequence6equalsERKS1_b
libkea-dns++.so.42:_ZNK3isc3dns13LabelSequence6toTextB5cxx11Eb
libkea-dns++.so.42:_ZNK3isc3dns13LabelSequence6toTextB5cxx11Ev
libkea-dns++.so.42:_ZNK3isc3dns13LabelSequence7compareERKS1_b
libkea-dns++.so.42:_ZNK3isc3dns13LabelSequence7getDataEPm
libkea-dns++.so.42:_ZNK3isc3dns13LabelSequence7getHashEb
libkea-dns++.so.42:_ZNK3isc3dns13LabelSequence9serializeEPvm
libkea-dns++.so.42:_ZNK3isc3dns13LabelSequence9toRawTextB5cxx11Eb
libkea-dns++.so.42:_ZNK3isc3dns14BasicRRsetImpl6toWireERNS0_23AbstractMessageRendererEm
libkea-dns++.so.42:_ZNK3isc3dns15MessageRenderer11isTruncatedEv
libkea-dns++.so.42:_ZNK3isc3dns15MessageRenderer14getLengthLimitEv
libkea-dns++.so.42:_ZNK3isc3dns15MessageRenderer15getCompressModeEv
libkea-dns++.so.42:_ZNK3isc3dns15RRParamRegistry14codeToTypeTextB5cxx11Et
libkea-dns++.so.42:_ZNK3isc3dns15RRParamRegistry14textToTypeCodeERKNSt7__cxx1112basic_stringIcSt11char_traitsIcESaIcEEERt
libkea-dns++.so.42:_ZNK3isc3dns15RRParamRegistry15codeToClassTextB5cxx11Et
libkea-dns++.so.42:_ZNK3isc3dns15RRParamRegistry15textToClassCodeERKNSt7__cxx1112basic_stringIcSt11char_traitsIcESaIcEEERt
libkea-dns++.so.42:_ZNK3isc3dns15RRsetCollection4findERKNS0_4NameERKNS0_7RRClassERKNS0_6RRTypeE
libkea-dns++.so.42:_ZNK3isc3dns15SectionIteratorIN5boost10shared_ptrINS0_13AbstractRRsetEEEEdeEv
libkea-dns++.so.42:_ZNK3isc3dns15SectionIteratorIN5boost10shared_ptrINS0_13AbstractRRsetEEEEeqERKS6_
libkea-dns++.so.42:_ZNK3isc3dns15SectionIteratorIN5boost10shared_ptrINS0_13AbstractRRsetEEEEneERKS6_
libkea-dns++.so.42:_ZNK3isc3dns15SectionIteratorIN5boost10shared_ptrINS0_13AbstractRRsetEEEEptEv
libkea-dns++.so.42:_ZNK3isc3dns15SectionIteratorIN5boost10shared_ptrINS0_8QuestionEEEEdeEv
libkea-dns++.so.42:_ZNK3isc3dns15SectionIteratorIN5boost10shared_ptrINS0_8QuestionEEEEeqERKS6_
libkea-dns++.so.42:_ZNK3isc3dns15SectionIteratorIN5boost10shared_ptrINS0_8QuestionEEEEneERKS6_
libkea-dns++.so.42:_ZNK3isc3dns15SectionIteratorIN5boost10shared_ptrINS0_8QuestionEEEEptEv
libkea-dns++.so.42:_ZNK3isc3dns17DNSMessageBADVERS8getRcodeEv
libkea-dns++.so.42:_ZNK3isc3dns17DNSMessageFORMERR8getRcodeEv
libkea-dns++.so.42:_ZNK3isc3dns20ZoneCheckerCallbacks4warnERKNSt7__cxx1112basic_stringIcSt11char_traitsIcESaIcEEE
libkea-dns++.so.42:_ZNK3isc3dns21master_lexer_internal5State10wasLastEOLERKNS0_11MasterLexerE
libkea-dns++.so.42:_ZNK3isc3dns21master_lexer_internal5State13getParenCountERKNS0_11MasterLexerE
libkea-dns++.so.42:_ZNK3isc3dns21master_lexer_internal5State8getTokenERKNS0_11MasterLexerE
libkea-dns++.so.42:_ZNK3isc3dns23DefaultNSEC3HashCreator6createERKNS0_5rdata7generic10NSEC3PARAME
libkea-dns++.so.42:_ZNK3isc3dns23DefaultNSEC3HashCreator6createERKNS0_5rdata7generic5NSEC3E
libkea-dns++.so.42:_ZNK3isc3dns23DefaultNSEC3HashCreator6createEhtPKhm
libkea-dns++.so.42:_ZNK3isc3dns4EDNS6toTextB5cxx11Ev
libkea-dns++.so.42:_ZNK3isc3dns4EDNS6toWireERNS0_23AbstractMessageRendererEh
libkea-dns++.so.42:_ZNK3isc3dns4EDNS6toWireERNS_4util12OutputBufferEh
libkea-dns++.so.42:_ZNK3isc3dns4Name10isWildcardEv
libkea-dns++.so.42:_ZNK3isc3dns4Name11concatenateERKS1_
libkea-dns++.so.42:_ZNK3isc3dns4Name3geqERKS1_
libkea-dns++.so.42:_ZNK3isc3dns4Name3leqERKS1_
libkea-dns++.so.42:_ZNK3isc3dns4Name5gthanERKS1_
libkea-dns++.so.42:_ZNK3isc3dns4Name5lthanERKS1_
libkea-dns++.so.42:_ZNK3isc3dns4Name5splitEj
libkea-dns++.so.42:_ZNK3isc3dns4Name5splitEjj
libkea-dns++.so.42:_ZNK3isc3dns4Name6equalsERKS1_
libkea-dns++.so.42:_ZNK3isc3dns4Name6toTextB5cxx11Eb
libkea-dns++.so.42:_ZNK3isc3dns4Name6toWireERNS0_23AbstractMessageRendererE
libkea-dns++.so.42:_ZNK3isc3dns4Name6toWireERNS_4util12OutputBufferE
libkea-dns++.so.42:_ZNK3isc3dns4Name7compareERKS1_
libkea-dns++.so.42:_ZNK3isc3dns4Name7reverseEv
libkea-dns++.so.42:_ZNK3isc3dns4Name9toRawTextB5cxx11Eb
libkea-dns++.so.42:_ZNK3isc3dns5RRTTL6toTextB5cxx11Ev
libkea-dns++.so.42:_ZNK3isc3dns5RRTTL6toWireERNS0_23AbstractMessageRendererE
libkea-dns++.so.42:_ZNK3isc3dns5RRTTL6toWireERNS_4util12OutputBufferE
libkea-dns++.so.42:_ZNK3isc3dns5RRset17getRRsigDataCountEv
libkea-dns++.so.42:_ZNK3isc3dns5RRset6toWireERNS0_23AbstractMessageRendererE
libkea-dns++.so.42:_ZNK3isc3dns5RRset6toWireERNS_4util12OutputBufferE
libkea-dns++.so.42:_ZNK3isc3dns5RRset9getLengthEv
libkea-dns++.so.42:_ZNK3isc3dns5Rcode15getExtendedCodeEv
libkea-dns++.so.42:_ZNK3isc3dns5Rcode6toTextB5cxx11Ev
libkea-dns++.so.42:_ZNK3isc3dns5rdata11RdataFields12getFieldSpecEj
libkea-dns++.so.42:_ZNK3isc3dns5rdata11RdataFields6toWireERNS0_23AbstractMessageRendererE
libkea-dns++.so.42:_ZNK3isc3dns5rdata11RdataFields6toWireERNS_4util12OutputBufferE
libkea-dns++.so.42:_ZNK3isc3dns5rdata2ch1A6toTextB5cxx11Ev
libkea-dns++.so.42:_ZNK3isc3dns5rdata2ch1A6toWireERNS0_23AbstractMessageRendererE
libkea-dns++.so.42:_ZNK3isc3dns5rdata2ch1A6toWireERNS_4util12OutputBufferE
libkea-dns++.so.42:_ZNK3isc3dns5rdata2ch1A7compareERKNS1_5RdataE
libkea-dns++.so.42:_ZNK3isc3dns5rdata2hs1A6toTextB5cxx11Ev
libkea-dns++.so.42:_ZNK3isc3dns5rdata2hs1A6toWireERNS0_23AbstractMessageRendererE
libkea-dns++.so.42:_ZNK3isc3dns5rdata2hs1A6toWireERNS_4util12OutputBufferE
libkea-dns++.so.42:_ZNK3isc3dns5rdata2hs1A7compareERKNS1_5RdataE
libkea-dns++.so.42:_ZNK3isc3dns5rdata2in1A6toTextB5cxx11Ev
libkea-dns++.so.42:_ZNK3isc3dns5rdata2in1A6toWireERNS0_23AbstractMessageRendererE
libkea-dns++.so.42:_ZNK3isc3dns5rdata2in1A6toWireERNS_4util12OutputBufferE
libkea-dns++.so.42:_ZNK3isc3dns5rdata2in1A7compareERKNS1_5RdataE
libkea-dns++.so.42:_ZNK3isc3dns5rdata2in3SRV11getPriorityEv
libkea-dns++.so.42:_ZNK3isc3dns5rdata2in3SRV6toTextB5cxx11Ev
libkea-dns++.so.42:_ZNK3isc3dns5rdata2in3SRV6toWireERNS0_23AbstractMessageRendererE
libkea-dns++.so.42:_ZNK3isc3dns5rdata2in3SRV6toWireERNS_4util12OutputBufferE
libkea-dns++.so.42:_ZNK3isc3dns5rdata2in3SRV7compareERKNS1_5RdataE
libkea-dns++.so.42:_ZNK3isc3dns5rdata2in3SRV7getPortEv
libkea-dns++.so.42:_ZNK3isc3dns5rdata2in3SRV9getTargetEv
libkea-dns++.so.42:_ZNK3isc3dns5rdata2in3SRV9getWeightEv
libkea-dns++.so.42:_ZNK3isc3dns5rdata2in4AAAA6toTextB5cxx11Ev
libkea-dns++.so.42:_ZNK3isc3dns5rdata2in4AAAA6toWireERNS0_23AbstractMessageRendererE
libkea-dns++.so.42:_ZNK3isc3dns5rdata2in4AAAA6toWireERNS_4util12OutputBufferE
libkea-dns++.so.42:_ZNK3isc3dns5rdata2in4AAAA7compareERKNS1_5RdataE
libkea-dns++.so.42:_ZNK3isc3dns5rdata2in5DHCID6toTextB5cxx11Ev
libkea-dns++.so.42:_ZNK3isc3dns5rdata2in5DHCID6toWireERNS0_23AbstractMessageRendererE
libkea-dns++.so.42:_ZNK3isc3dns5rdata2in5DHCID6toWireERNS_4util12OutputBufferE
libkea-dns++.so.42:_ZNK3isc3dns5rdata2in5DHCID7compareERKNS1_5RdataE
libkea-dns++.so.42:_ZNK3isc3dns5rdata2in5DHCID9getDigestEv
libkea-dns++.so.42:_ZNK3isc3dns5rdata3any4TSIG10getMACSizeEv
libkea-dns++.so.42:_ZNK3isc3dns5rdata3any4TSIG11getOtherLenEv
libkea-dns++.so.42:_ZNK3isc3dns5rdata3any4TSIG12getAlgorithmEv
libkea-dns++.so.42:_ZNK3isc3dns5rdata3any4TSIG12getOtherDataEv
libkea-dns++.so.42:_ZNK3isc3dns5rdata3any4TSIG13getOriginalIDEv
libkea-dns++.so.42:_ZNK3isc3dns5rdata3any4TSIG13getTimeSignedEv
libkea-dns++.so.42:_ZNK3isc3dns5rdata3any4TSIG6getMACEv
libkea-dns++.so.42:_ZNK3isc3dns5rdata3any4TSIG6toTextB5cxx11Ev
libkea-dns++.so.42:_ZNK3isc3dns5rdata3any4TSIG6toWireERNS0_23AbstractMessageRendererE
libkea-dns++.so.42:_ZNK3isc3dns5rdata3any4TSIG6toWireERNS_4util12OutputBufferE
libkea-dns++.so.42:_ZNK3isc3dns5rdata3any4TSIG7compareERKNS1_5RdataE
libkea-dns++.so.42:_ZNK3isc3dns5rdata3any4TSIG8getErrorEv
libkea-dns++.so.42:_ZNK3isc3dns5rdata3any4TSIG8getFudgeEv
libkea-dns++.so.42:_ZNK3isc3dns5rdata5Rdata9getLengthEv
libkea-dns++.so.42:_ZNK3isc3dns5rdata7generic10NSEC3PARAM10getHashalgEv
libkea-dns++.so.42:_ZNK3isc3dns5rdata7generic10NSEC3PARAM13getIterationsEv
libkea-dns++.so.42:_ZNK3isc3dns5rdata7generic10NSEC3PARAM6toTextB5cxx11Ev
libkea-dns++.so.42:_ZNK3isc3dns5rdata7generic10NSEC3PARAM6toWireERNS0_23AbstractMessageRendererE
libkea-dns++.so.42:_ZNK3isc3dns5rdata7generic10NSEC3PARAM6toWireERNS_4util12OutputBufferE
libkea-dns++.so.42:_ZNK3isc3dns5rdata7generic10NSEC3PARAM7compareERKNS1_5RdataE
libkea-dns++.so.42:_ZNK3isc3dns5rdata7generic10NSEC3PARAM7getSaltEv
libkea-dns++.so.42:_ZNK3isc3dns5rdata7generic10NSEC3PARAM8getFlagsEv
libkea-dns++.so.42:_ZNK3isc3dns5rdata7generic2DS6getTagEv
libkea-dns++.so.42:_ZNK3isc3dns5rdata7generic2DS6toTextB5cxx11Ev
libkea-dns++.so.42:_ZNK3isc3dns5rdata7generic2DS6toWireERNS0_23AbstractMessageRendererE
libkea-dns++.so.42:_ZNK3isc3dns5rdata7generic2DS6toWireERNS_4util12OutputBufferE
libkea-dns++.so.42:_ZNK3isc3dns5rdata7generic2DS7compareERKNS1_5RdataE
libkea-dns++.so.42:_ZNK3isc3dns5rdata7generic2MX6toTextB5cxx11Ev
libkea-dns++.so.42:_ZNK3isc3dns5rdata7generic2MX6toWireERNS0_23AbstractMessageRendererE
libkea-dns++.so.42:_ZNK3isc3dns5rdata7generic2MX6toWireERNS_4util12OutputBufferE
libkea-dns++.so.42:_ZNK3isc3dns5rdata7generic2MX7compareERKNS1_5RdataE
libkea-dns++.so.42:_ZNK3isc3dns5rdata7generic2MX9getMXNameEv
libkea-dns++.so.42:_ZNK3isc3dns5rdata7generic2MX9getMXPrefEv
libkea-dns++.so.42:_ZNK3isc3dns5rdata7generic2NS6toTextB5cxx11Ev
libkea-dns++.so.42:_ZNK3isc3dns5rdata7generic2NS6toWireERNS0_23AbstractMessageRendererE
libkea-dns++.so.42:_ZNK3isc3dns5rdata7generic2NS6toWireERNS_4util12OutputBufferE
libkea-dns++.so.42:_ZNK3isc3dns5rdata7generic2NS7compareERKNS1_5RdataE
libkea-dns++.so.42:_ZNK3isc3dns5rdata7generic2NS9getNSNameEv
libkea-dns++.so.42:_ZNK3isc3dns5rdata7generic2RP6toTextB5cxx11Ev
libkea-dns++.so.42:_ZNK3isc3dns5rdata7generic2RP6toWireERNS0_23AbstractMessageRendererE
libkea-dns++.so.42:_ZNK3isc3dns5rdata7generic2RP6toWireERNS_4util12OutputBufferE
libkea-dns++.so.42:_ZNK3isc3dns5rdata7generic2RP7compareERKNS1_5RdataE
libkea-dns++.so.42:_ZNK3isc3dns5rdata7generic3CAA6getTagB5cxx11Ev
libkea-dns++.so.42:_ZNK3isc3dns5rdata7generic3CAA6toTextB5cxx11Ev
libkea-dns++.so.42:_ZNK3isc3dns5rdata7generic3CAA6toWireERNS0_23AbstractMessageRendererE
libkea-dns++.so.42:_ZNK3isc3dns5rdata7generic3CAA6toWireERNS_4util12OutputBufferE
libkea-dns++.so.42:_ZNK3isc3dns5rdata7generic3CAA7compareERKNS1_5RdataE
libkea-dns++.so.42:_ZNK3isc3dns5rdata7generic3CAA8getFlagsEv
libkea-dns++.so.42:_ZNK3isc3dns5rdata7generic3CAA8getValueEv
libkea-dns++.so.42:_ZNK3isc3dns5rdata7generic3DLV6getTagEv
libkea-dns++.so.42:_ZNK3isc3dns5rdata7generic3DLV6toTextB5cxx11Ev
libkea-dns++.so.42:_ZNK3isc3dns5rdata7generic3DLV6toWireERNS0_23AbstractMessageRendererE
libkea-dns++.so.42:_ZNK3isc3dns5rdata7generic3DLV6toWireERNS_4util12OutputBufferE
libkea-dns++.so.42:_ZNK3isc3dns5rdata7generic3DLV7compareERKNS1_5RdataE
libkea-dns++.so.42:_ZNK3isc3dns5rdata7generic3OPT12getPseudoRRsEv
libkea-dns++.so.42:_ZNK3isc3dns5rdata7generic3OPT6toTextB5cxx11Ev
libkea-dns++.so.42:_ZNK3isc3dns5rdata7generic3OPT6toWireERNS0_23AbstractMessageRendererE
libkea-dns++.so.42:_ZNK3isc3dns5rdata7generic3OPT6toWireERNS_4util12OutputBufferE
libkea-dns++.so.42:_ZNK3isc3dns5rdata7generic3OPT7compareERKNS1_5RdataE
libkea-dns++.so.42:_ZNK3isc3dns5rdata7generic3OPT8PseudoRR7getCodeEv
libkea-dns++.so.42:_ZNK3isc3dns5rdata7generic3OPT8PseudoRR7getDataEv
libkea-dns++.so.42:_ZNK3isc3dns5rdata7generic3OPT8PseudoRR9getLengthEv
libkea-dns++.so.42:_ZNK3isc3dns5rdata7generic3PTR10getPTRNameEv
libkea-dns++.so.42:_ZNK3isc3dns5rdata7generic3PTR6toTextB5cxx11Ev
libkea-dns++.so.42:_ZNK3isc3dns5rdata7generic3PTR6toWireERNS0_23AbstractMessageRendererE
libkea-dns++.so.42:_ZNK3isc3dns5rdata7generic3PTR6toWireERNS_4util12OutputBufferE
libkea-dns++.so.42:_ZNK3isc3dns5rdata7generic3PTR7compareERKNS1_5RdataE
libkea-dns++.so.42:_ZNK3isc3dns5rdata7generic3SOA10getMinimumEv
libkea-dns++.so.42:_ZNK3isc3dns5rdata7generic3SOA6toTextB5cxx11Ev
libkea-dns++.so.42:_ZNK3isc3dns5rdata7generic3SOA6toWireERNS0_23AbstractMessageRendererE
libkea-dns++.so.42:_ZNK3isc3dns5rdata7generic3SOA6toWireERNS_4util12OutputBufferE
libkea-dns++.so.42:_ZNK3isc3dns5rdata7generic3SOA7compareERKNS1_5RdataE
libkea-dns++.so.42:_ZNK3isc3dns5rdata7generic3SOA9getSerialEv
libkea-dns++.so.42:_ZNK3isc3dns5rdata7generic3SPF6toTextB5cxx11Ev
libkea-dns++.so.42:_ZNK3isc3dns5rdata7generic3SPF6toWireERNS0_23AbstractMessageRendererE
libkea-dns++.so.42:_ZNK3isc3dns5rdata7generic3SPF6toWireERNS_4util12OutputBufferE
libkea-dns++.so.42:_ZNK3isc3dns5rdata7generic3SPF7compareERKNS1_5RdataE
libkea-dns++.so.42:_ZNK3isc3dns5rdata7generic3TXT6toTextB5cxx11Ev
libkea-dns++.so.42:_ZNK3isc3dns5rdata7generic3TXT6toWireERNS0_23AbstractMessageRendererE
libkea-dns++.so.42:_ZNK3isc3dns5rdata7generic3TXT6toWireERNS_4util12OutputBufferE
libkea-dns++.so.42:_ZNK3isc3dns5rdata7generic3TXT7compareERKNS1_5RdataE
libkea-dns++.so.42:_ZNK3isc3dns5rdata7generic4NSEC11getNextNameEv
libkea-dns++.so.42:_ZNK3isc3dns5rdata7generic4NSEC6toTextB5cxx11Ev
libkea-dns++.so.42:_ZNK3isc3dns5rdata7generic4NSEC6toWireERNS0_23AbstractMessageRendererE
libkea-dns++.so.42:_ZNK3isc3dns5rdata7generic4NSEC6toWireERNS_4util12OutputBufferE
libkea-dns++.so.42:_ZNK3isc3dns5rdata7generic4NSEC7compareERKNS1_5RdataE
libkea-dns++.so.42:_ZNK3isc3dns5rdata7generic4TKEY11getOtherLenEv
libkea-dns++.so.42:_ZNK3isc3dns5rdata7generic4TKEY12getAlgorithmEv
libkea-dns++.so.42:_ZNK3isc3dns5rdata7generic4TKEY12getInceptionEv
libkea-dns++.so.42:_ZNK3isc3dns5rdata7generic4TKEY12getOtherDataEv
libkea-dns++.so.42:_ZNK3isc3dns5rdata7generic4TKEY13getExpireDateB5cxx11Ev
libkea-dns++.so.42:_ZNK3isc3dns5rdata7generic4TKEY16getInceptionDateB5cxx11Ev
libkea-dns++.so.42:_ZNK3isc3dns5rdata7generic4TKEY6getKeyEv
libkea-dns++.so.42:_ZNK3isc3dns5rdata7generic4TKEY6toTextB5cxx11Ev
libkea-dns++.so.42:_ZNK3isc3dns5rdata7generic4TKEY6toWireERNS0_23AbstractMessageRendererE
libkea-dns++.so.42:_ZNK3isc3dns5rdata7generic4TKEY6toWireERNS_4util12OutputBufferE
libkea-dns++.so.42:_ZNK3isc3dns5rdata7generic4TKEY7compareERKNS1_5RdataE
libkea-dns++.so.42:_ZNK3isc3dns5rdata7generic4TKEY7getModeEv
libkea-dns++.so.42:_ZNK3isc3dns5rdata7generic4TKEY8getErrorEv
libkea-dns++.so.42:_ZNK3isc3dns5rdata7generic4TKEY9getExpireEv
libkea-dns++.so.42:_ZNK3isc3dns5rdata7generic4TKEY9getKeyLenEv
libkea-dns++.so.42:_ZNK3isc3dns5rdata7generic4TLSA11getSelectorEv
libkea-dns++.so.42:_ZNK3isc3dns5rdata7generic4TLSA13getDataLengthEv
libkea-dns++.so.42:_ZNK3isc3dns5rdata7generic4TLSA15getMatchingTypeEv
libkea-dns++.so.42:_ZNK3isc3dns5rdata7generic4TLSA19getCertificateUsageEv
libkea-dns++.so.42:_ZNK3isc3dns5rdata7generic4TLSA6toTextB5cxx11Ev
libkea-dns++.so.42:_ZNK3isc3dns5rdata7generic4TLSA6toWireERNS0_23AbstractMessageRendererE
libkea-dns++.so.42:_ZNK3isc3dns5rdata7generic4TLSA6toWireERNS_4util12OutputBufferE
libkea-dns++.so.42:_ZNK3isc3dns5rdata7generic4TLSA7compareERKNS1_5RdataE
libkea-dns++.so.42:_ZNK3isc3dns5rdata7generic4TLSA7getDataEv
libkea-dns++.so.42:_ZNK3isc3dns5rdata7generic5AFSDB10getSubtypeEv
libkea-dns++.so.42:_ZNK3isc3dns5rdata7generic5AFSDB6toTextB5cxx11Ev
libkea-dns++.so.42:_ZNK3isc3dns5rdata7generic5AFSDB6toWireERNS0_23AbstractMessageRendererE
libkea-dns++.so.42:_ZNK3isc3dns5rdata7generic5AFSDB6toWireERNS_4util12OutputBufferE
libkea-dns++.so.42:_ZNK3isc3dns5rdata7generic5AFSDB7compareERKNS1_5RdataE
libkea-dns++.so.42:_ZNK3isc3dns5rdata7generic5AFSDB9getServerEv
libkea-dns++.so.42:_ZNK3isc3dns5rdata7generic5CNAME6toTextB5cxx11Ev
libkea-dns++.so.42:_ZNK3isc3dns5rdata7generic5CNAME6toWireERNS0_23AbstractMessageRendererE
libkea-dns++.so.42:_ZNK3isc3dns5rdata7generic5CNAME6toWireERNS_4util12OutputBufferE
libkea-dns++.so.42:_ZNK3isc3dns5rdata7generic5CNAME7compareERKNS1_5RdataE
libkea-dns++.so.42:_ZNK3isc3dns5rdata7generic5CNAME8getCnameEv
libkea-dns++.so.42:_ZNK3isc3dns5rdata7generic5DNAME6toTextB5cxx11Ev
libkea-dns++.so.42:_ZNK3isc3dns5rdata7generic5DNAME6toWireERNS0_23AbstractMessageRendererE
libkea-dns++.so.42:_ZNK3isc3dns5rdata7generic5DNAME6toWireERNS_4util12OutputBufferE
libkea-dns++.so.42:_ZNK3isc3dns5rdata7generic5DNAME7compareERKNS1_5RdataE
libkea-dns++.so.42:_ZNK3isc3dns5rdata7generic5DNAME8getDnameEv
libkea-dns++.so.42:_ZNK3isc3dns5rdata7generic5HINFO5getOSB5cxx11Ev
libkea-dns++.so.42:_ZNK3isc3dns5rdata7generic5HINFO6getCPUB5cxx11Ev
libkea-dns++.so.42:_ZNK3isc3dns5rdata7generic5HINFO6toTextB5cxx11Ev
libkea-dns++.so.42:_ZNK3isc3dns5rdata7generic5HINFO6toWireERNS0_23AbstractMessageRendererE
libkea-dns++.so.42:_ZNK3isc3dns5rdata7generic5HINFO6toWireERNS_4util12OutputBufferE
libkea-dns++.so.42:_ZNK3isc3dns5rdata7generic5HINFO7compareERKNS1_5RdataE
libkea-dns++.so.42:_ZNK3isc3dns5rdata7generic5MINFO6toTextB5cxx11Ev
libkea-dns++.so.42:_ZNK3isc3dns5rdata7generic5MINFO6toWireERNS0_23AbstractMessageRendererE
libkea-dns++.so.42:_ZNK3isc3dns5rdata7generic5MINFO6toWireERNS_4util12OutputBufferE
libkea-dns++.so.42:_ZNK3isc3dns5rdata7generic5MINFO7compareERKNS1_5RdataE
libkea-dns++.so.42:_ZNK3isc3dns5rdata7generic5NAPTR11getServicesB5cxx11Ev
libkea-dns++.so.42:_ZNK3isc3dns5rdata7generic5NAPTR13getPreferenceEv
libkea-dns++.so.42:_ZNK3isc3dns5rdata7generic5NAPTR14getReplacementEv
libkea-dns++.so.42:_ZNK3isc3dns5rdata7generic5NAPTR6toTextB5cxx11Ev
libkea-dns++.so.42:_ZNK3isc3dns5rdata7generic5NAPTR6toWireERNS0_23AbstractMessageRendererE
libkea-dns++.so.42:_ZNK3isc3dns5rdata7generic5NAPTR6toWireERNS_4util12OutputBufferE
libkea-dns++.so.42:_ZNK3isc3dns5rdata7generic5NAPTR7compareERKNS1_5RdataE
libkea-dns++.so.42:_ZNK3isc3dns5rdata7generic5NAPTR8getFlagsB5cxx11Ev
libkea-dns++.so.42:_ZNK3isc3dns5rdata7generic5NAPTR8getOrderEv
libkea-dns++.so.42:_ZNK3isc3dns5rdata7generic5NAPTR9getRegexpB5cxx11Ev
libkea-dns++.so.42:_ZNK3isc3dns5rdata7generic5NSEC310getHashalgEv
libkea-dns++.so.42:_ZNK3isc3dns5rdata7generic5NSEC313getIterationsEv
libkea-dns++.so.42:_ZNK3isc3dns5rdata7generic5NSEC36toTextB5cxx11Ev
libkea-dns++.so.42:_ZNK3isc3dns5rdata7generic5NSEC36toWireERNS0_23AbstractMessageRendererE
libkea-dns++.so.42:_ZNK3isc3dns5rdata7generic5NSEC36toWireERNS_4util12OutputBufferE
libkea-dns++.so.42:_ZNK3isc3dns5rdata7generic5NSEC37compareERKNS1_5RdataE
libkea-dns++.so.42:_ZNK3isc3dns5rdata7generic5NSEC37getNextEv
libkea-dns++.so.42:_ZNK3isc3dns5rdata7generic5NSEC37getSaltEv
libkea-dns++.so.42:_ZNK3isc3dns5rdata7generic5NSEC38getFlagsEv
libkea-dns++.so.42:_ZNK3isc3dns5rdata7generic5RRSIG11typeCoveredEv
libkea-dns++.so.42:_ZNK3isc3dns5rdata7generic5RRSIG6toTextB5cxx11Ev
libkea-dns++.so.42:_ZNK3isc3dns5rdata7generic5RRSIG6toWireERNS0_23AbstractMessageRendererE
libkea-dns++.so.42:_ZNK3isc3dns5rdata7generic5RRSIG6toWireERNS_4util12OutputBufferE
libkea-dns++.so.42:_ZNK3isc3dns5rdata7generic5RRSIG7compareERKNS1_5RdataE
libkea-dns++.so.42:_ZNK3isc3dns5rdata7generic5SSHFP14getFingerprintEv
libkea-dns++.so.42:_ZNK3isc3dns5rdata7generic5SSHFP18getAlgorithmNumberEv
libkea-dns++.so.42:_ZNK3isc3dns5rdata7generic5SSHFP18getFingerprintTypeEv
libkea-dns++.so.42:_ZNK3isc3dns5rdata7generic5SSHFP20getFingerprintLengthEv
libkea-dns++.so.42:_ZNK3isc3dns5rdata7generic5SSHFP6toTextB5cxx11Ev
libkea-dns++.so.42:_ZNK3isc3dns5rdata7generic5SSHFP6toWireERNS0_23AbstractMessageRendererE
libkea-dns++.so.42:_ZNK3isc3dns5rdata7generic5SSHFP6toWireERNS_4util12OutputBufferE
libkea-dns++.so.42:_ZNK3isc3dns5rdata7generic5SSHFP7compareERKNS1_5RdataE
libkea-dns++.so.42:_ZNK3isc3dns5rdata7generic6DNSKEY12getAlgorithmEv
libkea-dns++.so.42:_ZNK3isc3dns5rdata7generic6DNSKEY6getTagEv
libkea-dns++.so.42:_ZNK3isc3dns5rdata7generic6DNSKEY6toTextB5cxx11Ev
libkea-dns++.so.42:_ZNK3isc3dns5rdata7generic6DNSKEY6toWireERNS0_23AbstractMessageRendererE
libkea-dns++.so.42:_ZNK3isc3dns5rdata7generic6DNSKEY6toWireERNS_4util12OutputBufferE
libkea-dns++.so.42:_ZNK3isc3dns5rdata7generic6DNSKEY7compareERKNS1_5RdataE
libkea-dns++.so.42:_ZNK3isc3dns5rdata7generic6DNSKEY8getFlagsEv
libkea-dns++.so.42:_ZNK3isc3dns5rdata7generic7Generic6toTextB5cxx11Ev
libkea-dns++.so.42:_ZNK3isc3dns5rdata7generic7Generic6toWireERNS0_23AbstractMessageRendererE
libkea-dns++.so.42:_ZNK3isc3dns5rdata7generic7Generic6toWireERNS_4util12OutputBufferE
libkea-dns++.so.42:_ZNK3isc3dns5rdata7generic7Generic7compareERKNS1_5RdataE
libkea-dns++.so.42:_ZNK3isc3dns6Opcode6toTextB5cxx11Ev
libkea-dns++.so.42:_ZNK3isc3dns6RRType6toTextB5cxx11Ev
libkea-dns++.so.42:_ZNK3isc3dns6RRType6toWireERNS0_23AbstractMessageRendererE
libkea-dns++.so.42:_ZNK3isc3dns6RRType6toWireERNS_4util12OutputBufferE
libkea-dns++.so.42:_ZNK3isc3dns6SerialeqERKS1_
libkea-dns++.so.42:_ZNK3isc3dns6SerialgeERKS1_
libkea-dns++.so.42:_ZNK3isc3dns6SerialgtERKS1_
libkea-dns++.so.42:_ZNK3isc3dns6SerialleERKS1_
libkea-dns++.so.42:_ZNK3isc3dns6SerialltERKS1_
libkea-dns++.so.42:_ZNK3isc3dns6SerialneERKS1_
libkea-dns++.so.42:_ZNK3isc3dns6SerialplERKS1_
libkea-dns++.so.42:_ZNK3isc3dns6SerialplEj
libkea-dns++.so.42:_ZNK3isc3dns7Message10endSectionENS1_7SectionE
libkea-dns++.so.42:_ZNK3isc3dns7Message10getRRCountENS1_7SectionE
libkea-dns++.so.42:_ZNK3isc3dns7Message11endQuestionEv
libkea-dns++.so.42:_ZNK3isc3dns7Message12beginSectionENS1_7SectionE
libkea-dns++.so.42:_ZNK3isc3dns7Message13beginQuestionEv
libkea-dns++.so.42:_ZNK3isc3dns7Message13getHeaderFlagENS1_10HeaderFlagE
libkea-dns++.so.42:_ZNK3isc3dns7Message13getTSIGRecordEv
libkea-dns++.so.42:_ZNK3isc3dns7Message6getQidEv
libkea-dns++.so.42:_ZNK3isc3dns7Message6toTextB5cxx11Ev
libkea-dns++.so.42:_ZNK3isc3dns7Message7getEDNSEv
libkea-dns++.so.42:_ZNK3isc3dns7Message8getRcodeEv
libkea-dns++.so.42:_ZNK3isc3dns7Message8hasRRsetENS1_7SectionERKN5boost10shared_ptrINS0_13AbstractRRsetEEE
libkea-dns++.so.42:_ZNK3isc3dns7Message8hasRRsetENS1_7SectionERKNS0_4NameERKNS0_7RRClassERKNS0_6RRTypeE
libkea-dns++.so.42:_ZNK3isc3dns7Message9getOpcodeEv
libkea-dns++.so.42:_ZNK3isc3dns7RRClass6toTextB5cxx11Ev
libkea-dns++.so.42:_ZNK3isc3dns7RRClass6toWireERNS0_23AbstractMessageRendererE
libkea-dns++.so.42:_ZNK3isc3dns7RRClass6toWireERNS_4util12OutputBufferE
libkea-dns++.so.42:_ZNK3isc3dns7TSIGKey10getKeyNameEv
libkea-dns++.so.42:_ZNK3isc3dns7TSIGKey12getAlgorithmEv
libkea-dns++.so.42:_ZNK3isc3dns7TSIGKey13getDigestbitsEv
libkea-dns++.so.42:_ZNK3isc3dns7TSIGKey15getSecretLengthEv
libkea-dns++.so.42:_ZNK3isc3dns7TSIGKey16getAlgorithmNameEv
libkea-dns++.so.42:_ZNK3isc3dns7TSIGKey6toTextB5cxx11Ev
libkea-dns++.so.42:_ZNK3isc3dns7TSIGKey9getSecretEv
libkea-dns++.so.42:_ZNK3isc3dns8Question6toTextB5cxx11Eb
libkea-dns++.so.42:_ZNK3isc3dns8Question6toWireERNS0_23AbstractMessageRendererE
libkea-dns++.so.42:_ZNK3isc3dns8Question6toWireERNS_4util12OutputBufferE
libkea-dns++.so.42:_ZNK3isc3dns9TSIGError6toTextB5cxx11Ev
libkea-dns++.so.42:_ZNK3isc3dns9TSIGError7toRcodeEv
libkea-dns++.so.42:_ZNSt17_Function_handlerIFvRKN3isc3dns4NameERKNS1_7RRClassERKNS1_6RRTypeERKNS1_5RRTTLERKN5boost10shared_ptrINS1_5rdata5RdataEEEESt5_BindIFMNS1_10RRCollator4ImplEFvS4_S7_SA_SD_SK_EPSO_St12_PlaceholderILi1EESS_ILi2EESS_ILi3EESS_ILi4EESS_ILi5EEEEE10_M_managerERSt9_Any_dataRKS11_St18_Manager_operation
libkea-dns++.so.42:_ZNSt17_Function_handlerIFvRKN3isc3dns4NameERKNS1_7RRClassERKNS1_6RRTypeERKNS1_5RRTTLERKN5boost10shared_ptrINS1_5rdata5RdataEEEESt5_BindIFMNS1_10RRCollator4ImplEFvS4_S7_SA_SD_SK_EPSO_St12_PlaceholderILi1EESS_ILi2EESS_ILi3EESS_ILi4EESS_ILi5EEEEE9_M_invokeERKSt9_Any_dataS4_S7_SA_SD_SK_
libkea-dns++.so.42:_ZNSt17_Function_handlerIFvRKN5boost10shared_ptrIN3isc3dns13AbstractRRsetEEEESt5_BindIFMNS3_15RRsetCollectionEFvS5_EPSA_St12_PlaceholderILi1EEEEE10_M_managerERSt9_Any_dataRKSJ_St18_Manager_operation
libkea-dns++.so.42:_ZNSt17_Function_handlerIFvRKN5boost10shared_ptrIN3isc3dns13AbstractRRsetEEEESt5_BindIFMNS3_15RRsetCollectionEFvS5_EPSA_St12_PlaceholderILi1EEEEE9_M_invokeERKSt9_Any_dataS7_
libkea-dns++.so.42:_ZNSt17_Function_handlerIFvRKN5boost10shared_ptrIN3isc3dns13AbstractRRsetEEEESt5_BindIFPFvS7_St8functionIFvS5_EEPKNS3_4NameEESt12_PlaceholderILi1EESC_SF_EEE10_M_managerERSt9_Any_dataRKSN_St18_Manager_operation
libkea-dns++.so.42:_ZNSt17_Function_handlerIFvRKN5boost10shared_ptrIN3isc3dns13AbstractRRsetEEEESt5_BindIFPFvS7_St8functionIFvS5_EEPKNS3_4NameEESt12_PlaceholderILi1EESC_SF_EEE9_M_invokeERKSt9_Any_dataS7_
libkea-dns++.so.42:_ZNSt17_Function_handlerIFvRKNSt7__cxx1112basic_stringIcSt11char_traitsIcESaIcEEEESt5_BindIFMN3isc3dns20ZoneCheckerCallbacksEKFvS7_EPKSC_St12_PlaceholderILi1EEEEE10_M_managerERSt9_Any_dataRKSM_St18_Manager_operation
libkea-dns++.so.42:_ZNSt17_Function_handlerIFvRKNSt7__cxx1112basic_stringIcSt11char_traitsIcESaIcEEEESt5_BindIFMN3isc3dns20ZoneCheckerCallbacksEKFvS7_EPKSC_St12_PlaceholderILi1EEEEE9_M_invokeERKSt9_Any_dataS7_
libkea-dns++.so.42:_ZNSt17_Function_handlerIFvRKNSt7__cxx1112basic_stringIcSt11char_traitsIcESaIcEEEESt5_BindIFPFvS7_PKN3isc3dns20ZoneCheckerCallbacksEPbESt12_PlaceholderILi1EESE_SF_EEE10_M_managerERSt9_Any_dataRKSN_St18_Manager_operation
libkea-dns++.so.42:_ZNSt17_Function_handlerIFvRKNSt7__cxx1112basic_stringIcSt11char_traitsIcESaIcEEEESt5_BindIFPFvS7_PKN3isc3dns20ZoneCheckerCallbacksEPbESt12_PlaceholderILi1EESE_SF_EEE9_M_invokeERKSt9_Any_dataS7_
libkea-dns++.so.42:_ZNSt17_Function_handlerIFvRKNSt7__cxx1112basic_stringIcSt11char_traitsIcESaIcEEEmS7_EPS8_E10_M_managerERSt9_Any_dataRKSB_St18_Manager_operation
libkea-dns++.so.42:_ZNSt17_Function_handlerIFvRKNSt7__cxx1112basic_stringIcSt11char_traitsIcESaIcEEEmS7_EPS8_E9_M_invokeERKSt9_Any_dataS7_OmS7_
libkea-dns++.so.42:_ZNSt17_Function_handlerIFvRKNSt7__cxx1112basic_stringIcSt11char_traitsIcESaIcEEEmS7_ESt5_BindIFMN3isc3dns15RRsetCollectionEFvS7_mS7_EPSC_St12_PlaceholderILi1EESG_ILi2EESG_ILi3EEEEE10_M_managerERSt9_Any_dataRKSN_St18_Manager_operation
libkea-dns++.so.42:_ZNSt17_Function_handlerIFvRKNSt7__cxx1112basic_stringIcSt11char_traitsIcESaIcEEEmS7_ESt5_BindIFMN3isc3dns15RRsetCollectionEFvS7_mS7_EPSC_St12_PlaceholderILi1EESG_ILi2EESG_ILi3EEEEE9_M_invokeERKSt9_Any_dataS7_OmS7_
libkea-eval.so.52:_Z10evalget_inv
libkea-eval.so.52:_Z10evalset_inP8_IO_FILE
libkea-eval.so.52:_Z11evalget_outv
libkea-eval.so.52:_Z11evalreallocPvm
libkea-eval.so.52:_Z11evalrestartP8_IO_FILE
libkea-eval.so.52:_Z11evalset_outP8_IO_FILE
libkea-eval.so.52:_Z12evalget_lengv
libkea-eval.so.52:_Z12evalget_textv
libkea-eval.so.52:_Z13evalget_debugv
libkea-eval.so.52:_Z13evalset_debugi
libkea-eval.so.52:_Z14evalget_linenov
libkea-eval.so.52:_Z14evalset_linenoi
libkea-eval.so.52:_Z15eval_scan_bytesPKci
libkea-eval.so.52:_Z15evallex_destroyv
libkea-eval.so.52:_Z16eval_scan_bufferPcm
libkea-eval.so.52:_Z16eval_scan_stringPKc
libkea-eval.so.52:_Z17eval_flush_bufferP15yy_buffer_state
libkea-eval.so.52:_Z18eval_create_bufferP8_IO_FILEi
libkea-eval.so.52:_Z18eval_delete_bufferP15yy_buffer_state
libkea-eval.so.52:_Z20evalpop_buffer_statev
libkea-eval.so.52:_Z21eval_switch_to_bufferP15yy_buffer_state
libkea-eval.so.52:_Z21evalpush_buffer_stateP15yy_buffer_state
libkea-eval.so.52:_Z7evallexRN3isc4eval11EvalContextE
libkea-eval.so.52:_Z8evalfreePv
libkea-eval.so.52:_Z9evalallocm
libkea-eval.so.52:_ZN3isc4dhcp10TokenEqual8evaluateERNS0_3PktERSt5stackINSt7__cxx1112basic_stringIcSt11char_traitsIcESaIcEEESt5dequeISA_SaISA_EEE
libkea-eval.so.52:_ZN3isc4dhcp10TokenSplit8evaluateERNS0_3PktERSt5stackINSt7__cxx1112basic_stringIcSt11char_traitsIcESaIcEEESt5dequeISA_SaISA_EEE
libkea-eval.so.52:_ZN3isc4dhcp11TokenConcat8evaluateERNS0_3PktERSt5stackINSt7__cxx1112basic_stringIcSt11char_traitsIcESaIcEEESt5dequeISA_SaISA_EEE
libkea-eval.so.52:_ZN3isc4dhcp11TokenIfElse8evaluateERNS0_3PktERSt5stackINSt7__cxx1112basic_stringIcSt11char_traitsIcESaIcEEESt5dequeISA_SaISA_EEE
libkea-eval.so.52:_ZN3isc4dhcp11TokenMember8evaluateERNS0_3PktERSt5stackINSt7__cxx1112basic_stringIcSt11char_traitsIcESaIcEEESt5dequeISA_SaISA_EEE
libkea-eval.so.52:_ZN3isc4dhcp11TokenOption11pushFailureERSt5stackINSt7__cxx1112basic_stringIcSt11char_traitsIcESaIcEEESt5dequeIS8_SaIS8_EEE
libkea-eval.so.52:_ZN3isc4dhcp11TokenOption8evaluateERNS0_3PktERSt5stackINSt7__cxx1112basic_stringIcSt11char_traitsIcESaIcEEESt5dequeISA_SaISA_EEE
libkea-eval.so.52:_ZN3isc4dhcp11TokenOption9getOptionERNS0_3PktE
libkea-eval.so.52:_ZN3isc4dhcp11TokenString8evaluateERNS0_3PktERSt5stackINSt7__cxx1112basic_stringIcSt11char_traitsIcESaIcEEESt5dequeISA_SaISA_EEE
libkea-eval.so.52:_ZN3isc4dhcp11TokenVendor8evaluateERNS0_3PktERSt5stackINSt7__cxx1112basic_stringIcSt11char_traitsIcESaIcEEESt5dequeISA_SaISA_EEE
libkea-eval.so.52:_ZN3isc4dhcp11TokenVendor9getOptionERNS0_3PktE
libkea-eval.so.52:_ZN3isc4dhcp11TokenVendorC1ENS0_6Option8UniverseEjNS0_11TokenOption18RepresentationTypeEt
libkea-eval.so.52:_ZN3isc4dhcp11TokenVendorC1ENS0_6Option8UniverseEjNS1_9FieldTypeE
libkea-eval.so.52:_ZN3isc4dhcp11TokenVendorC2ENS0_6Option8UniverseEjNS0_11TokenOption18RepresentationTypeEt
libkea-eval.so.52:_ZN3isc4dhcp11TokenVendorC2ENS0_6Option8UniverseEjNS1_9FieldTypeE
libkea-eval.so.52:_ZN3isc4dhcp12TokenIntegerC1Ej
libkea-eval.so.52:_ZN3isc4dhcp12TokenIntegerC2Ej
libkea-eval.so.52:_ZN3isc4dhcp12evaluateBoolERKSt6vectorIN5boost10shared_ptrINS0_5TokenEEESaIS5_EERNS0_3PktE
libkea-eval.so.52:_ZN3isc4dhcp13dependOnClassERKN5boost10shared_ptrINS0_5TokenEEERKNSt7__cxx1112basic_stringIcSt11char_traitsIcESaIcEEE
libkea-eval.so.52:_ZN3isc4dhcp13dependOnClassERKN5boost10shared_ptrISt6vectorINS2_INS0_5TokenEEESaIS5_EEEERKNSt7__cxx1112basic_stringIcSt11char_traitsIcESaIcEEE
libkea-eval.so.52:_ZN3isc4dhcp14TokenHexString8evaluateERNS0_3PktERSt5stackINSt7__cxx1112basic_stringIcSt11char_traitsIcESaIcEEESt5dequeISA_SaISA_EEE
libkea-eval.so.52:_ZN3isc4dhcp14TokenHexStringC1ERKNSt7__cxx1112basic_stringIcSt11char_traitsIcESaIcEEE
